Archive member included because of file (symbol)

/homes/markli/u-boot-siege-git/u-boot/gcc_depends/n32/libgcc.a(_ffssi2.o)
                              arch/mips/cpu/octeon/cvmx/libcvmx.o (__ffsdi2)
/homes/markli/u-boot-siege-git/u-boot/gcc_depends/n32/libgcc.a(_clz.o)
                              /homes/markli/u-boot-siege-git/u-boot/gcc_depends/n32/libgcc.a(_ffssi2.o) (__clz_tab)
/homes/markli/u-boot-siege-git/u-boot/gcc_depends/n32/libgcc.a(_ctzsi2.o)
                              arch/mips/cpu/octeon/cvmx/libcvmx.o (__ctzdi2)
/homes/markli/u-boot-siege-git/u-boot/gcc_depends/n32/libgcc.a(_sf_to_df.o)
                              arch/mips/cpu/octeon/cvmx/libcvmx.o (__extendsfdf2)
/homes/markli/u-boot-siege-git/u-boot/gcc_depends/n32/libgcc.a(_make_df.o)
                              /homes/markli/u-boot-siege-git/u-boot/gcc_depends/n32/libgcc.a(_sf_to_df.o) (__make_dp)
/homes/markli/u-boot-siege-git/u-boot/gcc_depends/n32/libgcc.a(_unpack_sf.o)
                              /homes/markli/u-boot-siege-git/u-boot/gcc_depends/n32/libgcc.a(_sf_to_df.o) (__unpack_f)
/homes/markli/u-boot-siege-git/u-boot/gcc_depends/n32/libgcc.a(_pack_df.o)
                              /homes/markli/u-boot-siege-git/u-boot/gcc_depends/n32/libgcc.a(_make_df.o) (__pack_d)

Allocating common symbols
Common symbol       size              file

console_buffer      0x401             common/libcommon.o
NetDNSenvvar        0x4               net/libnet.o
cvmx_bootinfo_array
                    0x48000           arch/mips/cpu/octeon/libocteon.o
CDPApplianceVLAN    0x2               net/libnet.o
NetArpWaitTry       0x4               net/libnet.o
NetArpWaitPacketMAC
                    0x4               net/libnet.o
pki_dflt_qpg        0x70              arch/mips/cpu/octeon/cvmx/libcvmx.o
NetOurEther         0x6               net/libnet.o
sata_device_desc    0x8               drivers/block/libblock.o
__cvmx_pko3_dq_table
                    0x4               arch/mips/cpu/octeon/cvmx/libcvmx.o
NetOurIP            0x4               net/libnet.o
__cvmx_qlm_jtag_xor_ref
                    0x4               arch/mips/cpu/octeon/cvmx/libcvmx.o
NetPingIP           0x4               net/libnet.o
cvmx_l2c_vrt_spinlock
                    0x4               arch/mips/cpu/octeon/cvmx/libcvmx.o
NetServerIP         0x4               net/libnet.o
packets_sent        0x4               drivers/net/libnet.o
lock                0x4               arch/mips/cpu/octeon/cvmx/libcvmx.o
cvmx_fau_register_type
                    0x800             arch/mips/cpu/octeon/cvmx/libcvmx.o
usb_started         0x1               common/libcommon.o
monitor_flash_len   0x4               arch/mips/lib/libmips.o
pki_dflt_sso_grp    0x80              arch/mips/cpu/octeon/cvmx/libcvmx.o
save_addr           0x4               common/libcommon.o
cvmx_l2c_spinlock   0x4               arch/mips/cpu/octeon/cvmx/libcvmx.o
iface_node_ops      0xb0              arch/mips/cpu/octeon/cvmx/libcvmx.o
qos_watcher         0xa0              arch/mips/cpu/octeon/cvmx/libcvmx.o
___strtok           0x4               lib/libgeneric.o
NetArpWaitTxPacketSize
                    0x4               net/libnet.o
NetRxPackets        0x10              net/libnet.o
boot_desc           0x64000           arch/mips/cpu/octeon/libocteon.o
NetArpWaitPacketIP  0x4               net/libnet.o
cd_count            0xc               common/libcommon.o
cvmx_app_id         0x8               arch/mips/cpu/octeon/cvmx/libcvmx.o
boot_cycle_adjustment
                    0x8               arch/mips/cpu/octeon/libocteon.o
BootpTry            0x4               net/libnet.o
cvmx_export_app_config
                    0x4               arch/mips/cpu/octeon/cvmx/libcvmx.o
BootFile            0x80              net/libnet.o
eth_current         0x4               net/libnet.o
NetDNSResolve       0x4               net/libnet.o
hose0               0x170             arch/mips/cpu/octeon/libocteon.o
NetServerEther      0x6               net/libnet.o
NetOurSubnetMask    0x4               net/libnet.o
NetBootFileSize     0x2               net/libnet.o
octeon_feature_map  0x80              arch/mips/cpu/octeon/cvmx/libcvmx.o
net_busy_flag       0x4               net/libnet.o
NetIPID             0x4               net/libnet.o
NetRxPacket         0x4               net/libnet.o
net_state           0x4               net/libnet.o
boot_info_block_array
                    0xe000            arch/mips/cpu/octeon/libocteon.o
images              0x1f8             common/libcommon.o
pcpu_cfg_blk        0x4               arch/mips/cpu/octeon/cvmx/libcvmx.o
uboot_prompt        0x40              common/libcommon.o
BootpID             0x4               net/libnet.o
CDPNativeVLAN       0x2               net/libnet.o
NetOurDNS2IP        0x4               net/libnet.o
NetOurGatewayIP     0x4               net/libnet.o
cvmx_cfg_port       0x79000           arch/mips/cpu/octeon/cvmx/libcvmx.o
cvmx_npi_max_pknds  0x4               arch/mips/cpu/octeon/cvmx/libcvmx.o
NetEtherNullAddr    0x6               net/libnet.o
working_fdt         0x4               common/libcommon.o
cvmx_enable_helper_flag
                    0x4               arch/mips/cpu/octeon/cvmx/libcvmx.o
do_fat_read_at_block
                    0x10000           fs/fat/libfat.o
NetRestartWrap      0x4               net/libnet.o
octeon_attr_map     0x8               arch/mips/cpu/octeon/cvmx/libcvmx.o
save_size           0x4               common/libcommon.o
cvmx_override_iface_phy_mode
                    0x4               arch/mips/cpu/octeon/cvmx/libcvmx.o
octeon_remote_pcie_eeprom
                    0x8               arch/mips/cpu/octeon/libocteon.o
__cvmx_pko_queue_static_config
                    0x20              arch/mips/cpu/octeon/cvmx/libcvmx.o
ataid               0x80              drivers/block/libblock.o
sata_host_desc      0x8               drivers/block/libblock.o
cvmx_fau_regs_ptr   0x4               arch/mips/cpu/octeon/cvmx/libcvmx.o
sata_pmp_link       0x8               drivers/block/libblock.o
NetTxPacket         0x4               net/libnet.o
__cvmx_cmd_queue_state_ptrs
                    0x10              arch/mips/cpu/octeon/cvmx/libcvmx.o
get_dentfromdir_block
                    0x10000           fs/fat/libfat.o
NetBootFileXferSize
                    0x4               net/libnet.o
pki_dflt_pkind      0xa0              arch/mips/cpu/octeon/cvmx/libcvmx.o
NetOurDNSIP         0x4               net/libnet.o
__cvmx_pko3_dq_params
                    0x10              arch/mips/cpu/octeon/cvmx/libcvmx.o
NetRxPacketLen      0x4               net/libnet.o
console_devices     0xc               common/libcommon.o
coremask_to_run     0x80              arch/mips/cpu/octeon/libocteon.o
sata_dev_desc       0xe8              common/libcommon.o
get_contents_vfatname_block
                    0x10000           fs/fat/libfat.o
pcie_link_initialized
                    0x10              arch/mips/cpu/octeon/cvmx/libcvmx.o
sata_port_desc      0x8               drivers/block/libblock.o
octeon_boot_descriptor_flag
                    0x4               arch/mips/cpu/octeon/cvmx/libcvmx.o
NetArpWaitTimerStart
                    0x4               net/libnet.o

Discarded input sections

 .data          0x0000000000000000        0x0 arch/mips/cpu/octeon/start.o
 .bss           0x0000000000000000        0x0 arch/mips/cpu/octeon/start.o
 .reginfo       0x0000000000000000        0x0 arch/mips/cpu/octeon/start.o
 .pdr           0x0000000000000000        0x0 arch/mips/cpu/octeon/start.o
 .reginfo       0x0000000000000000        0x0 api/libapi.o
 .text          0x0000000000000000        0x0 api/libapi.o
 .data          0x0000000000000000        0x0 api/libapi.o
 .bss           0x0000000000000000        0x0 api/libapi.o
 .pdr           0x0000000000000000        0x0 api/libapi.o
 .reginfo       0x0000000000000000        0x0 arch/mips/cpu/octeon/cvmx/libcvmx.o
 .text          0x0000000000000000        0x0 arch/mips/cpu/octeon/cvmx/libcvmx.o
 .text.generic_ffs
                0x0000000000000000        0x0 arch/mips/cpu/octeon/cvmx/libcvmx.o
 .text.cvmx_bootmem_init
                0x0000000000000000        0x0 arch/mips/cpu/octeon/cvmx/libcvmx.o
 .text.cvmx_bootmem_phy_available_mem
                0x0000000000000000        0x0 arch/mips/cpu/octeon/cvmx/libcvmx.o
 .text.cvmx_bootmem_available_mem
                0x0000000000000000        0x0 arch/mips/cpu/octeon/cvmx/libcvmx.o
 .text.cvmx_bootmem_alloc_node
                0x0000000000000000        0x0 arch/mips/cpu/octeon/cvmx/libcvmx.o
 .text.cvmx_bootmem_alloc_address
                0x0000000000000000        0x0 arch/mips/cpu/octeon/cvmx/libcvmx.o
 .text.cvmx_bootmem_print_named
                0x0000000000000000        0x0 arch/mips/cpu/octeon/cvmx/libcvmx.o
 .text.cvmx_bootmem_alloc_named_range_flags
                0x0000000000000000        0x0 arch/mips/cpu/octeon/cvmx/libcvmx.o
 .text.cvmx_bootmem_alloc_named_flags
                0x0000000000000000        0x0 arch/mips/cpu/octeon/cvmx/libcvmx.o
 .text.cvmx_bootmem_alloc_named_range
                0x0000000000000000        0x0 arch/mips/cpu/octeon/cvmx/libcvmx.o
 .text.cvmx_bootmem_alloc_named
                0x0000000000000000        0x0 arch/mips/cpu/octeon/cvmx/libcvmx.o
 .text.cvmx_bootmem_alloc_named_address
                0x0000000000000000        0x0 arch/mips/cpu/octeon/cvmx/libcvmx.o
 .text.cvmx_bootmem_phy_mem_list_init_multi
                0x0000000000000000        0x0 arch/mips/cpu/octeon/cvmx/libcvmx.o
 .text.cvmx_outputbuffer_config_init_from_cvmx_config
                0x0000000000000000        0x0 arch/mips/cpu/octeon/cvmx/libcvmx.o
 .text.cvmx_core_add_wired_tlb_entry
                0x0000000000000000        0x0 arch/mips/cpu/octeon/cvmx/libcvmx.o
 .text.cvmx_core_add_fixed_tlb_mapping_bits
                0x0000000000000000        0x0 arch/mips/cpu/octeon/cvmx/libcvmx.o
 .text.cvmx_core_add_fixed_tlb_mapping
                0x0000000000000000        0x0 arch/mips/cpu/octeon/cvmx/libcvmx.o
 .text.__cvmx_copy_from_bootmem
                0x0000000000000000        0x0 arch/mips/cpu/octeon/cvmx/libcvmx.o
 .text.cvmx_coremask_bmp2str
                0x0000000000000000        0x0 arch/mips/cpu/octeon/cvmx/libcvmx.o
 .text.cvmx_get_avail_coremask
                0x0000000000000000        0x0 arch/mips/cpu/octeon/cvmx/libcvmx.o
 .text.cvmx_get_hardware_coremask
                0x0000000000000000        0x0 arch/mips/cpu/octeon/cvmx/libcvmx.o
 .text.cvmx_fpa3_get_aura_name
                0x0000000000000000        0x0 arch/mips/cpu/octeon/cvmx/libcvmx.o
 .text.cvmx_fpa3_get_pool_name
                0x0000000000000000        0x0 arch/mips/cpu/octeon/cvmx/libcvmx.o
 .text.cvmx_fpa_validate_pool
                0x0000000000000000        0x0 arch/mips/cpu/octeon/cvmx/libcvmx.o
 .text.cvmx_fpa_get_current_count
                0x0000000000000000        0x0 arch/mips/cpu/octeon/cvmx/libcvmx.o
 .text.cvmx_fpa_get_name
                0x0000000000000000        0x0 arch/mips/cpu/octeon/cvmx/libcvmx.o
 .text.cvmx_fpa1_is_pool_available
                0x0000000000000000        0x0 arch/mips/cpu/octeon/cvmx/libcvmx.o
 .text.cvmx_fpa3_is_pool_available
                0x0000000000000000        0x0 arch/mips/cpu/octeon/cvmx/libcvmx.o
 .text.cvmx_fpa3_is_aura_available
                0x0000000000000000        0x0 arch/mips/cpu/octeon/cvmx/libcvmx.o
 .text.cvmx_fpa_is_pool_available
                0x0000000000000000        0x0 arch/mips/cpu/octeon/cvmx/libcvmx.o
 .text.cvmx_fpa1_get_pool_owner
                0x0000000000000000        0x0 arch/mips/cpu/octeon/cvmx/libcvmx.o
 .text.cvmx_fpa3_get_aura_owner
                0x0000000000000000        0x0 arch/mips/cpu/octeon/cvmx/libcvmx.o
 .text.cvmx_fpa_get_pool_owner
                0x0000000000000000        0x0 arch/mips/cpu/octeon/cvmx/libcvmx.o
 .text.cvmx_get_global_resource_owner
                0x0000000000000000        0x0 arch/mips/cpu/octeon/cvmx/libcvmx.o
 .text.cvmx_show_global_resource_range
                0x0000000000000000        0x0 arch/mips/cpu/octeon/cvmx/libcvmx.o
 .text.cvmx_global_resources_show
                0x0000000000000000        0x0 arch/mips/cpu/octeon/cvmx/libcvmx.o
 .text.cvmx_resource_alloc_many
                0x0000000000000000        0x0 arch/mips/cpu/octeon/cvmx/libcvmx.o
 .text.cvmx_helper_setup_simulator_io_buffer_counts
                0x0000000000000000        0x0 arch/mips/cpu/octeon/cvmx/libcvmx.o
 .text.cvmx_helper_configure_loopback
                0x0000000000000000        0x0 arch/mips/cpu/octeon/cvmx/libcvmx.o
 .text.cvmx_sfp_attach_phy
                0x0000000000000000        0x0 arch/mips/cpu/octeon/cvmx/libcvmx.o
 .text.cvmx_sfp_set_ipd_port
                0x0000000000000000        0x0 arch/mips/cpu/octeon/cvmx/libcvmx.o
 .text.cvmx_fdt_node_offset_by_compatible_list
                0x0000000000000000        0x0 arch/mips/cpu/octeon/cvmx/libcvmx.o
 .text.cvmx_fdt_get_twsi_gpio_bus_addr
                0x0000000000000000        0x0 arch/mips/cpu/octeon/cvmx/libcvmx.o
 .text.cvmx_helper_initialize_fpa
                0x0000000000000000        0x0 arch/mips/cpu/octeon/cvmx/libcvmx.o
 .text.cvmx_helper_fpa3_dump
                0x0000000000000000        0x0 arch/mips/cpu/octeon/cvmx/libcvmx.o
 .text.cvmx_helper_fpa1_dump
                0x0000000000000000        0x0 arch/mips/cpu/octeon/cvmx/libcvmx.o
 .text.cvmx_helper_fpa_dump
                0x0000000000000000        0x0 arch/mips/cpu/octeon/cvmx/libcvmx.o
 .text.cvmx_safe_printf
                0x0000000000000000        0x0 arch/mips/cpu/octeon/cvmx/libcvmx.o
 .text.__cvmx_interrupt_dump_registers
                0x0000000000000000        0x0 arch/mips/cpu/octeon/cvmx/libcvmx.o
 .text.__cvmx_interrupt_default_exception_handler
                0x0000000000000000        0x0 arch/mips/cpu/octeon/cvmx/libcvmx.o
 .text.cvmx_l2c_vrt_disable
                0x0000000000000000        0x0 arch/mips/cpu/octeon/cvmx/libcvmx.o
 .text.cvmx_l2c_vrt_get_max_virtids
                0x0000000000000000        0x0 arch/mips/cpu/octeon/cvmx/libcvmx.o
 .text.cvmx_l2c_get_cache_size_bytes
                0x0000000000000000        0x0 arch/mips/cpu/octeon/cvmx/libcvmx.o
 .text.__cvmx_l2c_vrt_get_granularity
                0x0000000000000000        0x0 arch/mips/cpu/octeon/cvmx/libcvmx.o
 .text.cvmx_l2c_tqdl2d_to_index_7xxx
                0x0000000000000000        0x0 arch/mips/cpu/octeon/cvmx/libcvmx.o
 .text.cvmx_l2c_ttgx_to_index_7xxx
                0x0000000000000000        0x0 arch/mips/cpu/octeon/cvmx/libcvmx.o
 .text.cvmx_l2c_config_perf
                0x0000000000000000        0x0 arch/mips/cpu/octeon/cvmx/libcvmx.o
 .text.cvmx_l2c_read_perf
                0x0000000000000000        0x0 arch/mips/cpu/octeon/cvmx/libcvmx.o
 .text.cvmx_l2c_get_tag
                0x0000000000000000        0x0 arch/mips/cpu/octeon/cvmx/libcvmx.o
 .text.cvmx_l2c_vrt_set_max_virtids
                0x0000000000000000        0x0 arch/mips/cpu/octeon/cvmx/libcvmx.o
 .text.cvmx_l2c_vrt_set_max_memsz
                0x0000000000000000        0x0 arch/mips/cpu/octeon/cvmx/libcvmx.o
 .text.cvmx_l2c_vrt_memprotect
                0x0000000000000000        0x0 arch/mips/cpu/octeon/cvmx/libcvmx.o
 .text.cvmx_l2c_vrt_enable
                0x0000000000000000        0x0 arch/mips/cpu/octeon/cvmx/libcvmx.o
 .text.cvmx_l2c_get_hw_way_partition
                0x0000000000000000        0x0 arch/mips/cpu/octeon/cvmx/libcvmx.o
 .text.cvmx_l2c_set_hw_way_partition2
                0x0000000000000000        0x0 arch/mips/cpu/octeon/cvmx/libcvmx.o
 .text.cvmx_l2c_get_hw_way_partition2
                0x0000000000000000        0x0 arch/mips/cpu/octeon/cvmx/libcvmx.o
 .text.cvmx_l2c_vrt_assign_virtid
                0x0000000000000000        0x0 arch/mips/cpu/octeon/cvmx/libcvmx.o
 .text.cvmx_l2c_vrt_remove_virtid
                0x0000000000000000        0x0 arch/mips/cpu/octeon/cvmx/libcvmx.o
 .text.cvmx_pcie_get_io_base_address
                0x0000000000000000        0x0 arch/mips/cpu/octeon/cvmx/libcvmx.o
 .text.cvmx_pcie_get_io_size
                0x0000000000000000        0x0 arch/mips/cpu/octeon/cvmx/libcvmx.o
 .text.cvmx_pcie_get_mem_size
                0x0000000000000000        0x0 arch/mips/cpu/octeon/cvmx/libcvmx.o
 .text.cvmx_pcie_is_host_mode
                0x0000000000000000        0x0 arch/mips/cpu/octeon/cvmx/libcvmx.o
 .text.cvmx_pcie_wait_for_pending
                0x0000000000000000        0x0 arch/mips/cpu/octeon/cvmx/libcvmx.o
 .text.cvmx_pcie_ep_initialize
                0x0000000000000000        0x0 arch/mips/cpu/octeon/cvmx/libcvmx.o
 .text.cvmx_pcie_rc_shutdown
                0x0000000000000000        0x0 arch/mips/cpu/octeon/cvmx/libcvmx.o
 .text.cvmx_power_throttle_csr_op
                0x0000000000000000        0x0 arch/mips/cpu/octeon/cvmx/libcvmx.o
 .text.cvmx_power_throttle_show
                0x0000000000000000        0x0 arch/mips/cpu/octeon/cvmx/libcvmx.o
 .text.cvmx_power_throttle_init
                0x0000000000000000        0x0 arch/mips/cpu/octeon/cvmx/libcvmx.o
 .text.cvmx_power_throttle_get_powlim
                0x0000000000000000        0x0 arch/mips/cpu/octeon/cvmx/libcvmx.o
 .text.cvmx_power_throttle_set_powlim
                0x0000000000000000        0x0 arch/mips/cpu/octeon/cvmx/libcvmx.o
 .text.cvmx_power_throttle_self
                0x0000000000000000        0x0 arch/mips/cpu/octeon/cvmx/libcvmx.o
 .text.cvmx_power_throttle
                0x0000000000000000        0x0 arch/mips/cpu/octeon/cvmx/libcvmx.o
 .text.cvmx_update_perfcnt_irq
                0x0000000000000000        0x0 arch/mips/cpu/octeon/cvmx/libcvmx.o
 .text.cvmx_get_memory_addr
                0x0000000000000000        0x0 arch/mips/cpu/octeon/cvmx/libcvmx.o
 .text.cvmx_read_config_blk
                0x0000000000000000        0x0 arch/mips/cpu/octeon/cvmx/libcvmx.o
 .text.cvmx_init_pcpu_block
                0x0000000000000000        0x0 arch/mips/cpu/octeon/cvmx/libcvmx.o
 .text.cvmx_collect_sample
                0x0000000000000000        0x0 arch/mips/cpu/octeon/cvmx/libcvmx.o
 .text.cvmx_range_alloc_non_contiguos
                0x0000000000000000        0x0 arch/mips/cpu/octeon/cvmx/libcvmx.o
 .text.cvmx_range_get_owner
                0x0000000000000000        0x0 arch/mips/cpu/octeon/cvmx/libcvmx.o
 .text.cvmx_range_show
                0x0000000000000000        0x0 arch/mips/cpu/octeon/cvmx/libcvmx.o
 .text.cvmx_sysinfo_remove_self_from_core_mask
                0x0000000000000000        0x0 arch/mips/cpu/octeon/cvmx/libcvmx.o
 .text.cvmx_sysinfo_add_self_to_core_mask
                0x0000000000000000        0x0 arch/mips/cpu/octeon/cvmx/libcvmx.o
 .text.cvmx_twsix_read_llc_reg
                0x0000000000000000        0x0 arch/mips/cpu/octeon/cvmx/libcvmx.o
 .text.cvmx_twsix_wait
                0x0000000000000000        0x0 arch/mips/cpu/octeon/cvmx/libcvmx.o
 .text.cvmx_twsix_write_llc_reg
                0x0000000000000000        0x0 arch/mips/cpu/octeon/cvmx/libcvmx.o
 .text.cvmx_twsix_stop
                0x0000000000000000        0x0 arch/mips/cpu/octeon/cvmx/libcvmx.o
 .text.cvmx_twsix_start
                0x0000000000000000        0x0 arch/mips/cpu/octeon/cvmx/libcvmx.o
 .text.cvmx_twsix_write_seg
                0x0000000000000000        0x0 arch/mips/cpu/octeon/cvmx/libcvmx.o
 .text.cvmx_twsix_write_ia_llc
                0x0000000000000000        0x0 arch/mips/cpu/octeon/cvmx/libcvmx.o
 .text.cvmx_twsix_read_ia_llc
                0x0000000000000000        0x0 arch/mips/cpu/octeon/cvmx/libcvmx.o
 .text.cvmx_twsix_write
                0x0000000000000000        0x0 arch/mips/cpu/octeon/cvmx/libcvmx.o
 .text.octeon_map_set_bit
                0x0000000000000000        0x0 arch/mips/cpu/octeon/cvmx/libcvmx.o
 .text.octeon_has_attr
                0x0000000000000000        0x0 arch/mips/cpu/octeon/cvmx/libcvmx.o
 .text.octeon_clear_attr
                0x0000000000000000        0x0 arch/mips/cpu/octeon/cvmx/libcvmx.o
 .text.octeon_set_attr
                0x0000000000000000        0x0 arch/mips/cpu/octeon/cvmx/libcvmx.o
 .text.octeon_feature_init
                0x0000000000000000        0x0 arch/mips/cpu/octeon/cvmx/libcvmx.o
 .text.octeon_attr_init
                0x0000000000000000        0x0 arch/mips/cpu/octeon/cvmx/libcvmx.o
 .text.octeon_model_get_string
                0x0000000000000000        0x0 arch/mips/cpu/octeon/cvmx/libcvmx.o
 .text.cvmx_qlm_measure_clock_node
                0x0000000000000000        0x0 arch/mips/cpu/octeon/cvmx/libcvmx.o
 .text.__cvmx_qlm_pcie_cfg_rxd_set_tweak
                0x0000000000000000        0x0 arch/mips/cpu/octeon/cvmx/libcvmx.o
 .text.cvmx_qlm_display_registers
                0x0000000000000000        0x0 arch/mips/cpu/octeon/cvmx/libcvmx.o
 .text.cvmx_fau_show
                0x0000000000000000        0x0 arch/mips/cpu/octeon/cvmx/libcvmx.o
 .text.cvmx_fau_alloc
                0x0000000000000000        0x0 arch/mips/cpu/octeon/cvmx/libcvmx.o
 .text.cvmx_fau64_alloc
                0x0000000000000000        0x0 arch/mips/cpu/octeon/cvmx/libcvmx.o
 .text.cvmx_fau32_alloc
                0x0000000000000000        0x0 arch/mips/cpu/octeon/cvmx/libcvmx.o
 .text.cvmx_fau16_alloc
                0x0000000000000000        0x0 arch/mips/cpu/octeon/cvmx/libcvmx.o
 .text.cvmx_fau8_alloc
                0x0000000000000000        0x0 arch/mips/cpu/octeon/cvmx/libcvmx.o
 .text.cvmx_fau_free
                0x0000000000000000        0x0 arch/mips/cpu/octeon/cvmx/libcvmx.o
 .text.cvmx_helper_set_autonegotiation
                0x0000000000000000        0x0 arch/mips/cpu/octeon/cvmx/libcvmx.o
 .text.cvmx_helper_bgx_disable
                0x0000000000000000        0x0 arch/mips/cpu/octeon/cvmx/libcvmx.o
 .text.cvmx_helper_set_fec
                0x0000000000000000        0x0 arch/mips/cpu/octeon/cvmx/libcvmx.o
 .text.cvmx_helper_bgx_set_jabber
                0x0000000000000000        0x0 arch/mips/cpu/octeon/cvmx/libcvmx.o
 .text.cvmx_helper_bgx_rx_pause_ctl
                0x0000000000000000        0x0 arch/mips/cpu/octeon/cvmx/libcvmx.o
 .text.cvmx_rx_activity_led
                0x0000000000000000        0x0 arch/mips/cpu/octeon/cvmx/libcvmx.o
 .text.__cvmx_helper_board_usb_get_num_ports
                0x0000000000000000        0x0 arch/mips/cpu/octeon/cvmx/libcvmx.o
 .text.__cvmx_helper_board_usb_get_clock_type
                0x0000000000000000        0x0 arch/mips/cpu/octeon/cvmx/libcvmx.o
 .text.__cvmx_helper_board_interface_probe_weak
                0x0000000000000000        0x0 arch/mips/cpu/octeon/cvmx/libcvmx.o
 .text.__cvmx_helper_board_get_phy_host_mode_from_dt
                0x0000000000000000        0x0 arch/mips/cpu/octeon/cvmx/libcvmx.o
 .text.cvmx_helper_board_get_phy_host_mode
                0x0000000000000000        0x0 arch/mips/cpu/octeon/cvmx/libcvmx.o
 .text.cvmx_helper_board_get_mii_address_from_dt
                0x0000000000000000        0x0 arch/mips/cpu/octeon/cvmx/libcvmx.o
 .text.__cvmx_helper_get_los
                0x0000000000000000        0x0 arch/mips/cpu/octeon/cvmx/libcvmx.o
 .text.cvmx_helper_board_link_set_phy
                0x0000000000000000        0x0 arch/mips/cpu/octeon/cvmx/libcvmx.o
 .text.cvmx_helper_cfg_opt_set
                0x0000000000000000        0x0 arch/mips/cpu/octeon/cvmx/libcvmx.o
 .text.cvmx_helper_cfg_ipd2pko_port_num
                0x0000000000000000        0x0 arch/mips/cpu/octeon/cvmx/libcvmx.o
 .text.cvmx_helper_cfg_show_cfg
                0x0000000000000000        0x0 arch/mips/cpu/octeon/cvmx/libcvmx.o
 .text.cvmx_pko_queue_show
                0x0000000000000000        0x0 arch/mips/cpu/octeon/cvmx/libcvmx.o
 .text.cvmx_helper_set_port_fec
                0x0000000000000000        0x0 arch/mips/cpu/octeon/cvmx/libcvmx.o
 .text.cvmx_helper_cfg_get_sfp_fdt_offset
                0x0000000000000000        0x0 arch/mips/cpu/octeon/cvmx/libcvmx.o
 .text.cvmx_helper_cfg_set_sfp_fdt_offset
                0x0000000000000000        0x0 arch/mips/cpu/octeon/cvmx/libcvmx.o
 .text.cvmx_helper_cfg_store_short_packets_in_wqe
                0x0000000000000000        0x0 arch/mips/cpu/octeon/cvmx/libcvmx.o
 .text.__cvmx_helper_init_port_config_data_local
                0x0000000000000000        0x0 arch/mips/cpu/octeon/cvmx/libcvmx.o
 .text.cvmx_helper_cfg_set_jabber_and_frame_max
                0x0000000000000000        0x0 arch/mips/cpu/octeon/cvmx/libcvmx.o
 .text.cvmx_helper_fix_ipd_packet_chain
                0x0000000000000000        0x0 arch/mips/cpu/octeon/cvmx/libcvmx.o
 .text.__cvmx_ilk_write_tx_cal_entry_cn68xx
                0x0000000000000000        0x0 arch/mips/cpu/octeon/cvmx/libcvmx.o
 .text.__cvmx_ilk_write_tx_cal_entry_cn78xx
                0x0000000000000000        0x0 arch/mips/cpu/octeon/cvmx/libcvmx.o
 .text.__cvmx_ilk_write_rx_cal_entry_cn78xx
                0x0000000000000000        0x0 arch/mips/cpu/octeon/cvmx/libcvmx.o
 .text.__cvmx_ilk_write_rx_cal_entry_cn68xx
                0x0000000000000000        0x0 arch/mips/cpu/octeon/cvmx/libcvmx.o
 .text.__cvmx_helper_ilk_show_stats
                0x0000000000000000        0x0 arch/mips/cpu/octeon/cvmx/libcvmx.o
 .text.__cvmx_ilk_write_rx_cal_entry
                0x0000000000000000        0x0 arch/mips/cpu/octeon/cvmx/libcvmx.o
 .text.__cvmx_ilk_write_tx_cal_entry
                0x0000000000000000        0x0 arch/mips/cpu/octeon/cvmx/libcvmx.o
 .text.cvmx_helper_ipd_pkt_wqe_le_mode
                0x0000000000000000        0x0 arch/mips/cpu/octeon/cvmx/libcvmx.o
 .text.cvmx_helper_ipd_set_wqe_no_ptr_mode
                0x0000000000000000        0x0 arch/mips/cpu/octeon/cvmx/libcvmx.o
 .text.cvmx_npi_config_set_num_pipes
                0x0000000000000000        0x0 arch/mips/cpu/octeon/cvmx/libcvmx.o
 .text.cvmx_helper_pki_set_dflt_pool_buffer
                0x0000000000000000        0x0 arch/mips/cpu/octeon/cvmx/libcvmx.o
 .text.cvmx_helper_pki_set_dflt_aura_buffer
                0x0000000000000000        0x0 arch/mips/cpu/octeon/cvmx/libcvmx.o
 .text.cvmx_helper_pki_set_dflt_style
                0x0000000000000000        0x0 arch/mips/cpu/octeon/cvmx/libcvmx.o
 .text.cvmx_helper_pki_get_dflt_style
                0x0000000000000000        0x0 arch/mips/cpu/octeon/cvmx/libcvmx.o
 .text.cvmx_helper_pki_set_dflt_qpg
                0x0000000000000000        0x0 arch/mips/cpu/octeon/cvmx/libcvmx.o
 .text.cvmx_helper_pki_get_dflt_qpg
                0x0000000000000000        0x0 arch/mips/cpu/octeon/cvmx/libcvmx.o
 .text.cvmx_helper_pki_set_dflt_pkind_map
                0x0000000000000000        0x0 arch/mips/cpu/octeon/cvmx/libcvmx.o
 .text.cvmx_helper_pki_no_dflt_init
                0x0000000000000000        0x0 arch/mips/cpu/octeon/cvmx/libcvmx.o
 .text.cvmx_helper_pki_set_dflt_bp_en
                0x0000000000000000        0x0 arch/mips/cpu/octeon/cvmx/libcvmx.o
 .text.cvmx_helper_pki_port_shutdown
                0x0000000000000000        0x0 arch/mips/cpu/octeon/cvmx/libcvmx.o
 .text.cvmx_pki_add_entry
                0x0000000000000000        0x0 arch/mips/cpu/octeon/cvmx/libcvmx.o
 .text.cvmx_pki_find_entry
                0x0000000000000000        0x0 arch/mips/cpu/octeon/cvmx/libcvmx.o
 .text.cvmx_helper_pki_get_num_qpg_entry
                0x0000000000000000        0x0 arch/mips/cpu/octeon/cvmx/libcvmx.o
 .text.cvmx_pki_clone_style
                0x0000000000000000        0x0 arch/mips/cpu/octeon/cvmx/libcvmx.o
 .text.cvmx_helper_pki_route_dmac
                0x0000000000000000        0x0 arch/mips/cpu/octeon/cvmx/libcvmx.o
 .text.cvmx_helper_pki_set_little_endian
                0x0000000000000000        0x0 arch/mips/cpu/octeon/cvmx/libcvmx.o
 .text.cvmx_helper_pki_errata
                0x0000000000000000        0x0 arch/mips/cpu/octeon/cvmx/libcvmx.o
 .text.__cvmx_helper_pki_set_intf_qpg
                0x0000000000000000        0x0 arch/mips/cpu/octeon/cvmx/libcvmx.o
 .text.cvmx_helper_pki_route_prt_dmac
                0x0000000000000000        0x0 arch/mips/cpu/octeon/cvmx/libcvmx.o
 .text.cvmx_helper_pki_set_gbl_schd
                0x0000000000000000        0x0 arch/mips/cpu/octeon/cvmx/libcvmx.o
 .text.__cvmx_helper_pki_intf_rsrcs
                0x0000000000000000        0x0 arch/mips/cpu/octeon/cvmx/libcvmx.o
 .text.__cvmx_helper_pki_port_rsrcs
                0x0000000000000000        0x0 arch/mips/cpu/octeon/cvmx/libcvmx.o
 .text.__cvmx_helper_pki_qos_rsrcs
                0x0000000000000000        0x0 arch/mips/cpu/octeon/cvmx/libcvmx.o
 .text.cvmx_helper_pki_init_port
                0x0000000000000000        0x0 arch/mips/cpu/octeon/cvmx/libcvmx.o
 .text.__cvmx_helper_pki_port_shift
                0x0000000000000000        0x0 arch/mips/cpu/octeon/cvmx/libcvmx.o
 .text.cvmx_helper_pki_init_interface
                0x0000000000000000        0x0 arch/mips/cpu/octeon/cvmx/libcvmx.o
 .text.cvmx_helper_setup_aura_qos
                0x0000000000000000        0x0 arch/mips/cpu/octeon/cvmx/libcvmx.o
 .text.__cvmx_helper_pki_setup_sso_groups
                0x0000000000000000        0x0 arch/mips/cpu/octeon/cvmx/libcvmx.o
 .text.cvmx_helper_pki_show_port_config
                0x0000000000000000        0x0 arch/mips/cpu/octeon/cvmx/libcvmx.o
 .text.cvmx_pki_set_max_frm_len
                0x0000000000000000        0x0 arch/mips/cpu/octeon/cvmx/libcvmx.o
 .text.cvmx_helper_pki_modify_prtgrp
                0x0000000000000000        0x0 arch/mips/cpu/octeon/cvmx/libcvmx.o
 .text.cvmx_helper_pki_set_wqe_mode
                0x0000000000000000        0x0 arch/mips/cpu/octeon/cvmx/libcvmx.o
 .text.cvmx_helper_pki_map_aura_chl_bpid
                0x0000000000000000        0x0 arch/mips/cpu/octeon/cvmx/libcvmx.o
 .text.cvmx_pki_dump_wqe
                0x0000000000000000        0x0 arch/mips/cpu/octeon/cvmx/libcvmx.o
 .text.cvmx_pko_set_cmd_queue_pool_buffer_count
                0x0000000000000000        0x0 arch/mips/cpu/octeon/cvmx/libcvmx.o
 .text.cvmx_pko_get_cmd_que_pool_config
                0x0000000000000000        0x0 arch/mips/cpu/octeon/cvmx/libcvmx.o
 .text.cvmx_fpa_get_pko_pool_buffer_count
                0x0000000000000000        0x0 arch/mips/cpu/octeon/cvmx/libcvmx.o
 .text.cvmx_phy_get_sfp_mod_info
                0x0000000000000000        0x0 arch/mips/cpu/octeon/cvmx/libcvmx.o
 .text.cvmx_sfp_register_rx_los_changed
                0x0000000000000000        0x0 arch/mips/cpu/octeon/cvmx/libcvmx.o
 .text.cvmx_sfp_find_slot_by_port
                0x0000000000000000        0x0 arch/mips/cpu/octeon/cvmx/libcvmx.o
 .text.cvmx_sfp_find_slot_by_fdt_node
                0x0000000000000000        0x0 arch/mips/cpu/octeon/cvmx/libcvmx.o
 .text.cvm_sfp_alloc
                0x0000000000000000        0x0 arch/mips/cpu/octeon/cvmx/libcvmx.o
 .text.cvmx_sfp_parse_device_tree
                0x0000000000000000        0x0 arch/mips/cpu/octeon/cvmx/libcvmx.o
 .text.cvmx_spi_config_set_timeout
                0x0000000000000000        0x0 arch/mips/cpu/octeon/cvmx/libcvmx.o
 .text.cvmx_helper_get_version
                0x0000000000000000        0x0 arch/mips/cpu/octeon/cvmx/libcvmx.o
 .text.cvmx_print_buffer_u8
                0x0000000000000000        0x0 arch/mips/cpu/octeon/cvmx/libcvmx.o
 .text.cvmx_helper_show_stats
                0x0000000000000000        0x0 arch/mips/cpu/octeon/cvmx/libcvmx.o
 .text.cvmx_helper_setup_legacy_red
                0x0000000000000000        0x0 arch/mips/cpu/octeon/cvmx/libcvmx.o
 .text.cvmx_helper_setup_red
                0x0000000000000000        0x0 arch/mips/cpu/octeon/cvmx/libcvmx.o
 .text.cvmx_helper_dump_packet
                0x0000000000000000        0x0 arch/mips/cpu/octeon/cvmx/libcvmx.o
 .text.cvmx_helper_xaui_link_reinit
                0x0000000000000000        0x0 arch/mips/cpu/octeon/cvmx/libcvmx.o
 .text.cvmx_helper_xaui_link_retrain
                0x0000000000000000        0x0 arch/mips/cpu/octeon/cvmx/libcvmx.o
 .text.cvmx_ilk_tx_cal_ena
                0x0000000000000000        0x0 arch/mips/cpu/octeon/cvmx/libcvmx.o
 .text.cvmx_ilk_rx_set_hwm
                0x0000000000000000        0x0 arch/mips/cpu/octeon/cvmx/libcvmx.o
 .text.cvmx_ilk_la_mode_enable_rx_calendar
                0x0000000000000000        0x0 arch/mips/cpu/octeon/cvmx/libcvmx.o
 .text.cvmx_ilk_rx_cal_ena
                0x0000000000000000        0x0 arch/mips/cpu/octeon/cvmx/libcvmx.o
 .text.cvmx_ilk_tx_cal_conf
                0x0000000000000000        0x0 arch/mips/cpu/octeon/cvmx/libcvmx.o
 .text.cvmx_ilk_rx_cal_conf
                0x0000000000000000        0x0 arch/mips/cpu/octeon/cvmx/libcvmx.o
 .text.cvmx_ilk_tx_set_channel
                0x0000000000000000        0x0 arch/mips/cpu/octeon/cvmx/libcvmx.o
 .text.cvmx_ilk_lpbk
                0x0000000000000000        0x0 arch/mips/cpu/octeon/cvmx/libcvmx.o
 .text.cvmx_ilk_set_pipe
                0x0000000000000000        0x0 arch/mips/cpu/octeon/cvmx/libcvmx.o
 .text.cvmx_ilk_rx_set_pknd
                0x0000000000000000        0x0 arch/mips/cpu/octeon/cvmx/libcvmx.o
 .text.cvmx_ilk_enable_la_header
                0x0000000000000000        0x0 arch/mips/cpu/octeon/cvmx/libcvmx.o
 .text.cvmx_ilk_cal_setup_rx
                0x0000000000000000        0x0 arch/mips/cpu/octeon/cvmx/libcvmx.o
 .text.cvmx_ilk_cal_setup_tx
                0x0000000000000000        0x0 arch/mips/cpu/octeon/cvmx/libcvmx.o
 .text.cvmx_ilk_disable
                0x0000000000000000        0x0 arch/mips/cpu/octeon/cvmx/libcvmx.o
 .text.cvmx_ilk_show_stats
                0x0000000000000000        0x0 arch/mips/cpu/octeon/cvmx/libcvmx.o
 .text.cvmx_ipd_get_config
                0x0000000000000000        0x0 arch/mips/cpu/octeon/cvmx/libcvmx.o
 .text.cvmx_ipd_set_packet_pool_buffer_count
                0x0000000000000000        0x0 arch/mips/cpu/octeon/cvmx/libcvmx.o
 .text.cvmx_ipd_set_wqe_pool_buffer_count
                0x0000000000000000        0x0 arch/mips/cpu/octeon/cvmx/libcvmx.o
 .text.cvmx_ipd_set_wqe_pool_config
                0x0000000000000000        0x0 arch/mips/cpu/octeon/cvmx/libcvmx.o
 .text.cvmx_ipd_setup_red_queue
                0x0000000000000000        0x0 arch/mips/cpu/octeon/cvmx/libcvmx.o
 .text.cvmx_ipd_set_packet_pool_config
                0x0000000000000000        0x0 arch/mips/cpu/octeon/cvmx/libcvmx.o
 .text.cvmx_ipd_setup_red
                0x0000000000000000        0x0 arch/mips/cpu/octeon/cvmx/libcvmx.o
 .text.cvmx_ixf18201_write16
                0x0000000000000000        0x0 arch/mips/cpu/octeon/cvmx/libcvmx.o
 .text.cvmx_ixf18201_write32
                0x0000000000000000        0x0 arch/mips/cpu/octeon/cvmx/libcvmx.o
 .text.cvmx_ixf18201_read16
                0x0000000000000000        0x0 arch/mips/cpu/octeon/cvmx/libcvmx.o
 .text.cvmx_ixf18201_read32
                0x0000000000000000        0x0 arch/mips/cpu/octeon/cvmx/libcvmx.o
 .text.cvmx_ixf18201_mii_read
                0x0000000000000000        0x0 arch/mips/cpu/octeon/cvmx/libcvmx.o
 .text.cvmx_ixf18201_mii_write
                0x0000000000000000        0x0 arch/mips/cpu/octeon/cvmx/libcvmx.o
 .text.cvmx_ixf18201_init
                0x0000000000000000        0x0 arch/mips/cpu/octeon/cvmx/libcvmx.o
 .text.cvmx_pki_write_channel_bpid
                0x0000000000000000        0x0 arch/mips/cpu/octeon/cvmx/libcvmx.o
 .text.cvmx_pki_set_wqe_mode
                0x0000000000000000        0x0 arch/mips/cpu/octeon/cvmx/libcvmx.o
 .text.cvmx_pki_set_little_endian
                0x0000000000000000        0x0 arch/mips/cpu/octeon/cvmx/libcvmx.o
 .text.cvmx_pki_show_qpg_entries
                0x0000000000000000        0x0 arch/mips/cpu/octeon/cvmx/libcvmx.o
 .text.cvmx_pki_show_pkind_attributes
                0x0000000000000000        0x0 arch/mips/cpu/octeon/cvmx/libcvmx.o
 .text.cvmx_pki_get_stats
                0x0000000000000000        0x0 arch/mips/cpu/octeon/cvmx/libcvmx.o
 .text.cvmx_pki_clear_port_stats
                0x0000000000000000        0x0 arch/mips/cpu/octeon/cvmx/libcvmx.o
 .text.cvmx_pki_dis_frame_len_chk
                0x0000000000000000        0x0 arch/mips/cpu/octeon/cvmx/libcvmx.o
 .text.cvmx_pki_show_pcam_entries
                0x0000000000000000        0x0 arch/mips/cpu/octeon/cvmx/libcvmx.o
 .text.cvmx_pki_show_valid_pcam_entries
                0x0000000000000000        0x0 arch/mips/cpu/octeon/cvmx/libcvmx.o
 .text.cvmx_pki_enable_aura_qos
                0x0000000000000000        0x0 arch/mips/cpu/octeon/cvmx/libcvmx.o
 .text.cvmx_pki_write_aura_bpid
                0x0000000000000000        0x0 arch/mips/cpu/octeon/cvmx/libcvmx.o
 .text.cvmx_pki_mtag_idx_free
                0x0000000000000000        0x0 arch/mips/cpu/octeon/cvmx/libcvmx.o
 .text.cvmx_pki_cluster_grp_free
                0x0000000000000000        0x0 arch/mips/cpu/octeon/cvmx/libcvmx.o
 .text.cvmx_pki_bpid_alloc
                0x0000000000000000        0x0 arch/mips/cpu/octeon/cvmx/libcvmx.o
 .text.cvmx_pki_bpid_free
                0x0000000000000000        0x0 arch/mips/cpu/octeon/cvmx/libcvmx.o
 .text.cvmx_pki_cluster_alloc
                0x0000000000000000        0x0 arch/mips/cpu/octeon/cvmx/libcvmx.o
 .text.cvmx_pki_cluster_free
                0x0000000000000000        0x0 arch/mips/cpu/octeon/cvmx/libcvmx.o
 .text.cvmx_pki_pcam_entry_free
                0x0000000000000000        0x0 arch/mips/cpu/octeon/cvmx/libcvmx.o
 .text.cvmx_pko_get_num_pko_ports
                0x0000000000000000        0x0 arch/mips/cpu/octeon/cvmx/libcvmx.o
 .text.cvmx_pko_rate_limit_packets
                0x0000000000000000        0x0 arch/mips/cpu/octeon/cvmx/libcvmx.o
 .text.cvmx_pko_rate_limit_bits
                0x0000000000000000        0x0 arch/mips/cpu/octeon/cvmx/libcvmx.o
 .text.cvmx_pko_get_base_queue_pkoid
                0x0000000000000000        0x0 arch/mips/cpu/octeon/cvmx/libcvmx.o
 .text.cvmx_pko_get_num_queues_pkoid
                0x0000000000000000        0x0 arch/mips/cpu/octeon/cvmx/libcvmx.o
 .text.cvmx_pko_get_port_status
                0x0000000000000000        0x0 arch/mips/cpu/octeon/cvmx/libcvmx.o
 .text.cvmx_pko_show_queue_map
                0x0000000000000000        0x0 arch/mips/cpu/octeon/cvmx/libcvmx.o
 .text.cvmx_pko_internal_ports_range_show
                0x0000000000000000        0x0 arch/mips/cpu/octeon/cvmx/libcvmx.o
 .text.cvmx_pko_internal_ports_free
                0x0000000000000000        0x0 arch/mips/cpu/octeon/cvmx/libcvmx.o
 .text.cvmx_pko_internal_ports_range_free_all
                0x0000000000000000        0x0 arch/mips/cpu/octeon/cvmx/libcvmx.o
 .text.pko_dqstatus_error
                0x0000000000000000        0x0 arch/mips/cpu/octeon/cvmx/libcvmx.o
 .text.cvmx_pko3_pdesc_hdr_offsets
                0x0000000000000000        0x0 arch/mips/cpu/octeon/cvmx/libcvmx.o
 .text.memcpy_swap
                0x0000000000000000        0x0 arch/mips/cpu/octeon/cvmx/libcvmx.o
 .text.memcpy_from_swap
                0x0000000000000000        0x0 arch/mips/cpu/octeon/cvmx/libcvmx.o
 .text.cvmx_pko3_pdesc_set_free
                0x0000000000000000        0x0 arch/mips/cpu/octeon/cvmx/libcvmx.o
 .text.cvmx_pko3_pdesc_hdr_peek
                0x0000000000000000        0x0 arch/mips/cpu/octeon/cvmx/libcvmx.o
 .text.cvmx_pko3_pdesc_hdr_pop
                0x0000000000000000        0x0 arch/mips/cpu/octeon/cvmx/libcvmx.o
 .text.cvmx_pko3_pdesc_hdr_push
                0x0000000000000000        0x0 arch/mips/cpu/octeon/cvmx/libcvmx.o
 .text.cvmx_pko3_pdesc_notify_wqe
                0x0000000000000000        0x0 arch/mips/cpu/octeon/cvmx/libcvmx.o
 .text.cvmx_pko3_pdesc_subdc_add
                0x0000000000000000        0x0 arch/mips/cpu/octeon/cvmx/libcvmx.o
 .text.cvmx_pko3_pdesc_notify_memclr
                0x0000000000000000        0x0 arch/mips/cpu/octeon/cvmx/libcvmx.o
 .text.cvmx_pko3_pdesc_notify_decrement
                0x0000000000000000        0x0 arch/mips/cpu/octeon/cvmx/libcvmx.o
 .text.cvmx_pko3_pdesc_buf_append
                0x0000000000000000        0x0 arch/mips/cpu/octeon/cvmx/libcvmx.o
 .text.cvmx_pko3_pdesc_append_free
                0x0000000000000000        0x0 arch/mips/cpu/octeon/cvmx/libcvmx.o
 .text.cvmx_pko3_pdesc_transmit
                0x0000000000000000        0x0 arch/mips/cpu/octeon/cvmx/libcvmx.o
 .text.cvmx_pko3_pdesc_from_wqe
                0x0000000000000000        0x0 arch/mips/cpu/octeon/cvmx/libcvmx.o
 .text.cvmx_pko3_pdesc_init
                0x0000000000000000        0x0 arch/mips/cpu/octeon/cvmx/libcvmx.o
 .text.cvmx_pko3_get_legacy_port_stats
                0x0000000000000000        0x0 arch/mips/cpu/octeon/cvmx/libcvmx.o
 .text.cvmx_pko3_internal_buffer_count
                0x0000000000000000        0x0 arch/mips/cpu/octeon/cvmx/libcvmx.o
 .text.cvmx_pko3_port_xon
                0x0000000000000000        0x0 arch/mips/cpu/octeon/cvmx/libcvmx.o
 .text.cvmx_pko3_port_fifo_size
                0x0000000000000000        0x0 arch/mips/cpu/octeon/cvmx/libcvmx.o
 .text.cvmx_pko3_port_xoff
                0x0000000000000000        0x0 arch/mips/cpu/octeon/cvmx/libcvmx.o
 .text.cvmx_pko3_dq_red
                0x0000000000000000        0x0 arch/mips/cpu/octeon/cvmx/libcvmx.o
 .text.cvmx_pko3_shaper_rate_compute
                0x0000000000000000        0x0 arch/mips/cpu/octeon/cvmx/libcvmx.o
 .text.cvmx_pko3_port_cir_set
                0x0000000000000000        0x0 arch/mips/cpu/octeon/cvmx/libcvmx.o
 .text.cvmx_pko3_dq_pir_set
                0x0000000000000000        0x0 arch/mips/cpu/octeon/cvmx/libcvmx.o
 .text.cvmx_pko3_get_port_queue
                0x0000000000000000        0x0 arch/mips/cpu/octeon/cvmx/libcvmx.o
 .text.cvmx_pko3_dq_cir_set
                0x0000000000000000        0x0 arch/mips/cpu/octeon/cvmx/libcvmx.o
 .text.cvmx_spi_restart_interface
                0x0000000000000000        0x0 arch/mips/cpu/octeon/cvmx/libcvmx.o
 .text.cvmx_srio_omsg_desc
                0x0000000000000000        0x0 arch/mips/cpu/octeon/cvmx/libcvmx.o
 .text.__cvmx_srio_to_rst
                0x0000000000000000        0x0 arch/mips/cpu/octeon/cvmx/libcvmx.o
 .text.cvmx_srio_set_did
                0x0000000000000000        0x0 arch/mips/cpu/octeon/cvmx/libcvmx.o
 .text.cvmx_srio_initialize
                0x0000000000000000        0x0 arch/mips/cpu/octeon/cvmx/libcvmx.o
 .text.cvmx_srio_ipd2srio
                0x0000000000000000        0x0 arch/mips/cpu/octeon/cvmx/libcvmx.o
 .text.cvmx_srio_transmit_spf
                0x0000000000000000        0x0 arch/mips/cpu/octeon/cvmx/libcvmx.o
 .text.cvmx_srio_get_did
                0x0000000000000000        0x0 arch/mips/cpu/octeon/cvmx/libcvmx.o
 .text.cvmx_srio_send_doorbell_status
                0x0000000000000000        0x0 arch/mips/cpu/octeon/cvmx/libcvmx.o
 .text.cvmx_srio_receive_doorbell
                0x0000000000000000        0x0 arch/mips/cpu/octeon/cvmx/libcvmx.o
 .text.cvmx_srio_link_rst
                0x0000000000000000        0x0 arch/mips/cpu/octeon/cvmx/libcvmx.o
 .text.cvmx_srio_send_doorbell
                0x0000000000000000        0x0 arch/mips/cpu/octeon/cvmx/libcvmx.o
 .rodata.__cvmx_fpa3_cnt_offset
                0x0000000000000000        0x0 arch/mips/cpu/octeon/cvmx/libcvmx.o
 .rodata.magic_pattern
                0x0000000000000000        0x0 arch/mips/cpu/octeon/cvmx/libcvmx.o
 .rodata.guard_band_size
                0x0000000000000000        0x0 arch/mips/cpu/octeon/cvmx/libcvmx.o
 .rodata.__func__.142116
                0x0000000000000000        0x0 arch/mips/cpu/octeon/cvmx/libcvmx.o
 .rodata.__func__.141776
                0x0000000000000000        0x0 arch/mips/cpu/octeon/cvmx/libcvmx.o
 .rodata.debug  0x0000000000000000        0x0 arch/mips/cpu/octeon/cvmx/libcvmx.o
 .rodata.cause_names
                0x0000000000000000        0x0 arch/mips/cpu/octeon/cvmx/libcvmx.o
 .rodata.reg_names
                0x0000000000000000        0x0 arch/mips/cpu/octeon/cvmx/libcvmx.o
 .rodata.__func__.139724
                0x0000000000000000        0x0 arch/mips/cpu/octeon/cvmx/libcvmx.o
 .rodata.__func__.138759
                0x0000000000000000        0x0 arch/mips/cpu/octeon/cvmx/libcvmx.o
 .rodata.__func__.138547
                0x0000000000000000        0x0 arch/mips/cpu/octeon/cvmx/libcvmx.o
 .rodata.__func__.138541
                0x0000000000000000        0x0 arch/mips/cpu/octeon/cvmx/libcvmx.o
 .rodata.__cvmx_helper_board_interface_probe_weak
                0x0000000000000000        0x0 arch/mips/cpu/octeon/cvmx/libcvmx.o
 .rodata.cvmx_helper_cfg_set_jabber_and_frame_max
                0x0000000000000000        0x0 arch/mips/cpu/octeon/cvmx/libcvmx.o
 .rodata.__cvmx_ilk_write_tx_cal_entry_cn68xx
                0x0000000000000000        0x0 arch/mips/cpu/octeon/cvmx/libcvmx.o
 .rodata.__cvmx_ilk_write_rx_cal_entry_cn68xx
                0x0000000000000000        0x0 arch/mips/cpu/octeon/cvmx/libcvmx.o
 .rodata.cvmx_pki_dump_wqe
                0x0000000000000000        0x0 arch/mips/cpu/octeon/cvmx/libcvmx.o
 .rodata.__func__.144155
                0x0000000000000000        0x0 arch/mips/cpu/octeon/cvmx/libcvmx.o
 .rodata.__func__.143531
                0x0000000000000000        0x0 arch/mips/cpu/octeon/cvmx/libcvmx.o
 .rodata.__func__.143484
                0x0000000000000000        0x0 arch/mips/cpu/octeon/cvmx/libcvmx.o
 .rodata.__func__.143423
                0x0000000000000000        0x0 arch/mips/cpu/octeon/cvmx/libcvmx.o
 .rodata.__func__.143383
                0x0000000000000000        0x0 arch/mips/cpu/octeon/cvmx/libcvmx.o
 .rodata.__func__.143345
                0x0000000000000000        0x0 arch/mips/cpu/octeon/cvmx/libcvmx.o
 .rodata.__FUNCTION__.142481
                0x0000000000000000        0x0 arch/mips/cpu/octeon/cvmx/libcvmx.o
 .rodata.__FUNCTION__.142440
                0x0000000000000000        0x0 arch/mips/cpu/octeon/cvmx/libcvmx.o
 .rodata.__func__.141481
                0x0000000000000000        0x0 arch/mips/cpu/octeon/cvmx/libcvmx.o
 .rodata.__func__.141420
                0x0000000000000000        0x0 arch/mips/cpu/octeon/cvmx/libcvmx.o
 .rodata.__func__.141449
                0x0000000000000000        0x0 arch/mips/cpu/octeon/cvmx/libcvmx.o
 .rodata.__func__.145935
                0x0000000000000000        0x0 arch/mips/cpu/octeon/cvmx/libcvmx.o
 .rodata.cvmx_pki_cluster_code_length
                0x0000000000000000        0x0 arch/mips/cpu/octeon/cvmx/libcvmx.o
 .rodata.__func__.141801
                0x0000000000000000        0x0 arch/mips/cpu/octeon/cvmx/libcvmx.o
 .rodata.__func__.141743
                0x0000000000000000        0x0 arch/mips/cpu/octeon/cvmx/libcvmx.o
 .rodata.__FUNCTION__.143848
                0x0000000000000000        0x0 arch/mips/cpu/octeon/cvmx/libcvmx.o
 .rodata.pko_dqstatus_error
                0x0000000000000000        0x0 arch/mips/cpu/octeon/cvmx/libcvmx.o
 .rodata.cvmx_pko3_port_fifo_size
                0x0000000000000000        0x0 arch/mips/cpu/octeon/cvmx/libcvmx.o
 .rodata.__func__.144667
                0x0000000000000000        0x0 arch/mips/cpu/octeon/cvmx/libcvmx.o
 .rodata.__func__.144823
                0x0000000000000000        0x0 arch/mips/cpu/octeon/cvmx/libcvmx.o
 .rodata.__func__.144781
                0x0000000000000000        0x0 arch/mips/cpu/octeon/cvmx/libcvmx.o
 .rodata.__func__.140470
                0x0000000000000000        0x0 arch/mips/cpu/octeon/cvmx/libcvmx.o
 .rodata.__FUNCTION__.142729
                0x0000000000000000        0x0 arch/mips/cpu/octeon/cvmx/libcvmx.o
 .rodata.__func__.144594
                0x0000000000000000        0x0 arch/mips/cpu/octeon/cvmx/libcvmx.o
 .rodata.__func__.144489
                0x0000000000000000        0x0 arch/mips/cpu/octeon/cvmx/libcvmx.o
 .data          0x0000000000000000        0x0 arch/mips/cpu/octeon/cvmx/libcvmx.o
 .data.read_percpu_block
                0x0000000000000000        0x0 arch/mips/cpu/octeon/cvmx/libcvmx.o
 .data.pcam_dmach
                0x0000000000000000        0x0 arch/mips/cpu/octeon/cvmx/libcvmx.o
 .data.pcam_dmacl
                0x0000000000000000        0x0 arch/mips/cpu/octeon/cvmx/libcvmx.o
 .data.aura.142830
                0x0000000000000000        0x0 arch/mips/cpu/octeon/cvmx/libcvmx.o
 .data.rel.ro.local.modes
                0x0000000000000000        0x0 arch/mips/cpu/octeon/cvmx/libcvmx.o
 .bss           0x0000000000000000        0x0 arch/mips/cpu/octeon/cvmx/libcvmx.o
 .bss.hardware_coremask.138825
                0x0000000000000000        0x0 arch/mips/cpu/octeon/cvmx/libcvmx.o
 .bss.avail_coremask.138813
                0x0000000000000000        0x0 arch/mips/cpu/octeon/cvmx/libcvmx.o
 .bss.cvmx_interrupt_in_isr
                0x0000000000000000        0x0 arch/mips/cpu/octeon/cvmx/libcvmx.o
 .bss.eccb      0x0000000000000000        0x0 arch/mips/cpu/octeon/cvmx/libcvmx.o
 .bss.linux_mem32_min
                0x0000000000000000        0x0 arch/mips/cpu/octeon/cvmx/libcvmx.o
 .bss.linux_mem32_max
                0x0000000000000000        0x0 arch/mips/cpu/octeon/cvmx/libcvmx.o
 .bss.linux_mem32_wired
                0x0000000000000000        0x0 arch/mips/cpu/octeon/cvmx/libcvmx.o
 .bss.linux_mem32_offset
                0x0000000000000000        0x0 arch/mips/cpu/octeon/cvmx/libcvmx.o
 .bss.reset_method.138980
                0x0000000000000000        0x0 arch/mips/cpu/octeon/cvmx/libcvmx.o
 .bss.buffer.141151
                0x0000000000000000        0x0 arch/mips/cpu/octeon/cvmx/libcvmx.o
 .bss.cvmx_import_app_config
                0x0000000000000000        0x0 arch/mips/cpu/octeon/cvmx/libcvmx.o
 .bss.count.143824
                0x0000000000000000        0x0 arch/mips/cpu/octeon/cvmx/libcvmx.o
 .bss.warned.143382
                0x0000000000000000        0x0 arch/mips/cpu/octeon/cvmx/libcvmx.o
 .bss.parsed.141480
                0x0000000000000000        0x0 arch/mips/cpu/octeon/cvmx/libcvmx.o
 .bss.sfp_list  0x0000000000000000        0x0 arch/mips/cpu/octeon/cvmx/libcvmx.o
 .pdr           0x0000000000000000        0x0 arch/mips/cpu/octeon/cvmx/libcvmx.o
 .reginfo       0x0000000000000000        0x0 arch/mips/cpu/octeon/libocteon.o
 .text          0x0000000000000000        0x0 arch/mips/cpu/octeon/libocteon.o
 .text.write_one_tlb
                0x0000000000000000        0x0 arch/mips/cpu/octeon/libocteon.o
 .text.octeon_show_info
                0x0000000000000000        0x0 arch/mips/cpu/octeon/libocteon.o
 .text.octeon_led_str_write_std
                0x0000000000000000        0x0 arch/mips/cpu/octeon/libocteon.o
 .text.__octeon_is_boot_nor
                0x0000000000000000        0x0 arch/mips/cpu/octeon/libocteon.o
 .text.cvmx_csr_db_decode
                0x0000000000000000        0x0 arch/mips/cpu/octeon/libocteon.o
 .text.calculate_image_crc
                0x0000000000000000        0x0 arch/mips/cpu/octeon/libocteon.o
 .text.calculate_header_crc
                0x0000000000000000        0x0 arch/mips/cpu/octeon/libocteon.o
 .text.validate_bootloader_header
                0x0000000000000000        0x0 arch/mips/cpu/octeon/libocteon.o
 .text.octeon_check_mem_errors
                0x0000000000000000        0x0 arch/mips/cpu/octeon/libocteon.o
 .text.octeon_check_nor_flash_enabled
                0x0000000000000000        0x0 arch/mips/cpu/octeon/libocteon.o
 .text.set_flash_clock
                0x0000000000000000        0x0 arch/mips/cpu/octeon/libocteon.o
 .text.twsii_mcu_read_node
                0x0000000000000000        0x0 arch/mips/cpu/octeon/libocteon.o
 .text.twsii_mcu_read
                0x0000000000000000        0x0 arch/mips/cpu/octeon/libocteon.o
 .text.lookup_board_table_entry
                0x0000000000000000        0x0 arch/mips/cpu/octeon/libocteon.o
 .text.octeon_bist_6XXX_usb
                0x0000000000000000        0x0 arch/mips/cpu/octeon/libocteon.o
 .text.get_except_base_reg
                0x0000000000000000        0x0 arch/mips/cpu/octeon/libocteon.o
 .text.get_except_base_addr
                0x0000000000000000        0x0 arch/mips/cpu/octeon/libocteon.o
 .text.octeon_get_cop0_status
                0x0000000000000000        0x0 arch/mips/cpu/octeon/libocteon.o
 .text.cvmx_set_cycle
                0x0000000000000000        0x0 arch/mips/cpu/octeon/libocteon.o
 .text.octeon_check_mem_load_range
                0x0000000000000000        0x0 arch/mips/cpu/octeon/libocteon.o
 .text.octeon_translate_gd_to_linux_app_global_data
                0x0000000000000000        0x0 arch/mips/cpu/octeon/libocteon.o
 .text.octeon_delay_cycles
                0x0000000000000000        0x0 arch/mips/cpu/octeon/libocteon.o
 .text.reset_timer_masked
                0x0000000000000000        0x0 arch/mips/cpu/octeon/libocteon.o
 .text.reset_timer
                0x0000000000000000        0x0 arch/mips/cpu/octeon/libocteon.o
 .text.get_timer_masked
                0x0000000000000000        0x0 arch/mips/cpu/octeon/libocteon.o
 .text.set_timer
                0x0000000000000000        0x0 arch/mips/cpu/octeon/libocteon.o
 .text.udelay_masked
                0x0000000000000000        0x0 arch/mips/cpu/octeon/libocteon.o
 .text.__board_fixup_fdt
                0x0000000000000000        0x0 arch/mips/cpu/octeon/libocteon.o
 .text.octeon_fdt_get_soc_node
                0x0000000000000000        0x0 arch/mips/cpu/octeon/libocteon.o
 .text.octeon_fdt_get_phy_gpio_info
                0x0000000000000000        0x0 arch/mips/cpu/octeon/libocteon.o
 .text.octeon_fdt_get_gpio_info
                0x0000000000000000        0x0 arch/mips/cpu/octeon/libocteon.o
 .text.octeon_fdt_i2c_get_bus
                0x0000000000000000        0x0 arch/mips/cpu/octeon/libocteon.o
 .text.octeon_fdt_get_i2c_bus_addr
                0x0000000000000000        0x0 arch/mips/cpu/octeon/libocteon.o
 .text.octeon_fdt_set_gpio
                0x0000000000000000        0x0 arch/mips/cpu/octeon/libocteon.o
 .text.octeon_fdt_read_gpio
                0x0000000000000000        0x0 arch/mips/cpu/octeon/libocteon.o
 .text.octeon_fdt_find_phy
                0x0000000000000000        0x0 arch/mips/cpu/octeon/libocteon.o
 .text.octeon_pci_mem1_writeb
                0x0000000000000000        0x0 arch/mips/cpu/octeon/libocteon.o
 .text.octeon_pci_io_writeb
                0x0000000000000000        0x0 arch/mips/cpu/octeon/libocteon.o
 .text.octeon_pci_io_writew
                0x0000000000000000        0x0 arch/mips/cpu/octeon/libocteon.o
 .text.octeon_pci_io_writel
                0x0000000000000000        0x0 arch/mips/cpu/octeon/libocteon.o
 .text.octeon_pci_io_readb
                0x0000000000000000        0x0 arch/mips/cpu/octeon/libocteon.o
 .text.octeon_pci_io_readw
                0x0000000000000000        0x0 arch/mips/cpu/octeon/libocteon.o
 .text.octeon_pci_io_readl
                0x0000000000000000        0x0 arch/mips/cpu/octeon/libocteon.o
 .text.octeon_pci_mem1_writel
                0x0000000000000000        0x0 arch/mips/cpu/octeon/libocteon.o
 .text.octeon_pci_mem1_readw
                0x0000000000000000        0x0 arch/mips/cpu/octeon/libocteon.o
 .text.octeon_pci_mem1_writew
                0x0000000000000000        0x0 arch/mips/cpu/octeon/libocteon.o
 .text.octeon_pci_mem1_readb
                0x0000000000000000        0x0 arch/mips/cpu/octeon/libocteon.o
 .text.pci_print_dev
                0x0000000000000000        0x0 arch/mips/cpu/octeon/libocteon.o
 .text.octeon_pci_bus_to_phys
                0x0000000000000000        0x0 arch/mips/cpu/octeon/libocteon.o
 .text.pci_hose_bus_to_phys
                0x0000000000000000        0x0 arch/mips/cpu/octeon/libocteon.o
 .text.pci_hose_phys_to_bus
                0x0000000000000000        0x0 arch/mips/cpu/octeon/libocteon.o
 .text.octeon_pci_phys_to_bus
                0x0000000000000000        0x0 arch/mips/cpu/octeon/libocteon.o
 .text.break_core_start_app
                0x0000000000000000        0x0 arch/mips/cpu/octeon/libocteon.o
 .text.print_tlb_array
                0x0000000000000000        0x0 arch/mips/cpu/octeon/libocteon.o
 .text.print_boot_block
                0x0000000000000000        0x0 arch/mips/cpu/octeon/libocteon.o
 .text.print_oct_tlb_entry
                0x0000000000000000        0x0 arch/mips/cpu/octeon/libocteon.o
 .text.start_app_hotplug
                0x0000000000000000        0x0 arch/mips/cpu/octeon/libocteon.o
 .text.alloc_mem_list_entry
                0x0000000000000000        0x0 arch/mips/cpu/octeon/libocteon.o
 .text.setup_se_app_boot_info
                0x0000000000000000        0x0 arch/mips/cpu/octeon/libocteon.o
 .text.print_boot_array
                0x0000000000000000        0x0 arch/mips/cpu/octeon/libocteon.o
 .text.load_elf_additional_cores
                0x0000000000000000        0x0 arch/mips/cpu/octeon/libocteon.o
 .text.get_elf_accessors
                0x0000000000000000        0x0 arch/mips/cpu/octeon/libocteon.o
 .text.cmd_get_data_swap64
                0x0000000000000000        0x0 arch/mips/cpu/octeon/libocteon.o
 .text.octeon_fix_env_reloc
                0x0000000000000000        0x0 arch/mips/cpu/octeon/libocteon.o
 .text.sha1_self_test
                0x0000000000000000        0x0 arch/mips/cpu/octeon/libocteon.o
 .text.sha1_hmac
                0x0000000000000000        0x0 arch/mips/cpu/octeon/libocteon.o
 .text.sha1_csum
                0x0000000000000000        0x0 arch/mips/cpu/octeon/libocteon.o
 .text.sha256_starts
                0x0000000000000000        0x0 arch/mips/cpu/octeon/libocteon.o
 .text.sha256_update
                0x0000000000000000        0x0 arch/mips/cpu/octeon/libocteon.o
 .text.sha256_finish
                0x0000000000000000        0x0 arch/mips/cpu/octeon/libocteon.o
 .text.sha256_csum_wd
                0x0000000000000000        0x0 arch/mips/cpu/octeon/libocteon.o
 .text.octeon_qlm_dfe_disable
                0x0000000000000000        0x0 arch/mips/cpu/octeon/libocteon.o
 .text.octeon_qlm_dfe_disable_ctle_agc
                0x0000000000000000        0x0 arch/mips/cpu/octeon/libocteon.o
 .text.octeon_qlm_set_channel_v3
                0x0000000000000000        0x0 arch/mips/cpu/octeon/libocteon.o
 .rodata.dbi_pattern
                0x0000000000000000        0x0 arch/mips/cpu/octeon/libocteon.o
 .rodata.__func__.141831
                0x0000000000000000        0x0 arch/mips/cpu/octeon/libocteon.o
 .rodata.__func__.141799
                0x0000000000000000        0x0 arch/mips/cpu/octeon/libocteon.o
 .rodata.__func__.141764
                0x0000000000000000        0x0 arch/mips/cpu/octeon/libocteon.o
 .rodata.__func__.141745
                0x0000000000000000        0x0 arch/mips/cpu/octeon/libocteon.o
 .rodata.__func__.141725
                0x0000000000000000        0x0 arch/mips/cpu/octeon/libocteon.o
 .rodata.__func__.141646
                0x0000000000000000        0x0 arch/mips/cpu/octeon/libocteon.o
 .rodata.__func__.140688
                0x0000000000000000        0x0 arch/mips/cpu/octeon/libocteon.o
 .rodata.sha256_padding
                0x0000000000000000        0x0 arch/mips/cpu/octeon/libocteon.o
 .data          0x0000000000000000        0x0 arch/mips/cpu/octeon/libocteon.o
 .data.rel.local.octeon_gpio_list
                0x0000000000000000        0x0 arch/mips/cpu/octeon/libocteon.o
 .data.rel.local.pca953x_gpio_list
                0x0000000000000000        0x0 arch/mips/cpu/octeon/libocteon.o
 .data.pci_cfg_base
                0x0000000000000000        0x0 arch/mips/cpu/octeon/libocteon.o
 .data.pci_io_base
                0x0000000000000000        0x0 arch/mips/cpu/octeon/libocteon.o
 .bss           0x0000000000000000        0x0 arch/mips/cpu/octeon/libocteon.o
 .pdr           0x0000000000000000        0x0 arch/mips/cpu/octeon/libocteon.o
 .reginfo       0x0000000000000000        0x0 arch/mips/lib/libmips.o
 .text          0x0000000000000000        0x0 arch/mips/lib/libmips.o
 .text.__board_early_init_f
                0x0000000000000000        0x0 arch/mips/lib/libmips.o
 .text.early_board_init_r
                0x0000000000000000        0x0 arch/mips/lib/libmips.o
 .text.board_configure_qlms
                0x0000000000000000        0x0 arch/mips/lib/libmips.o
 .text.board_net_preinit
                0x0000000000000000        0x0 arch/mips/lib/libmips.o
 .text.board_net_postinit
                0x0000000000000000        0x0 arch/mips/lib/libmips.o
 .rodata.mips_io_port_base
                0x0000000000000000        0x0 arch/mips/lib/libmips.o
 .data          0x0000000000000000        0x0 arch/mips/lib/libmips.o
 .bss           0x0000000000000000        0x0 arch/mips/lib/libmips.o
 .pdr           0x0000000000000000        0x0 arch/mips/lib/libmips.o
 .reginfo       0x0000000000000000        0x0 board/juniper/common/libjuniper.o
 .text          0x0000000000000000        0x0 board/juniper/common/libjuniper.o
 .data          0x0000000000000000        0x0 board/juniper/common/libjuniper.o
 .bss           0x0000000000000000        0x0 board/juniper/common/libjuniper.o
 .pdr           0x0000000000000000        0x0 board/juniper/common/libjuniper.o
 .reginfo       0x0000000000000000        0x0 board/octeon/common/libocteon.o
 .text          0x0000000000000000        0x0 board/octeon/common/libocteon.o
 .text.checkboard
                0x0000000000000000        0x0 board/octeon/common/libocteon.o
 .text.octeon_get_num_fuses
                0x0000000000000000        0x0 board/octeon/common/libocteon.o
 .text.__octeon_board_get_descriptor
                0x0000000000000000        0x0 board/octeon/common/libocteon.o
 .text.__octeon_board_get_mac_addr
                0x0000000000000000        0x0 board/octeon/common/libocteon.o
 .text.__show_pal_info
                0x0000000000000000        0x0 board/octeon/common/libocteon.o
 .text.late_board_init
                0x0000000000000000        0x0 board/octeon/common/libocteon.o
 .text.octeon_led_str_write
                0x0000000000000000        0x0 board/octeon/common/libocteon.o
 .text.octeon_boot_bus_board_init
                0x0000000000000000        0x0 board/octeon/common/libocteon.o
 .text.octeon_boot_bus_get_fdt_bus_width
                0x0000000000000000        0x0 board/octeon/common/libocteon.o
 .text.octeon_boot_bus_get_fdt_ale_mode
                0x0000000000000000        0x0 board/octeon/common/libocteon.o
 .text.__boot_bus_time_encode2
                0x0000000000000000        0x0 board/octeon/common/libocteon.o
 .text.__octeon_boot_bus_get_dev_info
                0x0000000000000000        0x0 board/octeon/common/libocteon.o
 .text.__octeon_boot_bus_get_property_node
                0x0000000000000000        0x0 board/octeon/common/libocteon.o
 .text.__octeon_boot_bus_get_property
                0x0000000000000000        0x0 board/octeon/common/libocteon.o
 .data          0x0000000000000000        0x0 board/octeon/common/libocteon.o
 .bss           0x0000000000000000        0x0 board/octeon/common/libocteon.o
 .pdr           0x0000000000000000        0x0 board/octeon/common/libocteon.o
 .reginfo       0x0000000000000000        0x0 common/libcommon.o
 .text          0x0000000000000000        0x0 common/libcommon.o
 .text.do_go_exec
                0x0000000000000000        0x0 common/libcommon.o
 .text.__arch_preboot_os
                0x0000000000000000        0x0 common/libcommon.o
 .text.eeprom_init
                0x0000000000000000        0x0 common/libcommon.o
 .text.eeprom_probe
                0x0000000000000000        0x0 common/libcommon.o
 .text.dbg      0x0000000000000000        0x0 common/libcommon.o
 .text.stdio_print_current_devices
                0x0000000000000000        0x0 common/libcommon.o
 .text.malloc_usable_size
                0x0000000000000000        0x0 common/libcommon.o
 .text.mallopt  0x0000000000000000        0x0 common/libcommon.o
 .text.cfree    0x0000000000000000        0x0 common/libcommon.o
 .text.pvalloc  0x0000000000000000        0x0 common/libcommon.o
 .text.valloc   0x0000000000000000        0x0 common/libcommon.o
 .text.__get_uboot_version
                0x0000000000000000        0x0 common/libcommon.o
 .text.fdt_getprop_u32_default
                0x0000000000000000        0x0 common/libcommon.o
 .text.fdt_pci_dma_ranges
                0x0000000000000000        0x0 common/libcommon.o
 .text.fdt_set_node_status
                0x0000000000000000        0x0 common/libcommon.o
 .text.fdt_set_status_by_alias
                0x0000000000000000        0x0 common/libcommon.o
 .text.fdt_create_phandle
                0x0000000000000000        0x0 common/libcommon.o
 .text.fdt_verify_alias_address
                0x0000000000000000        0x0 common/libcommon.o
 .text.fdt_node_offset_by_compat_reg
                0x0000000000000000        0x0 common/libcommon.o
 .text.fdt_del_node_and_alias
                0x0000000000000000        0x0 common/libcommon.o
 .text.fdt_increase_size
                0x0000000000000000        0x0 common/libcommon.o
 .text.do_fixup_by_compat
                0x0000000000000000        0x0 common/libcommon.o
 .text.do_fixup_by_compat_u32
                0x0000000000000000        0x0 common/libcommon.o
 .text.fdt_find_and_setprop
                0x0000000000000000        0x0 common/libcommon.o
 .text.do_fixup_by_path
                0x0000000000000000        0x0 common/libcommon.o
 .text.fdt_fixup_ethernet
                0x0000000000000000        0x0 common/libcommon.o
 .text.do_fixup_by_path_u32
                0x0000000000000000        0x0 common/libcommon.o
 .text.do_fixup_by_prop
                0x0000000000000000        0x0 common/libcommon.o
 .text.do_fixup_by_prop_u32
                0x0000000000000000        0x0 common/libcommon.o
 .text.hash_block
                0x0000000000000000        0x0 common/libcommon.o
 .text.ft_verify_fdt
                0x0000000000000000        0x0 common/libcommon.o
 .text.arch_fixup_memory_node
                0x0000000000000000        0x0 common/libcommon.o
 .text.image_setup_libfdt
                0x0000000000000000        0x0 common/libcommon.o
 .text.fit_conf_find_compat
                0x0000000000000000        0x0 common/libcommon.o
 .text.fit_set_timestamp
                0x0000000000000000        0x0 common/libcommon.o
 .text.fit_all_image_verify
                0x0000000000000000        0x0 common/libcommon.o
 .text.image_setup_linux
                0x0000000000000000        0x0 common/libcommon.o
 .text.iomux_printdevs
                0x0000000000000000        0x0 common/libcommon.o
 .text.get_ram_size
                0x0000000000000000        0x0 common/libcommon.o
 .text.legacy_miiphy_read
                0x0000000000000000        0x0 common/libcommon.o
 .text.legacy_miiphy_write
                0x0000000000000000        0x0 common/libcommon.o
 .text.miiphy_register
                0x0000000000000000        0x0 common/libcommon.o
 .text.__splash_screen_prepare
                0x0000000000000000        0x0 common/libcommon.o
 .text.stdio_get_list
                0x0000000000000000        0x0 common/libcommon.o
 .text.usb_alloc_device
                0x0000000000000000        0x0 common/libcommon.o
 .text.usb_get_class_descriptor
                0x0000000000000000        0x0 common/libcommon.o
 .text.usb_get_report
                0x0000000000000000        0x0 common/libcommon.o
 .text.usb_set_idle
                0x0000000000000000        0x0 common/libcommon.o
 .text.usb_set_protocol
                0x0000000000000000        0x0 common/libcommon.o
 .text.usb_submit_int_msg
                0x0000000000000000        0x0 common/libcommon.o
 .rodata.version_string
                0x0000000000000000        0x0 common/libcommon.o
 .rodata.__FUNCTION__.6116
                0x0000000000000000        0x0 common/libcommon.o
 .data          0x0000000000000000        0x0 common/libcommon.o
 .data.mmap_threshold
                0x0000000000000000        0x0 common/libcommon.o
 .bss           0x0000000000000000        0x0 common/libcommon.o
 .bss.n_mmaps_max
                0x0000000000000000        0x0 common/libcommon.o
 .pdr           0x0000000000000000        0x0 common/libcommon.o
 .reginfo       0x0000000000000000        0x0 disk/libdisk.o
 .text          0x0000000000000000        0x0 disk/libdisk.o
 .text.string_uuid
                0x0000000000000000        0x0 disk/libdisk.o
 .text.gpt_fill_header
                0x0000000000000000        0x0 disk/libdisk.o
 .text.gpt_fill_pte
                0x0000000000000000        0x0 disk/libdisk.o
 .text.write_gpt_table
                0x0000000000000000        0x0 disk/libdisk.o
 .text.gpt_restore
                0x0000000000000000        0x0 disk/libdisk.o
 .rodata.__func__.6580
                0x0000000000000000        0x0 disk/libdisk.o
 .rodata.C.113.6497
                0x0000000000000000        0x0 disk/libdisk.o
 .rodata.__func__.6126
                0x0000000000000000        0x0 disk/libdisk.o
 .data          0x0000000000000000        0x0 disk/libdisk.o
 .bss           0x0000000000000000        0x0 disk/libdisk.o
 .pdr           0x0000000000000000        0x0 disk/libdisk.o
 .reginfo       0x0000000000000000        0x0 drivers/block/libblock.o
 .text          0x0000000000000000        0x0 drivers/block/libblock.o
 .text.ata_dev_phys_link
                0x0000000000000000        0x0 drivers/block/libblock.o
 .text.ata_pack_xfermask
                0x0000000000000000        0x0 drivers/block/libblock.o
 .text.ata_unpack_xfermask
                0x0000000000000000        0x0 drivers/block/libblock.o
 .text.ata_xfer_mask2mode
                0x0000000000000000        0x0 drivers/block/libblock.o
 .text.ata_xfer_mode2mask
                0x0000000000000000        0x0 drivers/block/libblock.o
 .text.ata_xfer_mode2shift
                0x0000000000000000        0x0 drivers/block/libblock.o
 .text.ata_mode_string
                0x0000000000000000        0x0 drivers/block/libblock.o
 .text.sata_spd_string
                0x0000000000000000        0x0 drivers/block/libblock.o
 .text.ata_tf_to_lba48
                0x0000000000000000        0x0 drivers/block/libblock.o
 .text.ata_tf_to_lba
                0x0000000000000000        0x0 drivers/block/libblock.o
 .text.ata_id_xfermask
                0x0000000000000000        0x0 drivers/block/libblock.o
 .text.ata_finalize_port_ops
                0x0000000000000000        0x0 drivers/block/libblock.o
 .text.ata_host_init
                0x0000000000000000        0x0 drivers/block/libblock.o
 .text.ata_tlink_add
                0x0000000000000000        0x0 drivers/block/libblock.o
 .text.ata_ehi_clear_desc
                0x0000000000000000        0x0 drivers/block/libblock.o
 .text.__ata_ehi_push_desc
                0x0000000000000000        0x0 drivers/block/libblock.o
 .text.ata_ehi_push_desc
                0x0000000000000000        0x0 drivers/block/libblock.o
 .text.ata_dev_printk
                0x0000000000000000        0x0 drivers/block/libblock.o
 .text.ata_tf_read_block
                0x0000000000000000        0x0 drivers/block/libblock.o
 .text.ata_link_printk
                0x0000000000000000        0x0 drivers/block/libblock.o
 .text.ata_port_printk
                0x0000000000000000        0x0 drivers/block/libblock.o
 .text.__ata_port_probe
                0x0000000000000000        0x0 drivers/block/libblock.o
 .text.ata_port_probe
                0x0000000000000000        0x0 drivers/block/libblock.o
 .text.ata_slave_link_init
                0x0000000000000000        0x0 drivers/block/libblock.o
 .text.ata_dev_set_feature
                0x0000000000000000        0x0 drivers/block/libblock.o
 .text.ata_do_dev_read_id
                0x0000000000000000        0x0 drivers/block/libblock.o
 .text.ata_dev_read_id
                0x0000000000000000        0x0 drivers/block/libblock.o
 .text.ata_dev_reread_id
                0x0000000000000000        0x0 drivers/block/libblock.o
 .text.ata_dev_revalidate
                0x0000000000000000        0x0 drivers/block/libblock.o
 .text.ata_dump_id
                0x0000000000000000        0x0 drivers/block/libblock.o
 .text.__ata_writel
                0x0000000000000000        0x0 drivers/block/libblock.o
 .text.__ata_readl
                0x0000000000000000        0x0 drivers/block/libblock.o
 .text.ata_host_start
                0x0000000000000000        0x0 drivers/block/libblock.o
 .text.ata_dev_next
                0x0000000000000000        0x0 drivers/block/libblock.o
 .text.ata_host_register
                0x0000000000000000        0x0 drivers/block/libblock.o
 .text.sata_pmp_detach
                0x0000000000000000        0x0 drivers/block/libblock.o
 .text.sata_pmp_error_handler
                0x0000000000000000        0x0 drivers/block/libblock.o
 .text.ahci_print_info
                0x0000000000000000        0x0 drivers/block/libblock.o
 .text.ahci_set_feature
                0x0000000000000000        0x0 drivers/block/libblock.o
 .text.ahci_host_init
                0x0000000000000000        0x0 drivers/block/libblock.o
 .text.ahci_shutdown_platform
                0x0000000000000000        0x0 drivers/block/libblock.o
 .rodata.sata_deb_timing_hotplug
                0x0000000000000000        0x0 drivers/block/libblock.o
 .rodata.sata_deb_timing_long
                0x0000000000000000        0x0 drivers/block/libblock.o
 .rodata.__func__.141727
                0x0000000000000000        0x0 drivers/block/libblock.o
 .rodata.ata_xfer_tbl
                0x0000000000000000        0x0 drivers/block/libblock.o
 .rodata.__FUNCTION__.140335
                0x0000000000000000        0x0 drivers/block/libblock.o
 .rodata.__func__.7238
                0x0000000000000000        0x0 drivers/block/libblock.o
 .rodata.__func__.7211
                0x0000000000000000        0x0 drivers/block/libblock.o
 .rodata.__func__.142150
                0x0000000000000000        0x0 drivers/block/libblock.o
 .rodata.__func__.141152
                0x0000000000000000        0x0 drivers/block/libblock.o
 .data          0x0000000000000000        0x0 drivers/block/libblock.o
 .data.rel.ro.ata_dummy_port_info
                0x0000000000000000        0x0 drivers/block/libblock.o
 .data.rel.ro.local.spd_str.140744
                0x0000000000000000        0x0 drivers/block/libblock.o
 .data.rel.ro.local.xfer_mode_str.140734
                0x0000000000000000        0x0 drivers/block/libblock.o
 .bss           0x0000000000000000        0x0 drivers/block/libblock.o
 .bss.ata_print_id
                0x0000000000000000        0x0 drivers/block/libblock.o
 .pdr           0x0000000000000000        0x0 drivers/block/libblock.o
 .reginfo       0x0000000000000000        0x0 drivers/gpio/libgpio.o
 .text          0x0000000000000000        0x0 drivers/gpio/libgpio.o
 .text.gpio_toggle_value
                0x0000000000000000        0x0 drivers/gpio/libgpio.o
 .data          0x0000000000000000        0x0 drivers/gpio/libgpio.o
 .bss           0x0000000000000000        0x0 drivers/gpio/libgpio.o
 .pdr           0x0000000000000000        0x0 drivers/gpio/libgpio.o
 .reginfo       0x0000000000000000        0x0 drivers/i2c/libi2c.o
 .text          0x0000000000000000        0x0 drivers/i2c/libi2c.o
 .text.i2c_get_bus_num_fdt
                0x0000000000000000        0x0 drivers/i2c/libi2c.o
 .text.octeon_i2c_reg_addr_to_bus
                0x0000000000000000        0x0 drivers/i2c/libi2c.o
 .text.i2c_get_stop_delay
                0x0000000000000000        0x0 drivers/i2c/libi2c.o
 .text.i2c_set_stop_delay
                0x0000000000000000        0x0 drivers/i2c/libi2c.o
 .text.i2c_reloc_fixup
                0x0000000000000000        0x0 drivers/i2c/libi2c.o
 .text.__def_i2c_init_board
                0x0000000000000000        0x0 drivers/i2c/libi2c.o
 .rodata.__func__.139567
                0x0000000000000000        0x0 drivers/i2c/libi2c.o
 .data          0x0000000000000000        0x0 drivers/i2c/libi2c.o
 .bss           0x0000000000000000        0x0 drivers/i2c/libi2c.o
 .pdr           0x0000000000000000        0x0 drivers/i2c/libi2c.o
 .reginfo       0x0000000000000000        0x0 drivers/input/libinput.o
 .text          0x0000000000000000        0x0 drivers/input/libinput.o
 .text.input_tstc
                0x0000000000000000        0x0 drivers/input/libinput.o
 .text.input_getc
                0x0000000000000000        0x0 drivers/input/libinput.o
 .text.array_search
                0x0000000000000000        0x0 drivers/input/libinput.o
 .text.input_add_table
                0x0000000000000000        0x0 drivers/input/libinput.o
 .text.input_set_delays
                0x0000000000000000        0x0 drivers/input/libinput.o
 .text.input_stdio_register
                0x0000000000000000        0x0 drivers/input/libinput.o
 .text.input_init
                0x0000000000000000        0x0 drivers/input/libinput.o
 .text.sort_array_by_ordering
                0x0000000000000000        0x0 drivers/input/libinput.o
 .text.input_send_keycodes
                0x0000000000000000        0x0 drivers/input/libinput.o
 .text.key_matrix_decode
                0x0000000000000000        0x0 drivers/input/libinput.o
 .text.key_matrix_init
                0x0000000000000000        0x0 drivers/input/libinput.o
 .text.create_keymap
                0x0000000000000000        0x0 drivers/input/libinput.o
 .text.key_matrix_decode_fdt
                0x0000000000000000        0x0 drivers/input/libinput.o
 .rodata.str1.8
                0x0000000000000000        0x0 drivers/input/libinput.o
 .rodata.kbd_plain_xlate
                0x0000000000000000        0x0 drivers/input/libinput.o
 .data          0x0000000000000000        0x0 drivers/input/libinput.o
 .data.kbd_shift_xlate
                0x0000000000000000        0x0 drivers/input/libinput.o
 .data.kbd_ctrl_xlate
                0x0000000000000000        0x0 drivers/input/libinput.o
 .data.rel.ro.local.kbd_to_ansi364
                0x0000000000000000        0x0 drivers/input/libinput.o
 .bss           0x0000000000000000        0x0 drivers/input/libinput.o
 .pdr           0x0000000000000000        0x0 drivers/input/libinput.o
 .reginfo       0x0000000000000000        0x0 drivers/mtd/spi/libspi_flash.o
 .text          0x0000000000000000        0x0 drivers/mtd/spi/libspi_flash.o
 .data          0x0000000000000000        0x0 drivers/mtd/spi/libspi_flash.o
 .bss           0x0000000000000000        0x0 drivers/mtd/spi/libspi_flash.o
 .pdr           0x0000000000000000        0x0 drivers/mtd/spi/libspi_flash.o
 .reginfo       0x0000000000000000        0x0 drivers/net/libnet.o
 .text          0x0000000000000000        0x0 drivers/net/libnet.o
 .text.board_octeon_eth_check_mod_abs_interrupt
                0x0000000000000000        0x0 drivers/net/libnet.o
 .text.octeon_find_eth_by_interface_index
                0x0000000000000000        0x0 drivers/net/libnet.o
 .text.octeon_eth_register_phy_port_check
                0x0000000000000000        0x0 drivers/net/libnet.o
 .text.octeon_eth_board_post_setup_phy
                0x0000000000000000        0x0 drivers/net/libnet.o
 .data          0x0000000000000000        0x0 drivers/net/libnet.o
 .bss           0x0000000000000000        0x0 drivers/net/libnet.o
 .pdr           0x0000000000000000        0x0 drivers/net/libnet.o
 COMMON         0x0000000000000000        0x0 drivers/net/libnet.o
 .reginfo       0x0000000000000000        0x0 drivers/net/phy/libphy.o
 .text          0x0000000000000000        0x0 drivers/net/phy/libphy.o
 .text.phy_startup
                0x0000000000000000        0x0 drivers/net/phy/libphy.o
 .text.phy_shutdown
                0x0000000000000000        0x0 drivers/net/phy/libphy.o
 .text.miiphy_reset
                0x0000000000000000        0x0 drivers/net/phy/libphy.o
 .data          0x0000000000000000        0x0 drivers/net/phy/libphy.o
 .bss           0x0000000000000000        0x0 drivers/net/phy/libphy.o
 .pdr           0x0000000000000000        0x0 drivers/net/phy/libphy.o
 .reginfo       0x0000000000000000        0x0 drivers/pci/libpci.o
 .text          0x0000000000000000        0x0 drivers/pci/libpci.o
 .text.pci_hose_read_config_byte_via_dword
                0x0000000000000000        0x0 drivers/pci/libpci.o
 .text.pci_hose_read_config_word_via_dword
                0x0000000000000000        0x0 drivers/pci/libpci.o
 .text.pci_hose_write_config_byte_via_dword
                0x0000000000000000        0x0 drivers/pci/libpci.o
 .text.pci_hose_write_config_word_via_dword
                0x0000000000000000        0x0 drivers/pci/libpci.o
 .text.find_hose_by_cfg_addr
                0x0000000000000000        0x0 drivers/pci/libpci.o
 .text.pci_last_busno
                0x0000000000000000        0x0 drivers/pci/libpci.o
 .text.pci_find_devices
                0x0000000000000000        0x0 drivers/pci/libpci.o
 .text.pci_find_device
                0x0000000000000000        0x0 drivers/pci/libpci.o
 .text.pci_find_class
                0x0000000000000000        0x0 drivers/pci/libpci.o
 .text.__pci_hose_phys_to_bus
                0x0000000000000000        0x0 drivers/pci/libpci.o
 .text.__pci_hose_bus_to_phys
                0x0000000000000000        0x0 drivers/pci/libpci.o
 .text.pci_hose_config_device
                0x0000000000000000        0x0 drivers/pci/libpci.o
 .text.pci_find_config
                0x0000000000000000        0x0 drivers/pci/libpci.o
 .text.pci_cfgfunc_config_device
                0x0000000000000000        0x0 drivers/pci/libpci.o
 .text.pci_cfgfunc_do_nothing
                0x0000000000000000        0x0 drivers/pci/libpci.o
 .text.__pci_skip_dev
                0x0000000000000000        0x0 drivers/pci/libpci.o
 .text.pci_hose_find_cap_start
                0x0000000000000000        0x0 drivers/pci/libpci.o
 .text.pci_find_cap
                0x0000000000000000        0x0 drivers/pci/libpci.o
 .text.pci_hose_find_capability
                0x0000000000000000        0x0 drivers/pci/libpci.o
 .text.pci_hose_bus_to_phys
                0x0000000000000000        0x0 drivers/pci/libpci.o
 .text.pci_map_bar
                0x0000000000000000        0x0 drivers/pci/libpci.o
 .text.pci_hose_phys_to_bus
                0x0000000000000000        0x0 drivers/pci/libpci.o
 .text.pciauto_region_init
                0x0000000000000000        0x0 drivers/pci/libpci.o
 .text.pci_setup_indirect
                0x0000000000000000        0x0 drivers/pci/libpci.o
 .text.indirect_read_config_byte
                0x0000000000000000        0x0 drivers/pci/libpci.o
 .text.indirect_read_config_word
                0x0000000000000000        0x0 drivers/pci/libpci.o
 .text.indirect_read_config_dword
                0x0000000000000000        0x0 drivers/pci/libpci.o
 .text.indirect_write_config_byte
                0x0000000000000000        0x0 drivers/pci/libpci.o
 .text.indirect_write_config_word
                0x0000000000000000        0x0 drivers/pci/libpci.o
 .text.indirect_write_config_dword
                0x0000000000000000        0x0 drivers/pci/libpci.o
 .data          0x0000000000000000        0x0 drivers/pci/libpci.o
 .bss           0x0000000000000000        0x0 drivers/pci/libpci.o
 .bss.ids.139420
                0x0000000000000000        0x0 drivers/pci/libpci.o
 .pdr           0x0000000000000000        0x0 drivers/pci/libpci.o
 .reginfo       0x0000000000000000        0x0 drivers/pcmcia/libpcmcia.o
 .text          0x0000000000000000        0x0 drivers/pcmcia/libpcmcia.o
 .data          0x0000000000000000        0x0 drivers/pcmcia/libpcmcia.o
 .bss           0x0000000000000000        0x0 drivers/pcmcia/libpcmcia.o
 .reginfo       0x0000000000000000        0x0 drivers/rtc/librtc.o
 .text          0x0000000000000000        0x0 drivers/rtc/librtc.o
 .text.mktime   0x0000000000000000        0x0 drivers/rtc/librtc.o
 .data          0x0000000000000000        0x0 drivers/rtc/librtc.o
 .bss           0x0000000000000000        0x0 drivers/rtc/librtc.o
 .pdr           0x0000000000000000        0x0 drivers/rtc/librtc.o
 .reginfo       0x0000000000000000        0x0 drivers/serial/libserial.o
 .text          0x0000000000000000        0x0 drivers/serial/libserial.o
 .text.serial_null
                0x0000000000000000        0x0 drivers/serial/libserial.o
 .text.serial_register
                0x0000000000000000        0x0 drivers/serial/libserial.o
 .text.serial_reinit_all
                0x0000000000000000        0x0 drivers/serial/libserial.o
 .text.default_serial_puts
                0x0000000000000000        0x0 drivers/serial/libserial.o
 .text.serial_assign
                0x0000000000000000        0x0 drivers/serial/libserial.o
 .text.serial_initialize
                0x0000000000000000        0x0 drivers/serial/libserial.o
 .data          0x0000000000000000        0x0 drivers/serial/libserial.o
 .bss           0x0000000000000000        0x0 drivers/serial/libserial.o
 .pdr           0x0000000000000000        0x0 drivers/serial/libserial.o
 .reginfo       0x0000000000000000        0x0 drivers/spi/libspi.o
 .text          0x0000000000000000        0x0 drivers/spi/libspi.o
 .text.spi_do_alloc_slave
                0x0000000000000000        0x0 drivers/spi/libspi.o
 .text.spi_set_wordlen
                0x0000000000000000        0x0 drivers/spi/libspi.o
 .text.spi_init_f
                0x0000000000000000        0x0 drivers/spi/libspi.o
 .text.spi_cs_is_valid
                0x0000000000000000        0x0 drivers/spi/libspi.o
 .text.spi_cs_activate
                0x0000000000000000        0x0 drivers/spi/libspi.o
 .text.spi_cs_deactivate
                0x0000000000000000        0x0 drivers/spi/libspi.o
 .data          0x0000000000000000        0x0 drivers/spi/libspi.o
 .bss           0x0000000000000000        0x0 drivers/spi/libspi.o
 .pdr           0x0000000000000000        0x0 drivers/spi/libspi.o
 .reginfo       0x0000000000000000        0x0 drivers/tpm/libtpm.o
 .text          0x0000000000000000        0x0 drivers/tpm/libtpm.o
 .text.print_dev_vendor_name
                0x0000000000000000        0x0 drivers/tpm/libtpm.o
 .text.__tpm_write_word
                0x0000000000000000        0x0 drivers/tpm/libtpm.o
 .text.__tpm_write_byte
                0x0000000000000000        0x0 drivers/tpm/libtpm.o
 .text.__tpm_read_word
                0x0000000000000000        0x0 drivers/tpm/libtpm.o
 .text.__tpm_read_byte
                0x0000000000000000        0x0 drivers/tpm/libtpm.o
 .data          0x0000000000000000        0x0 drivers/tpm/libtpm.o
 .bss           0x0000000000000000        0x0 drivers/tpm/libtpm.o
 .pdr           0x0000000000000000        0x0 drivers/tpm/libtpm.o
 .reginfo       0x0000000000000000        0x0 drivers/usb/host/libusb_host.o
 .text          0x0000000000000000        0x0 drivers/usb/host/libusb_host.o
 .text.__xhci_powerup_fixup
                0x0000000000000000        0x0 drivers/usb/host/libusb_host.o
 .text.xhci_queue_configure_endpoint
                0x0000000000000000        0x0 drivers/usb/host/libusb_host.o
 .text.__board_usb_init
                0x0000000000000000        0x0 drivers/usb/host/libusb_host.o
 .rodata.__FUNCTION__.140166
                0x0000000000000000        0x0 drivers/usb/host/libusb_host.o
 .data          0x0000000000000000        0x0 drivers/usb/host/libusb_host.o
 .bss           0x0000000000000000        0x0 drivers/usb/host/libusb_host.o
 .pdr           0x0000000000000000        0x0 drivers/usb/host/libusb_host.o
 .reginfo       0x0000000000000000        0x0 fs/fat/libfat.o
 .text          0x0000000000000000        0x0 fs/fat/libfat.o
 .text.file_fat_read
                0x0000000000000000        0x0 fs/fat/libfat.o
 .text.fat_register_device
                0x0000000000000000        0x0 fs/fat/libfat.o
 .text.file_getfsname
                0x0000000000000000        0x0 fs/fat/libfat.o
 .text.file_read
                0x0000000000000000        0x0 fs/fat/libfat.o
 .text.file_ls  0x0000000000000000        0x0 fs/fat/libfat.o
 .text.file_detectfs
                0x0000000000000000        0x0 fs/fat/libfat.o
 .text.file_cd  0x0000000000000000        0x0 fs/fat/libfat.o
 .data          0x0000000000000000        0x0 fs/fat/libfat.o
 .data.file_cwd
                0x0000000000000000        0x0 fs/fat/libfat.o
 .data.current_filesystem
                0x0000000000000000        0x0 fs/fat/libfat.o
 .data.rel.ro.filesystems
                0x0000000000000000        0x0 fs/fat/libfat.o
 .bss           0x0000000000000000        0x0 fs/fat/libfat.o
 .pdr           0x0000000000000000        0x0 fs/fat/libfat.o
 .reginfo       0x0000000000000000        0x0 fs/libfs.o
 .text          0x0000000000000000        0x0 fs/libfs.o
 .text.fs_exists
                0x0000000000000000        0x0 fs/libfs.o
 .text.fs_write
                0x0000000000000000        0x0 fs/libfs.o
 .text.do_save  0x0000000000000000        0x0 fs/libfs.o
 .text.file_exists
                0x0000000000000000        0x0 fs/libfs.o
 .rodata.__func__.139563
                0x0000000000000000        0x0 fs/libfs.o
 .data          0x0000000000000000        0x0 fs/libfs.o
 .bss           0x0000000000000000        0x0 fs/libfs.o
 .pdr           0x0000000000000000        0x0 fs/libfs.o
 .reginfo       0x0000000000000000        0x0 lib/libfdt/libfdt.o
 .text          0x0000000000000000        0x0 lib/libfdt/libfdt.o
 .text.fdt_create_empty_tree
                0x0000000000000000        0x0 lib/libfdt/libfdt.o
 .text.fdt_node_offset_by_prop_value
                0x0000000000000000        0x0 lib/libfdt/libfdt.o
 .text.fdt_get_path
                0x0000000000000000        0x0 lib/libfdt/libfdt.o
 .text.fdt_getprop_by_offset
                0x0000000000000000        0x0 lib/libfdt/libfdt.o
 .text.fdt_appendprop
                0x0000000000000000        0x0 lib/libfdt/libfdt.o
 .text._fdt_grab_space
                0x0000000000000000        0x0 lib/libfdt/libfdt.o
 .text.fdt_add_reservemap_entry
                0x0000000000000000        0x0 lib/libfdt/libfdt.o
 .text.fdt_finish_reservemap
                0x0000000000000000        0x0 lib/libfdt/libfdt.o
 .text.fdt_end_node
                0x0000000000000000        0x0 lib/libfdt/libfdt.o
 .text.fdt_create
                0x0000000000000000        0x0 lib/libfdt/libfdt.o
 .text.fdt_begin_node
                0x0000000000000000        0x0 lib/libfdt/libfdt.o
 .text.fdt_finish
                0x0000000000000000        0x0 lib/libfdt/libfdt.o
 .text.fdt_property
                0x0000000000000000        0x0 lib/libfdt/libfdt.o
 .text.str_in_list
                0x0000000000000000        0x0 lib/libfdt/libfdt.o
 .text.fdt_find_regions
                0x0000000000000000        0x0 lib/libfdt/libfdt.o
 .rodata.fdt_find_regions
                0x0000000000000000        0x0 lib/libfdt/libfdt.o
 .data          0x0000000000000000        0x0 lib/libfdt/libfdt.o
 .bss           0x0000000000000000        0x0 lib/libfdt/libfdt.o
 .pdr           0x0000000000000000        0x0 lib/libfdt/libfdt.o
 .reginfo       0x0000000000000000        0x0 lib/libgeneric.o
 .text          0x0000000000000000        0x0 lib/libgeneric.o
 .text.addrmap_phys_to_virt
                0x0000000000000000        0x0 lib/libgeneric.o
 .text.crc7     0x0000000000000000        0x0 lib/libgeneric.o
 .text.display_options
                0x0000000000000000        0x0 lib/libgeneric.o
 .text.fdtdec_get_compatible
                0x0000000000000000        0x0 lib/libgeneric.o
 .text.fdtdec_decode_region
                0x0000000000000000        0x0 lib/libgeneric.o
 .text.get_prop_check_min_len
                0x0000000000000000        0x0 lib/libgeneric.o
 .text.fdtdec_locate_byte_array
                0x0000000000000000        0x0 lib/libgeneric.o
 .text.fdtdec_locate_array
                0x0000000000000000        0x0 lib/libgeneric.o
 .text.fdtdec_get_int_array
                0x0000000000000000        0x0 lib/libgeneric.o
 .text.fdtdec_get_config_bool
                0x0000000000000000        0x0 lib/libgeneric.o
 .text.fdtdec_get_byte_array
                0x0000000000000000        0x0 lib/libgeneric.o
 .text.fdtdec_setup_gpio
                0x0000000000000000        0x0 lib/libgeneric.o
 .text.fdtdec_set_gpio
                0x0000000000000000        0x0 lib/libgeneric.o
 .text.fdtdec_get_gpio
                0x0000000000000000        0x0 lib/libgeneric.o
 .text.fdtdec_decode_gpios
                0x0000000000000000        0x0 lib/libgeneric.o
 .text.fdtdec_decode_gpio
                0x0000000000000000        0x0 lib/libgeneric.o
 .text.fdtdec_prepare_fdt
                0x0000000000000000        0x0 lib/libgeneric.o
 .text.fdtdec_check_fdt
                0x0000000000000000        0x0 lib/libgeneric.o
 .text.fdtdec_next_alias
                0x0000000000000000        0x0 lib/libgeneric.o
 .text.fdtdec_lookup
                0x0000000000000000        0x0 lib/libgeneric.o
 .text.fdtdec_next_compatible_subnode
                0x0000000000000000        0x0 lib/libgeneric.o
 .text.fdtdec_get_is_enabled
                0x0000000000000000        0x0 lib/libgeneric.o
 .text.fdtdec_add_aliases_for_id
                0x0000000000000000        0x0 lib/libgeneric.o
 .text.fdtdec_find_aliases_for_id
                0x0000000000000000        0x0 lib/libgeneric.o
 .text.initcall_run_list
                0x0000000000000000        0x0 lib/libgeneric.o
 .text.ldiv     0x0000000000000000        0x0 lib/libgeneric.o
 .text.skip_spaces
                0x0000000000000000        0x0 lib/libgeneric.o
 .text.lmb_dump_all
                0x0000000000000000        0x0 lib/libgeneric.o
 .text.lmb_free
                0x0000000000000000        0x0 lib/libgeneric.o
 .text.lmb_is_reserved
                0x0000000000000000        0x0 lib/libgeneric.o
 .text.strswab  0x0000000000000000        0x0 lib/libgeneric.o
 .text.bcopy    0x0000000000000000        0x0 lib/libgeneric.o
 .text.memscan  0x0000000000000000        0x0 lib/libgeneric.o
 .text.check_bytes8
                0x0000000000000000        0x0 lib/libgeneric.o
 .text.memchr_inv
                0x0000000000000000        0x0 lib/libgeneric.o
 .text.strmhz   0x0000000000000000        0x0 lib/libgeneric.o
 .text.__udelay
                0x0000000000000000        0x0 lib/libgeneric.o
 .text.tick_to_time
                0x0000000000000000        0x0 lib/libgeneric.o
 .text.timer_get_us
                0x0000000000000000        0x0 lib/libgeneric.o
 .text.get_timer
                0x0000000000000000        0x0 lib/libgeneric.o
 .text.ustrtoul
                0x0000000000000000        0x0 lib/libgeneric.o
 .text.__assert_fail
                0x0000000000000000        0x0 lib/libgeneric.o
 .text.print_grouped_ull
                0x0000000000000000        0x0 lib/libgeneric.o
 .text.ustrtoull
                0x0000000000000000        0x0 lib/libgeneric.o
 .rodata.crc7_syndrome_table
                0x0000000000000000        0x0 lib/libgeneric.o
 .data          0x0000000000000000        0x0 lib/libgeneric.o
 .bss           0x0000000000000000        0x0 lib/libgeneric.o
 .pdr           0x0000000000000000        0x0 lib/libgeneric.o
 .reginfo       0x0000000000000000        0x0 lib/zlib/libz.o
 .text          0x0000000000000000        0x0 lib/zlib/libz.o
 .text.inflate_fast
                0x0000000000000000        0x0 lib/zlib/libz.o
 .text.inflate_table
                0x0000000000000000        0x0 lib/zlib/libz.o
 .text.adler32  0x0000000000000000        0x0 lib/zlib/libz.o
 .text.zcfree   0x0000000000000000        0x0 lib/zlib/libz.o
 .text.zcalloc  0x0000000000000000        0x0 lib/zlib/libz.o
 .text.inflateEnd
                0x0000000000000000        0x0 lib/zlib/libz.o
 .text.inflateReset
                0x0000000000000000        0x0 lib/zlib/libz.o
 .text.inflateInit2_
                0x0000000000000000        0x0 lib/zlib/libz.o
 .text.inflateInit_
                0x0000000000000000        0x0 lib/zlib/libz.o
 .text.inflate  0x0000000000000000        0x0 lib/zlib/libz.o
 .rodata.str1.8
                0x0000000000000000        0x0 lib/zlib/libz.o
 .rodata.inflate
                0x0000000000000000        0x0 lib/zlib/libz.o
 .rodata.order.6348
                0x0000000000000000        0x0 lib/zlib/libz.o
 .rodata.lenfix
                0x0000000000000000        0x0 lib/zlib/libz.o
 .rodata.distfix
                0x0000000000000000        0x0 lib/zlib/libz.o
 .rodata.dext.6122
                0x0000000000000000        0x0 lib/zlib/libz.o
 .rodata.dbase.6121
                0x0000000000000000        0x0 lib/zlib/libz.o
 .rodata.lext.6120
                0x0000000000000000        0x0 lib/zlib/libz.o
 .rodata.lbase.6119
                0x0000000000000000        0x0 lib/zlib/libz.o
 .data          0x0000000000000000        0x0 lib/zlib/libz.o
 .data.rel.ro.local.z_errmsg
                0x0000000000000000        0x0 lib/zlib/libz.o
 .bss           0x0000000000000000        0x0 lib/zlib/libz.o
 .pdr           0x0000000000000000        0x0 lib/zlib/libz.o
 .reginfo       0x0000000000000000        0x0 net/libnet.o
 .text          0x0000000000000000        0x0 net/libnet.o
 .text.eth_unregister
                0x0000000000000000        0x0 net/libnet.o
 .text.eth_get_dev_by_name
                0x0000000000000000        0x0 net/libnet.o
 .text.net_get_udp_handler
                0x0000000000000000        0x0 net/libnet.o
 .rodata.__FUNCTION__.6065
                0x0000000000000000        0x0 net/libnet.o
 .data          0x0000000000000000        0x0 net/libnet.o
 .data.TftpRRQTimeoutMSecs
                0x0000000000000000        0x0 net/libnet.o
 .bss           0x0000000000000000        0x0 net/libnet.o
 .pdr           0x0000000000000000        0x0 net/libnet.o
 .reginfo       0x0000000000000000        0x0 board/juniper/srx_siege/libsrx_siege.o
 .text          0x0000000000000000        0x0 board/juniper/srx_siege/libsrx_siege.o
 .text.pat_srx_siege_cpld_watchdog
                0x0000000000000000        0x0 board/juniper/srx_siege/libsrx_siege.o
 .text.enable_srx_siege_cpld_watchdog
                0x0000000000000000        0x0 board/juniper/srx_siege/libsrx_siege.o
 .text.get_next_bootdev_disk_id
                0x0000000000000000        0x0 board/juniper/srx_siege/libsrx_siege.o
 .text.reload_cpld_watchdog
                0x0000000000000000        0x0 board/juniper/srx_siege/libsrx_siege.o
 .data          0x0000000000000000        0x0 board/juniper/srx_siege/libsrx_siege.o
 .data.modulus_val
                0x0000000000000000        0x0 board/juniper/srx_siege/libsrx_siege.o
 .data.r_squared_val
                0x0000000000000000        0x0 board/juniper/srx_siege/libsrx_siege.o
 .data.pubkey_len
                0x0000000000000000        0x0 board/juniper/srx_siege/libsrx_siege.o
 .data.pubkey_n0inv
                0x0000000000000000        0x0 board/juniper/srx_siege/libsrx_siege.o
 .bss           0x0000000000000000        0x0 board/juniper/srx_siege/libsrx_siege.o
 .pdr           0x0000000000000000        0x0 board/juniper/srx_siege/libsrx_siege.o
 .data          0x0000000000000000        0x0 /homes/markli/u-boot-siege-git/u-boot/gcc_depends/n32/libgcc.a(_ffssi2.o)
 .bss           0x0000000000000000        0x0 /homes/markli/u-boot-siege-git/u-boot/gcc_depends/n32/libgcc.a(_ffssi2.o)
 .reginfo       0x0000000000000000        0x0 /homes/markli/u-boot-siege-git/u-boot/gcc_depends/n32/libgcc.a(_ffssi2.o)
 .pdr           0x0000000000000000        0x0 /homes/markli/u-boot-siege-git/u-boot/gcc_depends/n32/libgcc.a(_ffssi2.o)
 .note.GNU-stack
                0x0000000000000000        0x0 /homes/markli/u-boot-siege-git/u-boot/gcc_depends/n32/libgcc.a(_ffssi2.o)
 .eh_frame      0x0000000000000000        0x0 /homes/markli/u-boot-siege-git/u-boot/gcc_depends/n32/libgcc.a(_ffssi2.o)
 .text          0x0000000000000000        0x0 /homes/markli/u-boot-siege-git/u-boot/gcc_depends/n32/libgcc.a(_clz.o)
 .data          0x0000000000000000        0x0 /homes/markli/u-boot-siege-git/u-boot/gcc_depends/n32/libgcc.a(_clz.o)
 .bss           0x0000000000000000        0x0 /homes/markli/u-boot-siege-git/u-boot/gcc_depends/n32/libgcc.a(_clz.o)
 .reginfo       0x0000000000000000        0x0 /homes/markli/u-boot-siege-git/u-boot/gcc_depends/n32/libgcc.a(_clz.o)
 .note.GNU-stack
                0x0000000000000000        0x0 /homes/markli/u-boot-siege-git/u-boot/gcc_depends/n32/libgcc.a(_clz.o)
 .data          0x0000000000000000        0x0 /homes/markli/u-boot-siege-git/u-boot/gcc_depends/n32/libgcc.a(_ctzsi2.o)
 .bss           0x0000000000000000        0x0 /homes/markli/u-boot-siege-git/u-boot/gcc_depends/n32/libgcc.a(_ctzsi2.o)
 .reginfo       0x0000000000000000        0x0 /homes/markli/u-boot-siege-git/u-boot/gcc_depends/n32/libgcc.a(_ctzsi2.o)
 .pdr           0x0000000000000000        0x0 /homes/markli/u-boot-siege-git/u-boot/gcc_depends/n32/libgcc.a(_ctzsi2.o)
 .note.GNU-stack
                0x0000000000000000        0x0 /homes/markli/u-boot-siege-git/u-boot/gcc_depends/n32/libgcc.a(_ctzsi2.o)
 .eh_frame      0x0000000000000000        0x0 /homes/markli/u-boot-siege-git/u-boot/gcc_depends/n32/libgcc.a(_ctzsi2.o)
 .text          0x0000000000000000        0x0 /homes/markli/u-boot-siege-git/u-boot/gcc_depends/n32/libgcc.a(_sf_to_df.o)
 .data          0x0000000000000000        0x0 /homes/markli/u-boot-siege-git/u-boot/gcc_depends/n32/libgcc.a(_sf_to_df.o)
 .bss           0x0000000000000000        0x0 /homes/markli/u-boot-siege-git/u-boot/gcc_depends/n32/libgcc.a(_sf_to_df.o)
 .reginfo       0x0000000000000000        0x0 /homes/markli/u-boot-siege-git/u-boot/gcc_depends/n32/libgcc.a(_sf_to_df.o)
 .pdr           0x0000000000000000        0x0 /homes/markli/u-boot-siege-git/u-boot/gcc_depends/n32/libgcc.a(_sf_to_df.o)
 .note.GNU-stack
                0x0000000000000000        0x0 /homes/markli/u-boot-siege-git/u-boot/gcc_depends/n32/libgcc.a(_sf_to_df.o)
 .eh_frame      0x0000000000000000        0x0 /homes/markli/u-boot-siege-git/u-boot/gcc_depends/n32/libgcc.a(_sf_to_df.o)
 .text          0x0000000000000000        0x0 /homes/markli/u-boot-siege-git/u-boot/gcc_depends/n32/libgcc.a(_make_df.o)
 .data          0x0000000000000000        0x0 /homes/markli/u-boot-siege-git/u-boot/gcc_depends/n32/libgcc.a(_make_df.o)
 .bss           0x0000000000000000        0x0 /homes/markli/u-boot-siege-git/u-boot/gcc_depends/n32/libgcc.a(_make_df.o)
 .reginfo       0x0000000000000000        0x0 /homes/markli/u-boot-siege-git/u-boot/gcc_depends/n32/libgcc.a(_make_df.o)
 .pdr           0x0000000000000000        0x0 /homes/markli/u-boot-siege-git/u-boot/gcc_depends/n32/libgcc.a(_make_df.o)
 .note.GNU-stack
                0x0000000000000000        0x0 /homes/markli/u-boot-siege-git/u-boot/gcc_depends/n32/libgcc.a(_make_df.o)
 .eh_frame      0x0000000000000000        0x0 /homes/markli/u-boot-siege-git/u-boot/gcc_depends/n32/libgcc.a(_make_df.o)
 .text          0x0000000000000000        0x0 /homes/markli/u-boot-siege-git/u-boot/gcc_depends/n32/libgcc.a(_unpack_sf.o)
 .data          0x0000000000000000        0x0 /homes/markli/u-boot-siege-git/u-boot/gcc_depends/n32/libgcc.a(_unpack_sf.o)
 .bss           0x0000000000000000        0x0 /homes/markli/u-boot-siege-git/u-boot/gcc_depends/n32/libgcc.a(_unpack_sf.o)
 .reginfo       0x0000000000000000        0x0 /homes/markli/u-boot-siege-git/u-boot/gcc_depends/n32/libgcc.a(_unpack_sf.o)
 .pdr           0x0000000000000000        0x0 /homes/markli/u-boot-siege-git/u-boot/gcc_depends/n32/libgcc.a(_unpack_sf.o)
 .note.GNU-stack
                0x0000000000000000        0x0 /homes/markli/u-boot-siege-git/u-boot/gcc_depends/n32/libgcc.a(_unpack_sf.o)
 .eh_frame      0x0000000000000000        0x0 /homes/markli/u-boot-siege-git/u-boot/gcc_depends/n32/libgcc.a(_unpack_sf.o)
 .text          0x0000000000000000        0x0 /homes/markli/u-boot-siege-git/u-boot/gcc_depends/n32/libgcc.a(_pack_df.o)
 .data          0x0000000000000000        0x0 /homes/markli/u-boot-siege-git/u-boot/gcc_depends/n32/libgcc.a(_pack_df.o)
 .bss           0x0000000000000000        0x0 /homes/markli/u-boot-siege-git/u-boot/gcc_depends/n32/libgcc.a(_pack_df.o)
 .reginfo       0x0000000000000000        0x0 /homes/markli/u-boot-siege-git/u-boot/gcc_depends/n32/libgcc.a(_pack_df.o)
 .pdr           0x0000000000000000        0x0 /homes/markli/u-boot-siege-git/u-boot/gcc_depends/n32/libgcc.a(_pack_df.o)
 .note.GNU-stack
                0x0000000000000000        0x0 /homes/markli/u-boot-siege-git/u-boot/gcc_depends/n32/libgcc.a(_pack_df.o)
 .eh_frame      0x0000000000000000        0x0 /homes/markli/u-boot-siege-git/u-boot/gcc_depends/n32/libgcc.a(_pack_df.o)

Memory Configuration

Name             Origin             Length             Attributes
*default*        0x0000000000000000 0xffffffffffffffff

Linker script and memory map

                0x00000000c0000000                PROVIDE (__executable_start, 0xc0000000)
                0x00000000c0000074                . = (0xc0000000 + SIZEOF_HEADERS)
                0x00000000c0000074                . = ALIGN (0x4)

.text           0x00000000c0000000   0x14cdd4
 *(.text)
 .text          0x00000000c0000000     0x61e0 arch/mips/cpu/octeon/start.o
                0x00000000c0006070                nmi_exception_handler
                0x00000000c000565c                asm_launch_linux_entry_point
                0x00000000c0004940                InitTLBStart
                0x00000000c00051d4                relocate_code_octeon
                0x00000000c0005478                debugHandler_entrypoint
                0x00000000c0005180                relocate_code
                0x00000000c0005648                tlbwi_and_eret
                0x00000000c000569c                octeon_uart_write_char
                0x00000000c0005190                relocate_code_octeon_o32
                0x00000000c00056c0                octeon_uart_write_lf
                0x00000000c0005804                exception_handler_stage2
                0x00000000c0006180                bist_read_memctl_cacheerr
                0x00000000c00061d8                bist_read_memctl_cacheerr_end
                0x00000000c0005550                simple_tlb_setup
                0x00000000c00055b8                single_tlb_setup
                0x00000000c0000000                _start
                0x00000000c0000505                bootver_env_string
                0x00000000c00054c4                OcteonBreak
                0x00000000c0000500                uboot_api_ver_string
                0x00000000c0006110                revid_check_patch
                0x00000000c0005890                exception_handler_stage3
                0x00000000c0004608                asm_reset
                0x00000000c0006108                juniper_dmult
                0x00000000c00054d0                SecondaryCoreInit
                0x00000000c0005704                uart_write_string
                0x00000000c0006100                exception_handler_stage1
                0x00000000c0005358                romExcHandle
 .text          0x00000000c00061e0       0x80 /homes/markli/u-boot-siege-git/u-boot/gcc_depends/n32/libgcc.a(_ffssi2.o)
                0x00000000c00061e0                __ffsdi2
 .text          0x00000000c0006260       0x80 /homes/markli/u-boot-siege-git/u-boot/gcc_depends/n32/libgcc.a(_ctzsi2.o)
                0x00000000c0006260                __ctzdi2
 *(.text.*)
 .text.platform_set_mr
                0x00000000c00062e0       0x5c api/libapi.o
                0x00000000c00062e0                platform_set_mr
 .text.api_init
                0x00000000c000633c      0x1b0 api/libapi.o
                0x00000000c000633c                api_init
 .text.API_display_clear
                0x00000000c00064ec       0x38 api/libapi.o
 .text.API_display_draw_bitmap
                0x00000000c0006524       0x24 api/libapi.o
 .text.API_display_get_info
                0x00000000c0006548       0x1c api/libapi.o
 .text.API_env_enum
                0x00000000c0006564      0x120 api/libapi.o
 .text.API_env_set
                0x00000000c0006684       0x50 api/libapi.o
 .text.API_env_get
                0x00000000c00066d4       0x60 api/libapi.o
 .text.API_dev_write
                0x00000000c0006734       0x88 api/libapi.o
 .text.API_dev_read
                0x00000000c00067bc      0x1a4 api/libapi.o
 .text.API_dev_close
                0x00000000c0006960       0x90 api/libapi.o
 .text.API_dev_open
                0x00000000c00069f0       0x88 api/libapi.o
 .text.API_dev_enum
                0x00000000c0006a78       0xec api/libapi.o
 .text.API_get_timer
                0x00000000c0006b64       0x60 api/libapi.o
 .text.API_udelay
                0x00000000c0006bc4       0x44 api/libapi.o
 .text.API_get_sys_info
                0x00000000c0006c08       0x4c api/libapi.o
 .text.API_reset
                0x00000000c0006c54       0x50 api/libapi.o
 .text.API_puts
                0x00000000c0006ca4       0x44 api/libapi.o
 .text.API_tstc
                0x00000000c0006ce8       0x50 api/libapi.o
 .text.API_putc
                0x00000000c0006d38       0x44 api/libapi.o
 .text.API_getc
                0x00000000c0006d7c       0x50 api/libapi.o
 .text.syscall  0x00000000c0006dcc       0xd0 api/libapi.o
                0x00000000c0006dcc                syscall
 .text.display_get_info
                0x00000000c0006e9c       0x10 api/libapi.o
                0x00000000c0006e9c                display_get_info
 .text.display_draw_bitmap
                0x00000000c0006eac       0x10 api/libapi.o
                0x00000000c0006eac                display_draw_bitmap
 .text.display_clear
                0x00000000c0006ebc        0x8 api/libapi.o
                0x00000000c0006ebc                display_clear
 .text.dev_read_net
                0x00000000c0006ec4       0x1c api/libapi.o
                0x00000000c0006ec4                dev_read_net
 .text.dev_write_net
                0x00000000c0006ee0       0x1c api/libapi.o
                0x00000000c0006ee0                dev_write_net
 .text.dev_enum_net
                0x00000000c0006efc       0x5c api/libapi.o
                0x00000000c0006efc                dev_enum_net
 .text.dev_close_net
                0x00000000c0006f58       0x4c api/libapi.o
                0x00000000c0006f58                dev_close_net
 .text.dev_open_net
                0x00000000c0006fa4       0x58 api/libapi.o
                0x00000000c0006fa4                dev_open_net
 .text.dev_stor_init
                0x00000000c0006ffc       0x80 api/libapi.o
                0x00000000c0006ffc                dev_stor_init
 .text.dev_enum_reset
                0x00000000c000707c       0x38 api/libapi.o
                0x00000000c000707c                dev_enum_reset
 .text.dev_close_stor
                0x00000000c00070b4        0x8 api/libapi.o
                0x00000000c00070b4                dev_close_stor
 .text.dev_stor_is_valid
                0x00000000c00070bc       0xa8 api/libapi.o
 .text.dev_stor_type
                0x00000000c0007164       0xc0 api/libapi.o
 .text.dev_read_stor
                0x00000000c0007224      0x1a8 api/libapi.o
                0x00000000c0007224                dev_read_stor
 .text.dev_open_stor
                0x00000000c00073cc       0x6c api/libapi.o
                0x00000000c00073cc                dev_open_stor
 .text.dev_stor_get
                0x00000000c0007438      0x1c8 api/libapi.o
 .text.dev_enum_storage
                0x00000000c0007600      0x1b0 api/libapi.o
                0x00000000c0007600                dev_enum_storage
 .text.platform_sys_info
                0x00000000c00077b0       0x54 api/libapi.o
                0x00000000c00077b0                platform_sys_info
 .text.CVMX_BOOTMEM_NAMED_GET_NAME
                0x00000000c0007804       0x5c arch/mips/cpu/octeon/cvmx/libcvmx.o
 .text.CVMX_BOOTMEM_NAMED_SET_NAME
                0x00000000c0007860       0x64 arch/mips/cpu/octeon/cvmx/libcvmx.o
                0x00000000c0007860                CVMX_BOOTMEM_NAMED_SET_NAME
 .text.__cvmx_validate_mem_range
                0x00000000c00078c4       0x44 arch/mips/cpu/octeon/cvmx/libcvmx.o
 .text.cvmx_bootmem_lock
                0x00000000c0007908       0x40 arch/mips/cpu/octeon/cvmx/libcvmx.o
                0x00000000c0007908                cvmx_bootmem_lock
 .text.cvmx_bootmem_unlock
                0x00000000c0007948       0x34 arch/mips/cpu/octeon/cvmx/libcvmx.o
                0x00000000c0007948                cvmx_bootmem_unlock
 .text.__cvmx_phys_addr_to_ptr
                0x00000000c000797c       0x1c arch/mips/cpu/octeon/cvmx/libcvmx.o
                0x00000000c000797c                __cvmx_phys_addr_to_ptr
 .text.__cvmx_bootmem_internal_get_desc_ptr
                0x00000000c0007998       0x1c arch/mips/cpu/octeon/cvmx/libcvmx.o
                0x00000000c0007998                __cvmx_bootmem_internal_get_desc_ptr
 .text.__cvmx_bootmem_check_version
                0x00000000c00079b4       0x94 arch/mips/cpu/octeon/cvmx/libcvmx.o
 .text.__cvmx_bootmem_phy_free
                0x00000000c0007a48      0x2ec arch/mips/cpu/octeon/cvmx/libcvmx.o
                0x00000000c0007a48                __cvmx_bootmem_phy_free
 .text.cvmx_bootmem_phy_alloc
                0x00000000c0007d34      0x3b8 arch/mips/cpu/octeon/cvmx/libcvmx.o
                0x00000000c0007d34                cvmx_bootmem_phy_alloc
 .text.cvmx_bootmem_alloc_range
                0x00000000c00080ec       0x94 arch/mips/cpu/octeon/cvmx/libcvmx.o
                0x00000000c00080ec                cvmx_bootmem_alloc_range
 .text.cvmx_bootmem_alloc
                0x00000000c0008180       0x1c arch/mips/cpu/octeon/cvmx/libcvmx.o
                0x00000000c0008180                cvmx_bootmem_alloc
 .text.cvmx_bootmem_phy_alloc_range
                0x00000000c000819c       0x80 arch/mips/cpu/octeon/cvmx/libcvmx.o
                0x00000000c000819c                cvmx_bootmem_phy_alloc_range
 .text.cvmx_bootmem_phy_named_block_print
                0x00000000c000821c      0x1a4 arch/mips/cpu/octeon/cvmx/libcvmx.o
                0x00000000c000821c                cvmx_bootmem_phy_named_block_print
 .text.cvmx_bootmem_phy_named_block_find
                0x00000000c00083c0      0x1fc arch/mips/cpu/octeon/cvmx/libcvmx.o
                0x00000000c00083c0                cvmx_bootmem_phy_named_block_find
 .text.cvmx_bootmem_phy_named_block_alloc
                0x00000000c00085bc      0x1f0 arch/mips/cpu/octeon/cvmx/libcvmx.o
                0x00000000c00085bc                cvmx_bootmem_phy_named_block_alloc
 .text.cvmx_bootmem_phy_named_block_free
                0x00000000c00087ac      0x114 arch/mips/cpu/octeon/cvmx/libcvmx.o
                0x00000000c00087ac                cvmx_bootmem_phy_named_block_free
 .text.cvmx_bootmem_free_named
                0x00000000c00088c0       0x18 arch/mips/cpu/octeon/cvmx/libcvmx.o
                0x00000000c00088c0                cvmx_bootmem_free_named
 .text.__cvmx_bootmem_find_named_block_flags
                0x00000000c00088d8       0x98 arch/mips/cpu/octeon/cvmx/libcvmx.o
                0x00000000c00088d8                __cvmx_bootmem_find_named_block_flags
 .text.cvmx_bootmem_find_named_block
                0x00000000c0008970       0x18 arch/mips/cpu/octeon/cvmx/libcvmx.o
                0x00000000c0008970                cvmx_bootmem_find_named_block
 .text.cvmx_bootmem_alloc_named_range_once
                0x00000000c0008988      0x194 arch/mips/cpu/octeon/cvmx/libcvmx.o
                0x00000000c0008988                cvmx_bootmem_alloc_named_range_once
 .text.cvmx_bootmem_phy_list_print
                0x00000000c0008b1c      0x148 arch/mips/cpu/octeon/cvmx/libcvmx.o
                0x00000000c0008b1c                cvmx_bootmem_phy_list_print
 .text.cvmx_bootmem_reserve_memory
                0x00000000c0008c64      0x1e0 arch/mips/cpu/octeon/cvmx/libcvmx.o
                0x00000000c0008c64                cvmx_bootmem_reserve_memory
 .text.cvmx_bootmem_phy_mem_list_init
                0x00000000c0008e44      0x480 arch/mips/cpu/octeon/cvmx/libcvmx.o
                0x00000000c0008e44                cvmx_bootmem_phy_mem_list_init
 .text.cvmx_boot_vector_get
                0x00000000c00092c4      0x1c8 arch/mips/cpu/octeon/cvmx/libcvmx.o
                0x00000000c00092c4                cvmx_boot_vector_get
 .text.cvmx_clock_get_rate_node
                0x00000000c000948c       0xb8 arch/mips/cpu/octeon/cvmx/libcvmx.o
                0x00000000c000948c                cvmx_clock_get_rate_node
 .text.cvmx_clock_get_rate
                0x00000000c0009544       0x20 arch/mips/cpu/octeon/cvmx/libcvmx.o
                0x00000000c0009544                cvmx_clock_get_rate
 .text.cvmx_cmd_queue_length
                0x00000000c0009564      0x1e4 arch/mips/cpu/octeon/cvmx/libcvmx.o
                0x00000000c0009564                cvmx_cmd_queue_length
 .text.__cvmx_cmd_queue_write_raw
                0x00000000c0009748      0x354 arch/mips/cpu/octeon/cvmx/libcvmx.o
                0x00000000c0009748                __cvmx_cmd_queue_write_raw
 .text.__cvmx_cmd_queue_init_state_ptr
                0x00000000c0009a9c      0x10c arch/mips/cpu/octeon/cvmx/libcvmx.o
                0x00000000c0009a9c                __cvmx_cmd_queue_init_state_ptr
 .text.cvmx_cmd_queue_buffer
                0x00000000c0009ba8       0xd0 arch/mips/cpu/octeon/cvmx/libcvmx.o
                0x00000000c0009ba8                cvmx_cmd_queue_buffer
 .text.cvmx_cmd_queue_initialize
                0x00000000c0009c78      0x5d4 arch/mips/cpu/octeon/cvmx/libcvmx.o
                0x00000000c0009c78                cvmx_cmd_queue_initialize
 .text.cvmx_cmd_queue_shutdown
                0x00000000c000a24c      0x2c8 arch/mips/cpu/octeon/cvmx/libcvmx.o
                0x00000000c000a24c                cvmx_cmd_queue_shutdown
 .text.cvmx_pko_queue_static_config_pknd
                0x00000000c000a514       0x74 arch/mips/cpu/octeon/cvmx/libcvmx.o
                0x00000000c000a514                cvmx_pko_queue_static_config_pknd
 .text.cvmx_rgmii_config_init_from_cvmx_config
                0x00000000c000a588       0x38 arch/mips/cpu/octeon/cvmx/libcvmx.o
                0x00000000c000a588                cvmx_rgmii_config_init_from_cvmx_config
 .text.cvmx_ipd_config_init_from_cvmx_config
                0x00000000c000a5c0      0x144 arch/mips/cpu/octeon/cvmx/libcvmx.o
                0x00000000c000a5c0                cvmx_ipd_config_init_from_cvmx_config
 .text.cvmx_pko_queue_static_config_non_pknd
                0x00000000c000a704       0xa8 arch/mips/cpu/octeon/cvmx/libcvmx.o
                0x00000000c000a704                cvmx_pko_queue_static_config_non_pknd
 .text.cvmx_pko_queue_static_config
                0x00000000c000a7ac       0x88 arch/mips/cpu/octeon/cvmx/libcvmx.o
                0x00000000c000a7ac                cvmx_pko_queue_static_config
 .text.cvmx_user_static_config
                0x00000000c000a834      0x110 arch/mips/cpu/octeon/cvmx/libcvmx.o
                0x00000000c000a834                cvmx_user_static_config
 .text.cvmx_coremask_print
                0x00000000c000a944      0x228 arch/mips/cpu/octeon/cvmx/libcvmx.o
                0x00000000c000a944                cvmx_coremask_print
 .text.cvmx_coremask_str2bmp
                0x00000000c000ab6c      0x2a4 arch/mips/cpu/octeon/cvmx/libcvmx.o
                0x00000000c000ab6c                cvmx_coremask_str2bmp
 .text.cvmx_coremask_barrier_sync
                0x00000000c000ae10      0x2ac arch/mips/cpu/octeon/cvmx/libcvmx.o
                0x00000000c000ae10                cvmx_coremask_barrier_sync
 .text.cvmx_fpa3_get_pool_buf_size
                0x00000000c000b0bc       0xa8 arch/mips/cpu/octeon/cvmx/libcvmx.o
                0x00000000c000b0bc                cvmx_fpa3_get_pool_buf_size
 .text.cvmx_fpa3_aura_cfg
                0x00000000c000b164      0x5d0 arch/mips/cpu/octeon/cvmx/libcvmx.o
 .text.cvmx_fpa3_set_pool_name
                0x00000000c000b734       0xac arch/mips/cpu/octeon/cvmx/libcvmx.o
 .text.cvmx_fpa3_set_aura_name
                0x00000000c000b7e0       0xb4 arch/mips/cpu/octeon/cvmx/libcvmx.o
 .text.cvmx_fpa3_shutdown_aura
                0x00000000c000b894      0x21c arch/mips/cpu/octeon/cvmx/libcvmx.o
                0x00000000c000b894                cvmx_fpa3_shutdown_aura
 .text.cvmx_fpa3_shutdown_pool
                0x00000000c000bab0      0xa10 arch/mips/cpu/octeon/cvmx/libcvmx.o
                0x00000000c000bab0                cvmx_fpa3_shutdown_pool
 .text.cvmx_fpa3_shutdown_aura_and_pool
                0x00000000c000c4c0       0xf0 arch/mips/cpu/octeon/cvmx/libcvmx.o
                0x00000000c000c4c0                cvmx_fpa3_shutdown_aura_and_pool
 .text.cvmx_fpa3_pool_stack_init
                0x00000000c000c5b0      0x438 arch/mips/cpu/octeon/cvmx/libcvmx.o
 .text.cvmx_fpa3_pool_populate
                0x00000000c000c9e8      0x94c arch/mips/cpu/octeon/cvmx/libcvmx.o
 .text.cvmx_fpa3_setup_aura_and_pool
                0x00000000c000d334      0x2c4 arch/mips/cpu/octeon/cvmx/libcvmx.o
                0x00000000c000d334                cvmx_fpa3_setup_aura_and_pool
 .text.cvmx_fpa_global_init_node
                0x00000000c000d5f8      0x390 arch/mips/cpu/octeon/cvmx/libcvmx.o
                0x00000000c000d5f8                cvmx_fpa_global_init_node
 .text.cvmx_fpa_set_name
                0x00000000c000d988      0x208 arch/mips/cpu/octeon/cvmx/libcvmx.o
 .text.cvmx_fpa1_shutdown_pool
                0x00000000c000db90      0x1dc arch/mips/cpu/octeon/cvmx/libcvmx.o
                0x00000000c000db90                cvmx_fpa1_shutdown_pool
 .text.cvmx_fpa_shutdown_pool
                0x00000000c000dd6c      0x174 arch/mips/cpu/octeon/cvmx/libcvmx.o
                0x00000000c000dd6c                cvmx_fpa_shutdown_pool
 .text.cvmx_fpa_get_block_size
                0x00000000c000dee0      0x22c arch/mips/cpu/octeon/cvmx/libcvmx.o
                0x00000000c000dee0                cvmx_fpa_get_block_size
 .text.cvmx_fpa1_setup_pool
                0x00000000c000e10c      0x4f4 arch/mips/cpu/octeon/cvmx/libcvmx.o
                0x00000000c000e10c                cvmx_fpa1_setup_pool
 .text.cvmx_fpa3_set_aura_for_pool
                0x00000000c000e600      0x284 arch/mips/cpu/octeon/cvmx/libcvmx.o
                0x00000000c000e600                cvmx_fpa3_set_aura_for_pool
 .text.cvmx_fpa3_setup_fill_pool
                0x00000000c000e884      0x23c arch/mips/cpu/octeon/cvmx/libcvmx.o
                0x00000000c000e884                cvmx_fpa3_setup_fill_pool
 .text.cvmx_fpa_setup_pool
                0x00000000c000eac0      0x190 arch/mips/cpu/octeon/cvmx/libcvmx.o
                0x00000000c000eac0                cvmx_fpa_setup_pool
 .text.get_fpa1_resource_tag
                0x00000000c000ec50       0x44 arch/mips/cpu/octeon/cvmx/libcvmx.o
 .text.get_fpa3_aura_resource_tag
                0x00000000c000ec94       0x58 arch/mips/cpu/octeon/cvmx/libcvmx.o
 .text.get_fpa3_pool_resource_tag
                0x00000000c000ecec       0x58 arch/mips/cpu/octeon/cvmx/libcvmx.o
 .text.cvmx_fpa1_release_pool
                0x00000000c000ed44       0x60 arch/mips/cpu/octeon/cvmx/libcvmx.o
                0x00000000c000ed44                cvmx_fpa1_release_pool
 .text.cvmx_fpa3_release_aura
                0x00000000c000eda4       0xc4 arch/mips/cpu/octeon/cvmx/libcvmx.o
                0x00000000c000eda4                cvmx_fpa3_release_aura
 .text.cvmx_fpa3_release_pool
                0x00000000c000ee68      0x180 arch/mips/cpu/octeon/cvmx/libcvmx.o
                0x00000000c000ee68                cvmx_fpa3_release_pool
 .text.cvmx_fpa1_reserve_pool
                0x00000000c000efe8      0x100 arch/mips/cpu/octeon/cvmx/libcvmx.o
                0x00000000c000efe8                cvmx_fpa1_reserve_pool
 .text.cvmx_fpa3_reserve_pool
                0x00000000c000f0e8      0x1a8 arch/mips/cpu/octeon/cvmx/libcvmx.o
                0x00000000c000f0e8                cvmx_fpa3_reserve_pool
 .text.cvmx_fpa3_reserve_aura
                0x00000000c000f290      0x234 arch/mips/cpu/octeon/cvmx/libcvmx.o
                0x00000000c000f290                cvmx_fpa3_reserve_aura
 .text.cvmx_fpa_get_max_pools
                0x00000000c000f4c4       0xd8 arch/mips/cpu/octeon/cvmx/libcvmx.o
                0x00000000c000f4c4                cvmx_fpa_get_max_pools
 .text.cvmx_app_id_init
                0x00000000c000f59c        0x8 arch/mips/cpu/octeon/cvmx/libcvmx.o
                0x00000000c000f59c                cvmx_app_id_init
 .text.cvmx_allocate_app_id
                0x00000000c000f5a4       0x5c arch/mips/cpu/octeon/cvmx/libcvmx.o
                0x00000000c000f5a4                cvmx_allocate_app_id
 .text.cvmx_get_app_id
                0x00000000c000f600       0x50 arch/mips/cpu/octeon/cvmx/libcvmx.o
                0x00000000c000f600                cvmx_get_app_id
 .text.__cvmx_global_resources_init
                0x00000000c000f650       0xf8 arch/mips/cpu/octeon/cvmx/libcvmx.o
 .text.cvmx_get_global_resource
                0x00000000c000f748      0x16c arch/mips/cpu/octeon/cvmx/libcvmx.o
                0x00000000c000f748                cvmx_get_global_resource
 .text.cvmx_create_global_resource
                0x00000000c000f8b4      0x294 arch/mips/cpu/octeon/cvmx/libcvmx.o
                0x00000000c000f8b4                cvmx_create_global_resource
 .text.cvmx_create_global_resource_range
                0x00000000c000fb48      0x138 arch/mips/cpu/octeon/cvmx/libcvmx.o
                0x00000000c000fb48                cvmx_create_global_resource_range
 .text.cvmx_reserve_global_resource_range
                0x00000000c000fc80       0xd0 arch/mips/cpu/octeon/cvmx/libcvmx.o
                0x00000000c000fc80                cvmx_reserve_global_resource_range
 .text.cvmx_free_global_resource_range_with_base
                0x00000000c000fd50       0xd0 arch/mips/cpu/octeon/cvmx/libcvmx.o
                0x00000000c000fd50                cvmx_free_global_resource_range_with_base
 .text.cvmx_free_global_resource_range_multiple
                0x00000000c000fe20       0xd0 arch/mips/cpu/octeon/cvmx/libcvmx.o
                0x00000000c000fe20                cvmx_free_global_resource_range_multiple
 .text.cvmx_free_global_resource_range_with_owner
                0x00000000c000fef0       0xc0 arch/mips/cpu/octeon/cvmx/libcvmx.o
                0x00000000c000fef0                cvmx_free_global_resource_range_with_owner
 .text.free_global_resources
                0x00000000c000ffb0      0x184 arch/mips/cpu/octeon/cvmx/libcvmx.o
                0x00000000c000ffb0                free_global_resources
 .text.cvmx_allocate_global_resource_range
                0x00000000c0010134      0x130 arch/mips/cpu/octeon/cvmx/libcvmx.o
                0x00000000c0010134                cvmx_allocate_global_resource_range
 .text.cvmx_resource_alloc_reverse
                0x00000000c0010264      0x114 arch/mips/cpu/octeon/cvmx/libcvmx.o
                0x00000000c0010264                cvmx_resource_alloc_reverse
 .text.cvmx_rgmii_set_back_pressure
                0x00000000c0010378       0x18 arch/mips/cpu/octeon/cvmx/libcvmx.o
                0x00000000c0010378                cvmx_rgmii_set_back_pressure
 .text.cvmx_helper_shutdown_packet_io_local
                0x00000000c0010390        0x8 arch/mips/cpu/octeon/cvmx/libcvmx.o
                0x00000000c0010390                cvmx_helper_shutdown_packet_io_local
 .text.cvmx_helper_mem_free
                0x00000000c0010398       0x4c arch/mips/cpu/octeon/cvmx/libcvmx.o
                0x00000000c0010398                cvmx_helper_mem_free
 .text.cvmx_gmx_set_backpressure_override
                0x00000000c00103e4      0x1e4 arch/mips/cpu/octeon/cvmx/libcvmx.o
                0x00000000c00103e4                cvmx_gmx_set_backpressure_override
 .text.cvmx_helper_get_number_of_interfaces
                0x00000000c00105c8      0x130 arch/mips/cpu/octeon/cvmx/libcvmx.o
                0x00000000c00105c8                cvmx_helper_get_number_of_interfaces
 .text.__cvmx_helper_get_link_info
                0x00000000c00106f8       0xb4 arch/mips/cpu/octeon/cvmx/libcvmx.o
                0x00000000c00106f8                __cvmx_helper_get_link_info
 .text.__cvmx_helper_set_link_info
                0x00000000c00107ac       0xcc arch/mips/cpu/octeon/cvmx/libcvmx.o
                0x00000000c00107ac                __cvmx_helper_set_link_info
 .text.__cvmx_helper_shutdown_interfaces_node
                0x00000000c0010878       0x80 arch/mips/cpu/octeon/cvmx/libcvmx.o
                0x00000000c0010878                __cvmx_helper_shutdown_interfaces_node
 .text.__cvmx_helper_shutdown_interfaces
                0x00000000c00108f8       0x1c arch/mips/cpu/octeon/cvmx/libcvmx.o
                0x00000000c00108f8                __cvmx_helper_shutdown_interfaces
 .text.__cvmx_helper_get_num_ipd_ports
                0x00000000c0010914       0x98 arch/mips/cpu/octeon/cvmx/libcvmx.o
                0x00000000c0010914                __cvmx_helper_get_num_ipd_ports
 .text.cvmx_agl_set_backpressure_override
                0x00000000c00109ac      0x164 arch/mips/cpu/octeon/cvmx/libcvmx.o
                0x00000000c00109ac                cvmx_agl_set_backpressure_override
 .text.cvmx_helper_initialize_packet_io_local
                0x00000000c0010b10       0x7c arch/mips/cpu/octeon/cvmx/libcvmx.o
                0x00000000c0010b10                cvmx_helper_initialize_packet_io_local
 .text.__cvmx_helper_packet_hardware_enable
                0x00000000c0010b8c       0xa4 arch/mips/cpu/octeon/cvmx/libcvmx.o
                0x00000000c0010b8c                __cvmx_helper_packet_hardware_enable
 .text.cvmx_helper_interface_get_mode
                0x00000000c0010c30      0xd84 arch/mips/cpu/octeon/cvmx/libcvmx.o
                0x00000000c0010c30                cvmx_helper_interface_get_mode
 .text.__cvmx_helper_backpressure_is_misaligned
                0x00000000c00119b4      0x39c arch/mips/cpu/octeon/cvmx/libcvmx.o
                0x00000000c00119b4                __cvmx_helper_backpressure_is_misaligned
 .text.cvmx_helper_interface_enumerate
                0x00000000c0011d50       0xb8 arch/mips/cpu/octeon/cvmx/libcvmx.o
                0x00000000c0011d50                cvmx_helper_interface_enumerate
 .text.cvmx_helper_ports_on_interface
                0x00000000c0011e08       0xa0 arch/mips/cpu/octeon/cvmx/libcvmx.o
                0x00000000c0011e08                cvmx_helper_ports_on_interface
 .text.cvmx_helper_link_set
                0x00000000c0011ea8      0x124 arch/mips/cpu/octeon/cvmx/libcvmx.o
                0x00000000c0011ea8                cvmx_helper_link_set
 .text.cvmx_helper_link_get
                0x00000000c0011fcc      0x154 arch/mips/cpu/octeon/cvmx/libcvmx.o
                0x00000000c0011fcc                cvmx_helper_link_get
 .text.cvmx_helper_shutdown_packet_io_global_cn78xx
                0x00000000c0012120      0x8bc arch/mips/cpu/octeon/cvmx/libcvmx.o
                0x00000000c0012120                cvmx_helper_shutdown_packet_io_global_cn78xx
 .text.cvmx_helper_ipd_and_packet_input_enable_node
                0x00000000c00129dc      0x1c0 arch/mips/cpu/octeon/cvmx/libcvmx.o
                0x00000000c00129dc                cvmx_helper_ipd_and_packet_input_enable_node
 .text.__cvmx_helper_early_ports_on_interface
                0x00000000c0012b9c       0xc4 arch/mips/cpu/octeon/cvmx/libcvmx.o
                0x00000000c0012b9c                __cvmx_helper_early_ports_on_interface
 .text.__cvmx_helper_init_interface
                0x00000000c0012c60      0x168 arch/mips/cpu/octeon/cvmx/libcvmx.o
                0x00000000c0012c60                __cvmx_helper_init_interface
 .text.cvmx_helper_interface_probe
                0x00000000c0012dc8      0x1b4 arch/mips/cpu/octeon/cvmx/libcvmx.o
                0x00000000c0012dc8                cvmx_helper_interface_probe
 .text.cvmx_helper_initialize_packet_io_node
                0x00000000c0012f7c      0xa10 arch/mips/cpu/octeon/cvmx/libcvmx.o
                0x00000000c0012f7c                cvmx_helper_initialize_packet_io_node
 .text.cvmx_helper_ipd_and_packet_input_enable
                0x00000000c001398c       0x1c arch/mips/cpu/octeon/cvmx/libcvmx.o
                0x00000000c001398c                cvmx_helper_ipd_and_packet_input_enable
 .text.cvmx_helper_initialize_packet_io_global
                0x00000000c00139a8       0x1c arch/mips/cpu/octeon/cvmx/libcvmx.o
                0x00000000c00139a8                cvmx_helper_initialize_packet_io_global
 .text.cvmx_helper_mem_alloc
                0x00000000c00139c4       0x9c arch/mips/cpu/octeon/cvmx/libcvmx.o
                0x00000000c00139c4                cvmx_helper_mem_alloc
 .text.__cvmx_helper_get_pko_padding
                0x00000000c0013a60       0x98 arch/mips/cpu/octeon/cvmx/libcvmx.o
                0x00000000c0013a60                __cvmx_helper_get_pko_padding
 .text.__cvmx_helper_get_has_fcs
                0x00000000c0013af8       0x54 arch/mips/cpu/octeon/cvmx/libcvmx.o
                0x00000000c0013af8                __cvmx_helper_get_has_fcs
 .text.cvmx_helper_link_autoconf
                0x00000000c0013b4c       0xcc arch/mips/cpu/octeon/cvmx/libcvmx.o
                0x00000000c0013b4c                cvmx_helper_link_autoconf
 .text.cvmx_helper_shutdown_packet_io_global
                0x00000000c0013c18     0x2c0c arch/mips/cpu/octeon/cvmx/libcvmx.o
                0x00000000c0013c18                cvmx_helper_shutdown_packet_io_global
 .text.cvmx_fdt_i2c_get_root_bus
                0x00000000c0016824       0x18 arch/mips/cpu/octeon/cvmx/libcvmx.o
                0x00000000c0016824                cvmx_fdt_i2c_get_root_bus
 .text.cvmx_fdt_node_check_compatible_list
                0x00000000c001683c       0x98 arch/mips/cpu/octeon/cvmx/libcvmx.o
                0x00000000c001683c                cvmx_fdt_node_check_compatible_list
 .text.cvmx_fdt_get_cpu_node
                0x00000000c00168d4       0xf0 arch/mips/cpu/octeon/cvmx/libcvmx.o
                0x00000000c00168d4                cvmx_fdt_get_cpu_node
 .text.cvm_fdt_alloc
                0x00000000c00169c4       0x18 arch/mips/cpu/octeon/cvmx/libcvmx.o
 .text.cvmx_fdt_parse_cs4343_slice
                0x00000000c00169dc      0x3d0 arch/mips/cpu/octeon/cvmx/libcvmx.o
 .text.cvmx_fdt_parse_cs4343
                0x00000000c0016dac      0x27c arch/mips/cpu/octeon/cvmx/libcvmx.o
                0x00000000c0016dac                cvmx_fdt_parse_cs4343
 .text.cvmx_fdt_free_i2c_bus
                0x00000000c0017028       0x60 arch/mips/cpu/octeon/cvmx/libcvmx.o
                0x00000000c0017028                cvmx_fdt_free_i2c_bus
 .text.cvmx_fdt_i2c_reg_read
                0x00000000c0017088       0x68 arch/mips/cpu/octeon/cvmx/libcvmx.o
 .text.cvmx_fdt_i2c_write8
                0x00000000c00170f0       0x6c arch/mips/cpu/octeon/cvmx/libcvmx.o
 .text.cvmx_fdt_i2c_read8
                0x00000000c001715c       0x58 arch/mips/cpu/octeon/cvmx/libcvmx.o
 .text.cvmx_fdt_i2c_reg_write
                0x00000000c00171b4       0x5c arch/mips/cpu/octeon/cvmx/libcvmx.o
 .text.cvmx_fdt_enable_i2c_bus
                0x00000000c0017210      0x1c8 arch/mips/cpu/octeon/cvmx/libcvmx.o
                0x00000000c0017210                cvmx_fdt_enable_i2c_bus
 .text.cvmx_fdt_get_gpio_type
                0x00000000c00173d8      0x138 arch/mips/cpu/octeon/cvmx/libcvmx.o
                0x00000000c00173d8                cvmx_fdt_get_gpio_type
 .text.cvmx_fdt_get_fdt_size
                0x00000000c0017510       0x44 arch/mips/cpu/octeon/cvmx/libcvmx.o
                0x00000000c0017510                cvmx_fdt_get_fdt_size
 .text.cvmx_octeon_i2c_reg_to_bus
                0x00000000c0017554      0x1c8 arch/mips/cpu/octeon/cvmx/libcvmx.o
 .text.cvmx_fdt_get_i2c_bus
                0x00000000c001771c      0x2f0 arch/mips/cpu/octeon/cvmx/libcvmx.o
                0x00000000c001771c                cvmx_fdt_get_i2c_bus
 .text.__cvmx_fdt_parse_avsp5410
                0x00000000c0017a0c      0x3dc arch/mips/cpu/octeon/cvmx/libcvmx.o
                0x00000000c0017a0c                __cvmx_fdt_parse_avsp5410
 .text.cvmx_fdt_gpio_get_info_phandle
                0x00000000c0017de8      0x2cc arch/mips/cpu/octeon/cvmx/libcvmx.o
                0x00000000c0017de8                cvmx_fdt_gpio_get_info_phandle
 .text.cvmx_helper_fdt_parse_sfp_info
                0x00000000c00180b4      0x364 arch/mips/cpu/octeon/cvmx/libcvmx.o
                0x00000000c00180b4                cvmx_helper_fdt_parse_sfp_info
 .text.__cvmx_fdt_parse_vsc7224
                0x00000000c0018418      0x748 arch/mips/cpu/octeon/cvmx/libcvmx.o
                0x00000000c0018418                __cvmx_fdt_parse_vsc7224
 .text.cvmx_fdt_gpio_set
                0x00000000c0018b60      0x95c arch/mips/cpu/octeon/cvmx/libcvmx.o
                0x00000000c0018b60                cvmx_fdt_gpio_set
 .text.cvmx_fdt_gpio_get
                0x00000000c00194bc     0x12d0 arch/mips/cpu/octeon/cvmx/libcvmx.o
                0x00000000c00194bc                cvmx_fdt_gpio_get
 .text.__cvmx_helper_initialize_fpa_pool
                0x00000000c001a78c       0x28 arch/mips/cpu/octeon/cvmx/libcvmx.o
                0x00000000c001a78c                __cvmx_helper_initialize_fpa_pool
 .text.cvmx_helper_shutdown_fpa_pools
                0x00000000c001a7b4      0x394 arch/mips/cpu/octeon/cvmx/libcvmx.o
                0x00000000c001a7b4                cvmx_helper_shutdown_fpa_pools
 .text.cvmx_helper_qlm_jtag_shift
                0x00000000c001ab48      0x14c arch/mips/cpu/octeon/cvmx/libcvmx.o
                0x00000000c001ab48                cvmx_helper_qlm_jtag_shift
 .text.cvmx_helper_qlm_jtag_shift_zeros
                0x00000000c001ac94       0x84 arch/mips/cpu/octeon/cvmx/libcvmx.o
                0x00000000c001ac94                cvmx_helper_qlm_jtag_shift_zeros
 .text.cvmx_helper_qlm_jtag_init
                0x00000000c001ad18      0x134 arch/mips/cpu/octeon/cvmx/libcvmx.o
                0x00000000c001ad18                cvmx_helper_qlm_jtag_init
 .text.cvmx_helper_qlm_jtag_update
                0x00000000c001ae4c      0x11c arch/mips/cpu/octeon/cvmx/libcvmx.o
                0x00000000c001ae4c                cvmx_helper_qlm_jtag_update
 .text.cvmx_helper_qlm_jtag_capture
                0x00000000c001af68      0x11c arch/mips/cpu/octeon/cvmx/libcvmx.o
                0x00000000c001af68                cvmx_helper_qlm_jtag_capture
 .text.__read_l2_tag
                0x00000000c001b084       0x90 arch/mips/cpu/octeon/cvmx/libcvmx.o
 .text.cvmx_l2c_address_to_tad
                0x00000000c001b114      0x11c arch/mips/cpu/octeon/cvmx/libcvmx.o
                0x00000000c001b114                cvmx_l2c_address_to_tad
 .text.cvmx_l2c_set_big_size_node
                0x00000000c001b230      0x3b4 arch/mips/cpu/octeon/cvmx/libcvmx.o
                0x00000000c001b230                cvmx_l2c_set_big_size_node
 .text.cvmx_l2c_set_big_size
                0x00000000c001b5e4       0x20 arch/mips/cpu/octeon/cvmx/libcvmx.o
                0x00000000c001b5e4                cvmx_l2c_set_big_size
 .text.cvmx_l2c_get_num_assoc
                0x00000000c001b604      0x29c arch/mips/cpu/octeon/cvmx/libcvmx.o
                0x00000000c001b604                cvmx_l2c_get_num_assoc
 .text.cvmx_l2c_get_set_bits
                0x00000000c001b8a0      0x198 arch/mips/cpu/octeon/cvmx/libcvmx.o
                0x00000000c001b8a0                cvmx_l2c_get_set_bits
 .text.cvmx_l2c_get_num_sets
                0x00000000c001ba38       0x3c arch/mips/cpu/octeon/cvmx/libcvmx.o
                0x00000000c001ba38                cvmx_l2c_get_num_sets
 .text.cvmx_l2c_flush_line
                0x00000000c001ba74      0x228 arch/mips/cpu/octeon/cvmx/libcvmx.o
                0x00000000c001ba74                cvmx_l2c_flush_line
 .text.cvmx_l2c_address_to_index
                0x00000000c001bc9c      0x274 arch/mips/cpu/octeon/cvmx/libcvmx.o
                0x00000000c001bc9c                cvmx_l2c_address_to_index
 .text.cvmx_l2c_v2_address_to_tag
                0x00000000c001bf10      0x170 arch/mips/cpu/octeon/cvmx/libcvmx.o
                0x00000000c001bf10                cvmx_l2c_v2_address_to_tag
 .text.cvmx_l2c_flush
                0x00000000c001c080      0x13c arch/mips/cpu/octeon/cvmx/libcvmx.o
                0x00000000c001c080                cvmx_l2c_flush
 .text.cvmx_l2c_get_tag_v2
                0x00000000c001c1bc      0x460 arch/mips/cpu/octeon/cvmx/libcvmx.o
                0x00000000c001c1bc                cvmx_l2c_get_tag_v2
 .text.cvmx_l2c_unlock_line
                0x00000000c001c61c      0x254 arch/mips/cpu/octeon/cvmx/libcvmx.o
                0x00000000c001c61c                cvmx_l2c_unlock_line
 .text.cvmx_l2c_unlock_mem_region
                0x00000000c001c870       0x90 arch/mips/cpu/octeon/cvmx/libcvmx.o
                0x00000000c001c870                cvmx_l2c_unlock_mem_region
 .text.cvmx_l2c_lock_line
                0x00000000c001c900      0x4fc arch/mips/cpu/octeon/cvmx/libcvmx.o
                0x00000000c001c900                cvmx_l2c_lock_line
 .text.cvmx_l2c_lock_mem_region
                0x00000000c001cdfc       0x94 arch/mips/cpu/octeon/cvmx/libcvmx.o
                0x00000000c001cdfc                cvmx_l2c_lock_mem_region
 .text.cvmx_l2c_set_hw_way_partition
                0x00000000c001ce90      0x168 arch/mips/cpu/octeon/cvmx/libcvmx.o
                0x00000000c001ce90                cvmx_l2c_set_hw_way_partition
 .text.cvmx_l2c_get_core_way_partition
                0x00000000c001cff8      0x2bc arch/mips/cpu/octeon/cvmx/libcvmx.o
                0x00000000c001cff8                cvmx_l2c_get_core_way_partition
 .text.cvmx_l2c_set_core_way_partition
                0x00000000c001d2b4      0x36c arch/mips/cpu/octeon/cvmx/libcvmx.o
                0x00000000c001d2b4                cvmx_l2c_set_core_way_partition
 .text.cvmx_pcie_get_mem_base_address
                0x00000000c001d620       0x34 arch/mips/cpu/octeon/cvmx/libcvmx.o
                0x00000000c001d620                cvmx_pcie_get_mem_base_address
 .text.__cvmx_pcie_config_pemon
                0x00000000c001d654       0x88 arch/mips/cpu/octeon/cvmx/libcvmx.o
 .text.cvmx_pcie_mem_write32
                0x00000000c001d6dc       0x80 arch/mips/cpu/octeon/cvmx/libcvmx.o
                0x00000000c001d6dc                cvmx_pcie_mem_write32
 .text.cvmx_pcie_cfgx_write_node
                0x00000000c001d75c      0x16c arch/mips/cpu/octeon/cvmx/libcvmx.o
                0x00000000c001d75c                cvmx_pcie_cfgx_write_node
 .text.cvmx_pcie_cfgx_write
                0x00000000c001d8c8       0x28 arch/mips/cpu/octeon/cvmx/libcvmx.o
                0x00000000c001d8c8                cvmx_pcie_cfgx_write
 .text.cvmx_pcie_cfgx_read_node
                0x00000000c001d8f0      0x174 arch/mips/cpu/octeon/cvmx/libcvmx.o
                0x00000000c001d8f0                cvmx_pcie_cfgx_read_node
 .text.cvmx_pcie_cfgx_read
                0x00000000c001da64       0x20 arch/mips/cpu/octeon/cvmx/libcvmx.o
                0x00000000c001da64                cvmx_pcie_cfgx_read
 .text.__cvmx_pcie_build_config_addr
                0x00000000c001da84      0x1c4 arch/mips/cpu/octeon/cvmx/libcvmx.o
 .text.cvmx_pcie_config_write16
                0x00000000c001dc48       0x88 arch/mips/cpu/octeon/cvmx/libcvmx.o
                0x00000000c001dc48                cvmx_pcie_config_write16
 .text.cvmx_pcie_config_write8
                0x00000000c001dcd0       0x78 arch/mips/cpu/octeon/cvmx/libcvmx.o
                0x00000000c001dcd0                cvmx_pcie_config_write8
 .text.__cvmx_pcie_config_read32
                0x00000000c001dd48       0xc0 arch/mips/cpu/octeon/cvmx/libcvmx.o
 .text.cvmx_pcie_config_read32
                0x00000000c001de08       0x94 arch/mips/cpu/octeon/cvmx/libcvmx.o
                0x00000000c001de08                cvmx_pcie_config_read32
 .text.cvmx_pcie_config_read8
                0x00000000c001de9c       0x70 arch/mips/cpu/octeon/cvmx/libcvmx.o
                0x00000000c001de9c                cvmx_pcie_config_read8
 .text.__cvmx_pcie_rc_get_ltssm_state
                0x00000000c001df0c      0x254 arch/mips/cpu/octeon/cvmx/libcvmx.o
 .text.cfg_retries
                0x00000000c001e160       0x84 arch/mips/cpu/octeon/cvmx/libcvmx.o
 .text.__cvmx_pcie_check_pcie_port
                0x00000000c001e1e4       0xec arch/mips/cpu/octeon/cvmx/libcvmx.o
 .text.__cvmx_pcie_sli_config
                0x00000000c001e2d0      0xd9c arch/mips/cpu/octeon/cvmx/libcvmx.o
 .text.__cvmx_pcie_rc_initialize_link_gen2
                0x00000000c001f06c      0x598 arch/mips/cpu/octeon/cvmx/libcvmx.o
 .text.cvmx_pcie_config_read32_retry
                0x00000000c001f604      0x100 arch/mips/cpu/octeon/cvmx/libcvmx.o
 .text.__cvmx_pcie_get_qlm
                0x00000000c001f704      0x37c arch/mips/cpu/octeon/cvmx/libcvmx.o
 .text.__cvmx_pcie_rc_initialize_config_space
                0x00000000c001fa80     0x2a60 arch/mips/cpu/octeon/cvmx/libcvmx.o
 .text.__cvmx_pcie_rc_initialize_gen2_v3
                0x00000000c00224e0     0x251c arch/mips/cpu/octeon/cvmx/libcvmx.o
 .text.cvmx_pcie_rc_initialize
                0x00000000c00249fc      0xdc4 arch/mips/cpu/octeon/cvmx/libcvmx.o
                0x00000000c00249fc                cvmx_pcie_rc_initialize
 .text.__cvmx_pcie_rc_initialize_gen1
                0x00000000c00257c0     0x12dc arch/mips/cpu/octeon/cvmx/libcvmx.o
 .text.cvmx_pcie_config_write32
                0x00000000c0026a9c       0xe0 arch/mips/cpu/octeon/cvmx/libcvmx.o
                0x00000000c0026a9c                cvmx_pcie_config_write32
 .text.cvmx_pcie_config_read16
                0x00000000c0026b7c       0x80 arch/mips/cpu/octeon/cvmx/libcvmx.o
                0x00000000c0026b7c                cvmx_pcie_config_read16
 .text.cvmx_pcie_mem_read32
                0x00000000c0026bfc       0x74 arch/mips/cpu/octeon/cvmx/libcvmx.o
                0x00000000c0026bfc                cvmx_pcie_mem_read32
 .text.cvmx_range_memory_size
                0x00000000c0026c70        0xc arch/mips/cpu/octeon/cvmx/libcvmx.o
                0x00000000c0026c70                cvmx_range_memory_size
 .text.cvmx_range_alloc_ordered
                0x00000000c0026c7c      0x194 arch/mips/cpu/octeon/cvmx/libcvmx.o
                0x00000000c0026c7c                cvmx_range_alloc_ordered
 .text.cvmx_range_alloc
                0x00000000c0026e10       0x18 arch/mips/cpu/octeon/cvmx/libcvmx.o
                0x00000000c0026e10                cvmx_range_alloc
 .text.__cvmx_range_is_allocated
                0x00000000c0026e28       0xb0 arch/mips/cpu/octeon/cvmx/libcvmx.o
                0x00000000c0026e28                __cvmx_range_is_allocated
 .text.cvmx_range_init
                0x00000000c0026ed8       0x40 arch/mips/cpu/octeon/cvmx/libcvmx.o
                0x00000000c0026ed8                cvmx_range_init
 .text.cvmx_range_free_mutiple
                0x00000000c0026f18       0xa4 arch/mips/cpu/octeon/cvmx/libcvmx.o
                0x00000000c0026f18                cvmx_range_free_mutiple
 .text.cvmx_range_reserve
                0x00000000c0026fbc       0xec arch/mips/cpu/octeon/cvmx/libcvmx.o
                0x00000000c0026fbc                cvmx_range_reserve
 .text.cvmx_range_free_with_owner
                0x00000000c00270a8       0x4c arch/mips/cpu/octeon/cvmx/libcvmx.o
                0x00000000c00270a8                cvmx_range_free_with_owner
 .text.cvmx_range_free_with_base
                0x00000000c00270f4       0xa0 arch/mips/cpu/octeon/cvmx/libcvmx.o
                0x00000000c00270f4                cvmx_range_free_with_base
 .text.cvmx_sysinfo_get
                0x00000000c0027194       0x18 arch/mips/cpu/octeon/cvmx/libcvmx.o
                0x00000000c0027194                cvmx_sysinfo_get
 .text.cvmx_sysinfo_minimal_initialize
                0x00000000c00271ac       0xa0 arch/mips/cpu/octeon/cvmx/libcvmx.o
                0x00000000c00271ac                cvmx_sysinfo_minimal_initialize
 .text.__i2c_twsi_bus
                0x00000000c002724c       0x68 arch/mips/cpu/octeon/cvmx/libcvmx.o
 .text.i2c_bus_to_node
                0x00000000c00272b4       0x6c arch/mips/cpu/octeon/cvmx/libcvmx.o
 .text.cvmx_twsix_unblock
                0x00000000c0027320      0xb74 arch/mips/cpu/octeon/cvmx/libcvmx.o
 .text.cvmx_twsix_read
                0x00000000c0027e94      0x728 arch/mips/cpu/octeon/cvmx/libcvmx.o
                0x00000000c0027e94                cvmx_twsix_read
 .text.cvmx_twsix_read_ia
                0x00000000c00285bc      0x890 arch/mips/cpu/octeon/cvmx/libcvmx.o
                0x00000000c00285bc                cvmx_twsix_read_ia
 .text.cvmx_twsix_write_ia
                0x00000000c0028e4c      0x76c arch/mips/cpu/octeon/cvmx/libcvmx.o
                0x00000000c0028e4c                cvmx_twsix_write_ia
 .text.cvmx_warn
                0x00000000c00295b8       0x90 arch/mips/cpu/octeon/cvmx/libcvmx.o
                0x00000000c00295b8                cvmx_warn
 .text.__octeon_is_model_runtime__
                0x00000000c0029648      0x214 arch/mips/cpu/octeon/cvmx/libcvmx.o
                0x00000000c0029648                __octeon_is_model_runtime__
 .text.cvmx_phys_to_ptr
                0x00000000c002985c       0x80 arch/mips/cpu/octeon/cvmx/libcvmx.o
                0x00000000c002985c                cvmx_phys_to_ptr
 .text.cvmx_ptr_to_phys2
                0x00000000c00298dc       0xcc arch/mips/cpu/octeon/cvmx/libcvmx.o
                0x00000000c00298dc                cvmx_ptr_to_phys2
 .text.cvmx_ptr_to_phys
                0x00000000c00299a8       0x54 arch/mips/cpu/octeon/cvmx/libcvmx.o
                0x00000000c00299a8                cvmx_ptr_to_phys
 .text.cvmx_wait_usec
                0x00000000c00299fc       0x88 arch/mips/cpu/octeon/cvmx/libcvmx.o
                0x00000000c00299fc                cvmx_wait_usec
 .text.octeon_model_get_string_buffer
                0x00000000c0029a84     0x15a0 arch/mips/cpu/octeon/cvmx/libcvmx.o
                0x00000000c0029a84                octeon_model_get_string_buffer
 .text.cvmx_qlm_get_mode_cn78xx
                0x00000000c002b024      0x410 arch/mips/cpu/octeon/cvmx/libcvmx.o
                0x00000000c002b024                cvmx_qlm_get_mode_cn78xx
 .text.__cvmx_helper_errata_qlm_disable_2nd_order_cdr
                0x00000000c002b434      0x11c arch/mips/cpu/octeon/cvmx/libcvmx.o
                0x00000000c002b434                __cvmx_helper_errata_qlm_disable_2nd_order_cdr
 .text.cvmx_qlm_measure_clock_cn7xxx
                0x00000000c002b550      0x1a8 arch/mips/cpu/octeon/cvmx/libcvmx.o
                0x00000000c002b550                cvmx_qlm_measure_clock_cn7xxx
 .text.__cvmx_qlm_get_mode_cnf75xx
                0x00000000c002b6f8      0x308 arch/mips/cpu/octeon/cvmx/libcvmx.o
                0x00000000c002b6f8                __cvmx_qlm_get_mode_cnf75xx
 .text.cvmx_qlm_get_gbaud_mhz_node
                0x00000000c002ba00      0x298 arch/mips/cpu/octeon/cvmx/libcvmx.o
                0x00000000c002ba00                cvmx_qlm_get_gbaud_mhz_node
 .text.cvmx_qlm_jtag_get_field
                0x00000000c002bc98       0xc8 arch/mips/cpu/octeon/cvmx/libcvmx.o
                0x00000000c002bc98                cvmx_qlm_jtag_get_field
 .text.cvmx_qlm_jtag_get_length
                0x00000000c002bd60       0x68 arch/mips/cpu/octeon/cvmx/libcvmx.o
                0x00000000c002bd60                cvmx_qlm_jtag_get_length
 .text.cvmx_qlm_get_lanes
                0x00000000c002bdc8       0xbc arch/mips/cpu/octeon/cvmx/libcvmx.o
                0x00000000c002bdc8                cvmx_qlm_get_lanes
 .text.cvmx_qlm_mux_interface
                0x00000000c002be84      0x120 arch/mips/cpu/octeon/cvmx/libcvmx.o
                0x00000000c002be84                cvmx_qlm_mux_interface
 .text.__cvmx_qlm_get_mode_cn73xx
                0x00000000c002bfa4      0x72c arch/mips/cpu/octeon/cvmx/libcvmx.o
                0x00000000c002bfa4                __cvmx_qlm_get_mode_cn73xx
 .text.cvmx_qlm_get_num
                0x00000000c002c6d0       0xfc arch/mips/cpu/octeon/cvmx/libcvmx.o
                0x00000000c002c6d0                cvmx_qlm_get_num
 .text.cvmx_qlm_measure_clock
                0x00000000c002c7cc      0x278 arch/mips/cpu/octeon/cvmx/libcvmx.o
                0x00000000c002c7cc                cvmx_qlm_measure_clock
 .text.cvmx_qlm_get_gbaud_mhz
                0x00000000c002ca44      0x47c arch/mips/cpu/octeon/cvmx/libcvmx.o
                0x00000000c002ca44                cvmx_qlm_get_gbaud_mhz
 .text.__cvmx_qlm_get_mode_cn70xx
                0x00000000c002cec0      0x300 arch/mips/cpu/octeon/cvmx/libcvmx.o
 .text.cvmx_qlm_get_mode
                0x00000000c002d1c0      0x410 arch/mips/cpu/octeon/cvmx/libcvmx.o
                0x00000000c002d1c0                cvmx_qlm_get_mode
 .text.cvmx_qlm_get_dlm_mode
                0x00000000c002d5d0      0x1b0 arch/mips/cpu/octeon/cvmx/libcvmx.o
                0x00000000c002d5d0                cvmx_qlm_get_dlm_mode
 .text.__cvmx_qlm_lookup_field
                0x00000000c002d780       0xa0 arch/mips/cpu/octeon/cvmx/libcvmx.o
 .text.cvmx_qlm_jtag_set
                0x00000000c002d820      0x2ac arch/mips/cpu/octeon/cvmx/libcvmx.o
                0x00000000c002d820                cvmx_qlm_jtag_set
 .text.__cvmx_qlm_pcie_idle_dac_tweak
                0x00000000c002dacc       0xc8 arch/mips/cpu/octeon/cvmx/libcvmx.o
                0x00000000c002dacc                __cvmx_qlm_pcie_idle_dac_tweak
 .text.cvmx_qlm_jtag_get
                0x00000000c002db94      0x108 arch/mips/cpu/octeon/cvmx/libcvmx.o
                0x00000000c002db94                cvmx_qlm_jtag_get
 .text.__cvmx_qlm_speed_tweak
                0x00000000c002dc9c      0x60c arch/mips/cpu/octeon/cvmx/libcvmx.o
                0x00000000c002dc9c                __cvmx_qlm_speed_tweak
 .text.cvmx_qlm_init
                0x00000000c002e2a8      0x314 arch/mips/cpu/octeon/cvmx/libcvmx.o
                0x00000000c002e2a8                cvmx_qlm_init
 .text.cvmx_qlm_gser_errata_25992
                0x00000000c002e5bc      0x194 arch/mips/cpu/octeon/cvmx/libcvmx.o
                0x00000000c002e5bc                cvmx_qlm_gser_errata_25992
 .text.cvmx_qlm_lmac
                0x00000000c002e750      0x280 arch/mips/cpu/octeon/cvmx/libcvmx.o
                0x00000000c002e750                cvmx_qlm_lmac
 .text.__cvmx_qlm_set_mult
                0x00000000c002e9d0      0x24c arch/mips/cpu/octeon/cvmx/libcvmx.o
                0x00000000c002e9d0                __cvmx_qlm_set_mult
 .text.cvmx_qlm_interface
                0x00000000c002ec1c      0x120 arch/mips/cpu/octeon/cvmx/libcvmx.o
                0x00000000c002ec1c                cvmx_qlm_interface
 .text.__cvmx_qlm_rx_equalization
                0x00000000c002ed3c      0x774 arch/mips/cpu/octeon/cvmx/libcvmx.o
                0x00000000c002ed3c                __cvmx_qlm_rx_equalization
 .text.cvmx_qlm_gser_errata_27882
                0x00000000c002f4b0      0x310 arch/mips/cpu/octeon/cvmx/libcvmx.o
                0x00000000c002f4b0                cvmx_qlm_gser_errata_27882
 .text.cvmx_agl_link_get
                0x00000000c002f7c0       0xc8 arch/mips/cpu/octeon/cvmx/libcvmx.o
                0x00000000c002f7c0                cvmx_agl_link_get
 .text.cvmx_agl_enable
                0x00000000c002f888       0xfc arch/mips/cpu/octeon/cvmx/libcvmx.o
                0x00000000c002f888                cvmx_agl_enable
 .text.cvmx_agl_link_set
                0x00000000c002f984      0x540 arch/mips/cpu/octeon/cvmx/libcvmx.o
                0x00000000c002f984                cvmx_agl_link_set
 .text.cvmx_fau_init
                0x00000000c002fec4       0x78 arch/mips/cpu/octeon/cvmx/libcvmx.o
                0x00000000c002fec4                cvmx_fau_init
 .text.cvmx_fau_bootmem_init
                0x00000000c002ff3c       0x1c arch/mips/cpu/octeon/cvmx/libcvmx.o
                0x00000000c002ff3c                cvmx_fau_bootmem_init
 .text.__cvmx_helper_agl_link_get
                0x00000000c002ff58       0x34 arch/mips/cpu/octeon/cvmx/libcvmx.o
                0x00000000c002ff58                __cvmx_helper_agl_link_get
 .text.cvmx_helper_agl_get_port
                0x00000000c002ff8c       0x54 arch/mips/cpu/octeon/cvmx/libcvmx.o
                0x00000000c002ff8c                cvmx_helper_agl_get_port
 .text.__cvmx_helper_agl_link_set
                0x00000000c002ffe0       0x54 arch/mips/cpu/octeon/cvmx/libcvmx.o
                0x00000000c002ffe0                __cvmx_helper_agl_link_set
 .text.__cvmx_helper_agl_enumerate
                0x00000000c0030034       0x68 arch/mips/cpu/octeon/cvmx/libcvmx.o
                0x00000000c0030034                __cvmx_helper_agl_enumerate
 .text.__cvmx_helper_agl_enable
                0x00000000c003009c      0x12c arch/mips/cpu/octeon/cvmx/libcvmx.o
                0x00000000c003009c                __cvmx_helper_agl_enable
 .text.__cvmx_helper_agl_probe
                0x00000000c00301c8      0x300 arch/mips/cpu/octeon/cvmx/libcvmx.o
                0x00000000c00301c8                __cvmx_helper_agl_probe
 .text.__cvmx_helper_bgx_enumerate
                0x00000000c00304c8       0x68 arch/mips/cpu/octeon/cvmx/libcvmx.o
                0x00000000c00304c8                __cvmx_helper_bgx_enumerate
 .text.__cvmx_helper_bgx_probe
                0x00000000c0030530       0x18 arch/mips/cpu/octeon/cvmx/libcvmx.o
                0x00000000c0030530                __cvmx_helper_bgx_probe
 .text.__cvmx_helper_bgx_fifo_size
                0x00000000c0030548       0xe0 arch/mips/cpu/octeon/cvmx/libcvmx.o
                0x00000000c0030548                __cvmx_helper_bgx_fifo_size
 .text.__cvmx_helper_bgx_sgmii_hardware_init_link_speed
                0x00000000c0030628      0x5a8 arch/mips/cpu/octeon/cvmx/libcvmx.o
 .text.__cvmx_bgx_restart_training
                0x00000000c0030bd0      0x290 arch/mips/cpu/octeon/cvmx/libcvmx.o
 .text.__cvmx_helper_bgx_rgmii_speed
                0x00000000c0030e60      0x394 arch/mips/cpu/octeon/cvmx/libcvmx.o
 .text.__cvmx_helper_bgx_interface_enable_delay
                0x00000000c00311f4       0xb0 arch/mips/cpu/octeon/cvmx/libcvmx.o
 .text.__cvmx_helper_bgx_sgmii_hardware_init_link
                0x00000000c00312a4      0x43c arch/mips/cpu/octeon/cvmx/libcvmx.o
 .text.__cvmx_helper_bgx_sgmii_link_set
                0x00000000c00316e0      0x5b0 arch/mips/cpu/octeon/cvmx/libcvmx.o
                0x00000000c00316e0                __cvmx_helper_bgx_sgmii_link_set
 .text.__cvmx_helper_bgx_sgmii_link_get
                0x00000000c0031c90      0x294 arch/mips/cpu/octeon/cvmx/libcvmx.o
                0x00000000c0031c90                __cvmx_helper_bgx_sgmii_link_get
 .text.__cvmx_helper_bgx_sgmii_configure_loopback
                0x00000000c0031f24      0x2b8 arch/mips/cpu/octeon/cvmx/libcvmx.o
                0x00000000c0031f24                __cvmx_helper_bgx_sgmii_configure_loopback
 .text.cvmx_helper_bgx_get_mode
                0x00000000c00321dc      0x1d0 arch/mips/cpu/octeon/cvmx/libcvmx.o
                0x00000000c00321dc                cvmx_helper_bgx_get_mode
 .text.__cvmx_helper_bgx_xaui_link_init
                0x00000000c00323ac     0x106c arch/mips/cpu/octeon/cvmx/libcvmx.o
 .text.__cvmx_helper_bgx_xaui_configure_loopback
                0x00000000c0033418      0x238 arch/mips/cpu/octeon/cvmx/libcvmx.o
                0x00000000c0033418                __cvmx_helper_bgx_xaui_configure_loopback
 .text.__cvmx_helper_bgx_mixed_configure_loopback
                0x00000000c0033650       0xb8 arch/mips/cpu/octeon/cvmx/libcvmx.o
                0x00000000c0033650                __cvmx_helper_bgx_mixed_configure_loopback
 .text.__cvmx_helper_bgx_xaui_link_set
                0x00000000c0033708      0x1d0 arch/mips/cpu/octeon/cvmx/libcvmx.o
                0x00000000c0033708                __cvmx_helper_bgx_xaui_link_set
 .text.__cvmx_helper_bgx_mixed_link_set
                0x00000000c00338d8       0xa4 arch/mips/cpu/octeon/cvmx/libcvmx.o
                0x00000000c00338d8                __cvmx_helper_bgx_mixed_link_set
 .text.__cvmx_helper_bgx_xaui_link_get
                0x00000000c003397c      0x320 arch/mips/cpu/octeon/cvmx/libcvmx.o
                0x00000000c003397c                __cvmx_helper_bgx_xaui_link_get
 .text.__cvmx_helper_bgx_mixed_link_get
                0x00000000c0033c9c       0x90 arch/mips/cpu/octeon/cvmx/libcvmx.o
                0x00000000c0033c9c                __cvmx_helper_bgx_mixed_link_get
 .text.__cvmx_helper_bgx_port_init
                0x00000000c0033d2c     0x13f4 arch/mips/cpu/octeon/cvmx/libcvmx.o
                0x00000000c0033d2c                __cvmx_helper_bgx_port_init
 .text.__cvmx_helper_bgx_sgmii_enable
                0x00000000c0035120      0x140 arch/mips/cpu/octeon/cvmx/libcvmx.o
                0x00000000c0035120                __cvmx_helper_bgx_sgmii_enable
 .text.__cvmx_helper_bgx_xaui_enable
                0x00000000c0035260      0x198 arch/mips/cpu/octeon/cvmx/libcvmx.o
                0x00000000c0035260                __cvmx_helper_bgx_xaui_enable
 .text.__cvmx_helper_bgx_mixed_enable
                0x00000000c00353f8      0x200 arch/mips/cpu/octeon/cvmx/libcvmx.o
                0x00000000c00353f8                __cvmx_helper_bgx_mixed_enable
 .text.cvmx_helper_bgx_tx_options
                0x00000000c00355f8      0x284 arch/mips/cpu/octeon/cvmx/libcvmx.o
                0x00000000c00355f8                cvmx_helper_bgx_tx_options
 .text.cvmx_helper_bgx_set_mac
                0x00000000c003587c      0x34c arch/mips/cpu/octeon/cvmx/libcvmx.o
                0x00000000c003587c                cvmx_helper_bgx_set_mac
 .text.cvmx_bgx_set_backpressure_override
                0x00000000c0035bc8      0x150 arch/mips/cpu/octeon/cvmx/libcvmx.o
                0x00000000c0035bc8                cvmx_bgx_set_backpressure_override
 .text.__cvmx_helper_bgx_xaui_config_pfc
                0x00000000c0035d18       0x9c arch/mips/cpu/octeon/cvmx/libcvmx.o
                0x00000000c0035d18                __cvmx_helper_bgx_xaui_config_pfc
 .text.cvmx_helper_bgx_rx_adr_ctl
                0x00000000c0035db4       0x94 arch/mips/cpu/octeon/cvmx/libcvmx.o
                0x00000000c0035db4                cvmx_helper_bgx_rx_adr_ctl
 .text.cvmx_helper_bgx_shutdown_port
                0x00000000c0035e48      0x6bc arch/mips/cpu/octeon/cvmx/libcvmx.o
                0x00000000c0035e48                cvmx_helper_bgx_shutdown_port
 .text.__cvmx_bgx_reg_addr_to_xiface
                0x00000000c0036504       0xa4 arch/mips/cpu/octeon/cvmx/libcvmx.o
 .text.__get_broadcom_phy_link_state
                0x00000000c00365a8      0x8f0 arch/mips/cpu/octeon/cvmx/libcvmx.o
 .text.__get_marvell_phy_link_state
                0x00000000c0036e98     0x1a04 arch/mips/cpu/octeon/cvmx/libcvmx.o
 .text.__get_generic_8023_c45_phy_link_state
                0x00000000c003889c     0x2948 arch/mips/cpu/octeon/cvmx/libcvmx.o
 .text.__cvmx_get_cortina_phy_link_state
                0x00000000c003b1e4     0x88e4 arch/mips/cpu/octeon/cvmx/libcvmx.o
 .text.__get_inband_link_state
                0x00000000c0043ac8       0xec arch/mips/cpu/octeon/cvmx/libcvmx.o
 .text.cvmx_retry_i2c_write
                0x00000000c0043bb4       0xc8 arch/mips/cpu/octeon/cvmx/libcvmx.o
 .text.__set_twsi_mux
                0x00000000c0043c7c       0xe0 arch/mips/cpu/octeon/cvmx/libcvmx.o
 .text.__switch_mdio_mux
                0x00000000c0043d5c      0x8e4 arch/mips/cpu/octeon/cvmx/libcvmx.o
 .text.__cvmx_update_link_led
                0x00000000c0044640       0xd0 arch/mips/cpu/octeon/cvmx/libcvmx.o
                0x00000000c0044640                __cvmx_update_link_led
 .text.cvmx_cs4343_set_slice_mode
                0x00000000c0044710    0x17788 arch/mips/cpu/octeon/cvmx/libcvmx.o
 .text.__mix_eth_node
                0x00000000c005be98       0xc4 arch/mips/cpu/octeon/cvmx/libcvmx.o
                0x00000000c005be98                __mix_eth_node
 .text.__cvmx_helper_parse_bgx_rgmii_dt
                0x00000000c005bf5c      0x2c4 arch/mips/cpu/octeon/cvmx/libcvmx.o
                0x00000000c005bf5c                __cvmx_helper_parse_bgx_rgmii_dt
 .text.__alloc_leds
                0x00000000c005c220       0xac arch/mips/cpu/octeon/cvmx/libcvmx.o
 .text.__get_led_gpio
                0x00000000c005c2cc      0x1c0 arch/mips/cpu/octeon/cvmx/libcvmx.o
 .text.__cvmx_helper_parse_gpio_leds
                0x00000000c005c48c      0x558 arch/mips/cpu/octeon/cvmx/libcvmx.o
                0x00000000c005c48c                __cvmx_helper_parse_gpio_leds
 .text.cvmx_helper_phy_register_mod_abs_changed
                0x00000000c005c9e4      0x168 arch/mips/cpu/octeon/cvmx/libcvmx.o
                0x00000000c005c9e4                cvmx_helper_phy_register_mod_abs_changed
 .text.cvmx_sfp_cs4343_mod_abs_changed
                0x00000000c005cb4c      0x178 arch/mips/cpu/octeon/cvmx/libcvmx.o
                0x00000000c005cb4c                cvmx_sfp_cs4343_mod_abs_changed
 .text.cvmx_sfp_avsp5410_mod_abs_changed
                0x00000000c005ccc4       0x9c arch/mips/cpu/octeon/cvmx/libcvmx.o
                0x00000000c005ccc4                cvmx_sfp_avsp5410_mod_abs_changed
 .text.cvmx_read_vsc7224_reg
                0x00000000c005cd60       0x8c arch/mips/cpu/octeon/cvmx/libcvmx.o
 .text.cvmx_write_vsc7224_reg
                0x00000000c005cdec       0x8c arch/mips/cpu/octeon/cvmx/libcvmx.o
 .text.cvmx_sfp_vsc7224_mod_abs_changed
                0x00000000c005ce78      0x294 arch/mips/cpu/octeon/cvmx/libcvmx.o
                0x00000000c005ce78                cvmx_sfp_vsc7224_mod_abs_changed
 .text.__pip_eth_node
                0x00000000c005d10c      0x198 arch/mips/cpu/octeon/cvmx/libcvmx.o
                0x00000000c005d10c                __pip_eth_node
 .text.__get_phy_info_from_dt
                0x00000000c005d2a4      0xb40 arch/mips/cpu/octeon/cvmx/libcvmx.o
                0x00000000c005d2a4                __get_phy_info_from_dt
 .text.cvmx_helper_board_get_mii_address
                0x00000000c005dde4      0x514 arch/mips/cpu/octeon/cvmx/libcvmx.o
                0x00000000c005dde4                cvmx_helper_board_get_mii_address
 .text.cvmx_helper_board_get_phy_info
                0x00000000c005e2f8       0x40 arch/mips/cpu/octeon/cvmx/libcvmx.o
                0x00000000c005e2f8                cvmx_helper_board_get_phy_info
 .text.__cvmx_helper_parse_bgx_dt
                0x00000000c005e338      0x638 arch/mips/cpu/octeon/cvmx/libcvmx.o
                0x00000000c005e338                __cvmx_helper_parse_bgx_dt
 .text.__cvmx_helper_78xx_parse_phy
                0x00000000c005e970      0x6b0 arch/mips/cpu/octeon/cvmx/libcvmx.o
                0x00000000c005e970                __cvmx_helper_78xx_parse_phy
 .text.__cvmx_helper_board_link_get_from_dt
                0x00000000c005f020      0x420 arch/mips/cpu/octeon/cvmx/libcvmx.o
                0x00000000c005f020                __cvmx_helper_board_link_get_from_dt
 .text.__cvmx_helper_board_link_get
                0x00000000c005f440      0x3dc arch/mips/cpu/octeon/cvmx/libcvmx.o
                0x00000000c005f440                __cvmx_helper_board_link_get
 .text.__cvmx_helper_board_hardware_enable
                0x00000000c005f81c      0xc88 arch/mips/cpu/octeon/cvmx/libcvmx.o
                0x00000000c005f81c                __cvmx_helper_board_hardware_enable
 .text.cvmx_update_rx_activity_led
                0x00000000c00604a4      0xbd4 arch/mips/cpu/octeon/cvmx/libcvmx.o
                0x00000000c00604a4                cvmx_update_rx_activity_led
 .text.__get_vitesse_vsc8490_phy_link_state
                0x00000000c0061078      0xe88 arch/mips/cpu/octeon/cvmx/libcvmx.o
 .text.__get_aquantia_phy_link_state
                0x00000000c0061f00     0x29a8 arch/mips/cpu/octeon/cvmx/libcvmx.o
 .text.__cvmx_get_generic_8023_c22_phy_link_state
                0x00000000c00648a8     0x3080 arch/mips/cpu/octeon/cvmx/libcvmx.o
 .text.__cvmx_get_qualcomm_s17_phy_link_state
                0x00000000c0067928     0x10b0 arch/mips/cpu/octeon/cvmx/libcvmx.o
 .text.__cvmx_helper_board_get_port_from_dt
                0x00000000c00689d8      0x534 arch/mips/cpu/octeon/cvmx/libcvmx.o
                0x00000000c00689d8                __cvmx_helper_board_get_port_from_dt
 .text.__cvmx_helper_cfg_pko_queue_num
                0x00000000c0068f0c       0x20 arch/mips/cpu/octeon/cvmx/libcvmx.o
                0x00000000c0068f0c                __cvmx_helper_cfg_pko_queue_num
 .text.__cvmx_helper_cfg_pko_queue_base
                0x00000000c0068f2c       0x20 arch/mips/cpu/octeon/cvmx/libcvmx.o
                0x00000000c0068f2c                __cvmx_helper_cfg_pko_queue_base
 .text.__cvmx_helper_cfg_pko_max_queue
                0x00000000c0068f4c       0x18 arch/mips/cpu/octeon/cvmx/libcvmx.o
                0x00000000c0068f4c                __cvmx_helper_cfg_pko_max_queue
 .text.__cvmx_helper_cfg_pko_max_engine
                0x00000000c0068f64       0x18 arch/mips/cpu/octeon/cvmx/libcvmx.o
                0x00000000c0068f64                __cvmx_helper_cfg_pko_max_engine
 .text.cvmx_helper_cfg_opt_get
                0x00000000c0068f7c       0x24 arch/mips/cpu/octeon/cvmx/libcvmx.o
                0x00000000c0068f7c                cvmx_helper_cfg_opt_get
 .text.__cvmx_helper_cfg_pko_port_interface
                0x00000000c0068fa0       0x28 arch/mips/cpu/octeon/cvmx/libcvmx.o
                0x00000000c0068fa0                __cvmx_helper_cfg_pko_port_interface
 .text.__cvmx_helper_cfg_pko_port_index
                0x00000000c0068fc8       0x28 arch/mips/cpu/octeon/cvmx/libcvmx.o
                0x00000000c0068fc8                __cvmx_helper_cfg_pko_port_index
 .text.__cvmx_helper_cfg_pko_port_eid
                0x00000000c0068ff0       0x28 arch/mips/cpu/octeon/cvmx/libcvmx.o
                0x00000000c0068ff0                __cvmx_helper_cfg_pko_port_eid
 .text.cvmx_helper_cfg_get_xiface_index_by_fdt_node_offset
                0x00000000c0069018       0xc0 arch/mips/cpu/octeon/cvmx/libcvmx.o
                0x00000000c0069018                cvmx_helper_cfg_get_xiface_index_by_fdt_node_offset
 .text.cvmx_init_port_cfg
                0x00000000c00690d8      0x18c arch/mips/cpu/octeon/cvmx/libcvmx.o
 .text.cvmx_helper_cfg_set_sfp_info
                0x00000000c0069264       0xd8 arch/mips/cpu/octeon/cvmx/libcvmx.o
                0x00000000c0069264                cvmx_helper_cfg_set_sfp_info
 .text.cvmx_helper_get_port_fdt_node_offset
                0x00000000c006933c       0xd0 arch/mips/cpu/octeon/cvmx/libcvmx.o
                0x00000000c006933c                cvmx_helper_get_port_fdt_node_offset
 .text.cvmx_helper_set_port_valid
                0x00000000c006940c       0xf4 arch/mips/cpu/octeon/cvmx/libcvmx.o
                0x00000000c006940c                cvmx_helper_set_port_valid
 .text.__cvmx_helper_cfg_pko_port_num
                0x00000000c0069500       0xd0 arch/mips/cpu/octeon/cvmx/libcvmx.o
                0x00000000c0069500                __cvmx_helper_cfg_pko_port_num
 .text.__cvmx_helper_cfg_pko_port_base
                0x00000000c00695d0       0xd0 arch/mips/cpu/octeon/cvmx/libcvmx.o
                0x00000000c00695d0                __cvmx_helper_cfg_pko_port_base
 .text.__cvmx_helper_cfg_init_ipd2pko_cache
                0x00000000c00696a0      0x150 arch/mips/cpu/octeon/cvmx/libcvmx.o
                0x00000000c00696a0                __cvmx_helper_cfg_init_ipd2pko_cache
 .text.cvmx_helper_cfg_init_pko_port_map
                0x00000000c00697f0      0x2e8 arch/mips/cpu/octeon/cvmx/libcvmx.o
                0x00000000c00697f0                cvmx_helper_cfg_init_pko_port_map
 .text.__cvmx_helper_cfg_pknd
                0x00000000c0069ad8      0x134 arch/mips/cpu/octeon/cvmx/libcvmx.o
                0x00000000c0069ad8                __cvmx_helper_cfg_pknd
 .text.init_cvmx_pko_que_range
                0x00000000c0069c0c       0xb0 arch/mips/cpu/octeon/cvmx/libcvmx.o
                0x00000000c0069c0c                init_cvmx_pko_que_range
 .text.cvmx_pko_queue_free
                0x00000000c0069cbc       0xd8 arch/mips/cpu/octeon/cvmx/libcvmx.o
                0x00000000c0069cbc                cvmx_pko_queue_free
 .text.cvmx_pko_queue_free_all
                0x00000000c0069d94       0x7c arch/mips/cpu/octeon/cvmx/libcvmx.o
                0x00000000c0069d94                cvmx_pko_queue_free_all
 .text.cvmx_pko_queue_alloc
                0x00000000c0069e10      0x144 arch/mips/cpu/octeon/cvmx/libcvmx.o
 .text.cvmx_pko_alloc_iport_and_queues
                0x00000000c0069f54      0x1c0 arch/mips/cpu/octeon/cvmx/libcvmx.o
                0x00000000c0069f54                cvmx_pko_alloc_iport_and_queues
 .text.cvmx_pko_queue_grp_alloc
                0x00000000c006a114       0xc8 arch/mips/cpu/octeon/cvmx/libcvmx.o
                0x00000000c006a114                cvmx_pko_queue_grp_alloc
 .text.cvmx_pko_queue_init_from_cvmx_config_non_pknd
                0x00000000c006a1dc      0x128 arch/mips/cpu/octeon/cvmx/libcvmx.o
                0x00000000c006a1dc                cvmx_pko_queue_init_from_cvmx_config_non_pknd
 .text.__cvmx_helper_cfg_bpid
                0x00000000c006a304      0x134 arch/mips/cpu/octeon/cvmx/libcvmx.o
                0x00000000c006a304                __cvmx_helper_cfg_bpid
 .text.cvmx_helper_is_port_valid
                0x00000000c006a438       0xd0 arch/mips/cpu/octeon/cvmx/libcvmx.o
                0x00000000c006a438                cvmx_helper_is_port_valid
 .text.cvmx_helper_set_mac_phy_mode
                0x00000000c006a508       0xf0 arch/mips/cpu/octeon/cvmx/libcvmx.o
                0x00000000c006a508                cvmx_helper_set_mac_phy_mode
 .text.cvmx_helper_get_mac_phy_mode
                0x00000000c006a5f8       0xd0 arch/mips/cpu/octeon/cvmx/libcvmx.o
                0x00000000c006a5f8                cvmx_helper_get_mac_phy_mode
 .text.cvmx_helper_set_1000x_mode
                0x00000000c006a6c8       0xf0 arch/mips/cpu/octeon/cvmx/libcvmx.o
                0x00000000c006a6c8                cvmx_helper_set_1000x_mode
 .text.cvmx_helper_get_1000x_mode
                0x00000000c006a7b8       0xd0 arch/mips/cpu/octeon/cvmx/libcvmx.o
                0x00000000c006a7b8                cvmx_helper_get_1000x_mode
 .text.cvmx_helper_set_agl_rx_clock_delay_bypass
                0x00000000c006a888       0xf0 arch/mips/cpu/octeon/cvmx/libcvmx.o
                0x00000000c006a888                cvmx_helper_set_agl_rx_clock_delay_bypass
 .text.cvmx_helper_get_agl_rx_clock_delay_bypass
                0x00000000c006a978       0xd0 arch/mips/cpu/octeon/cvmx/libcvmx.o
                0x00000000c006a978                cvmx_helper_get_agl_rx_clock_delay_bypass
 .text.cvmx_helper_set_agl_rx_clock_skew
                0x00000000c006aa48       0xd8 arch/mips/cpu/octeon/cvmx/libcvmx.o
                0x00000000c006aa48                cvmx_helper_set_agl_rx_clock_skew
 .text.cvmx_helper_get_agl_rx_clock_skew
                0x00000000c006ab20       0xcc arch/mips/cpu/octeon/cvmx/libcvmx.o
                0x00000000c006ab20                cvmx_helper_get_agl_rx_clock_skew
 .text.cvmx_helper_set_agl_refclk_sel
                0x00000000c006abec       0xd8 arch/mips/cpu/octeon/cvmx/libcvmx.o
                0x00000000c006abec                cvmx_helper_set_agl_refclk_sel
 .text.cvmx_helper_get_agl_refclk_sel
                0x00000000c006acc4       0xcc arch/mips/cpu/octeon/cvmx/libcvmx.o
                0x00000000c006acc4                cvmx_helper_get_agl_refclk_sel
 .text.cvmx_helper_set_port_force_link_up
                0x00000000c006ad90       0xf0 arch/mips/cpu/octeon/cvmx/libcvmx.o
                0x00000000c006ad90                cvmx_helper_set_port_force_link_up
 .text.cvmx_helper_get_port_force_link_up
                0x00000000c006ae80       0xd0 arch/mips/cpu/octeon/cvmx/libcvmx.o
                0x00000000c006ae80                cvmx_helper_get_port_force_link_up
 .text.cvmx_helper_set_port_phy_present
                0x00000000c006af50       0xf0 arch/mips/cpu/octeon/cvmx/libcvmx.o
                0x00000000c006af50                cvmx_helper_set_port_phy_present
 .text.cvmx_helper_get_port_phy_present
                0x00000000c006b040       0xd0 arch/mips/cpu/octeon/cvmx/libcvmx.o
                0x00000000c006b040                cvmx_helper_get_port_phy_present
 .text.cvmx_helper_set_port_fdt_node_offset
                0x00000000c006b110       0xdc arch/mips/cpu/octeon/cvmx/libcvmx.o
                0x00000000c006b110                cvmx_helper_set_port_fdt_node_offset
 .text.cvmx_helper_set_phy_fdt_node_offset
                0x00000000c006b1ec       0xdc arch/mips/cpu/octeon/cvmx/libcvmx.o
                0x00000000c006b1ec                cvmx_helper_set_phy_fdt_node_offset
 .text.cvmx_helper_get_phy_fdt_node_offset
                0x00000000c006b2c8       0xd0 arch/mips/cpu/octeon/cvmx/libcvmx.o
                0x00000000c006b2c8                cvmx_helper_get_phy_fdt_node_offset
 .text.cvmx_helper_set_port_autonegotiation
                0x00000000c006b398       0xf4 arch/mips/cpu/octeon/cvmx/libcvmx.o
                0x00000000c006b398                cvmx_helper_set_port_autonegotiation
 .text.cvmx_helper_get_port_autonegotiation
                0x00000000c006b48c       0xd4 arch/mips/cpu/octeon/cvmx/libcvmx.o
                0x00000000c006b48c                cvmx_helper_get_port_autonegotiation
 .text.cvmx_helper_get_port_fec
                0x00000000c006b560       0xd0 arch/mips/cpu/octeon/cvmx/libcvmx.o
                0x00000000c006b560                cvmx_helper_get_port_fec
 .text.cvmx_helper_set_port_phy_info
                0x00000000c006b630       0xdc arch/mips/cpu/octeon/cvmx/libcvmx.o
                0x00000000c006b630                cvmx_helper_set_port_phy_info
 .text.cvmx_helper_get_port_phy_info
                0x00000000c006b70c       0xd0 arch/mips/cpu/octeon/cvmx/libcvmx.o
                0x00000000c006b70c                cvmx_helper_get_port_phy_info
 .text.cvmx_helper_get_port_phy_leds
                0x00000000c006b7dc       0xcc arch/mips/cpu/octeon/cvmx/libcvmx.o
                0x00000000c006b7dc                cvmx_helper_get_port_phy_leds
 .text.cvmx_helper_set_port_phy_leds
                0x00000000c006b8a8       0xd8 arch/mips/cpu/octeon/cvmx/libcvmx.o
                0x00000000c006b8a8                cvmx_helper_set_port_phy_leds
 .text.cvmx_helper_cfg_set_rgmii_tx_clk_delay
                0x00000000c006b980      0x100 arch/mips/cpu/octeon/cvmx/libcvmx.o
                0x00000000c006b980                cvmx_helper_cfg_set_rgmii_tx_clk_delay
 .text.cvmx_helper_cfg_get_rgmii_tx_clk_delay
                0x00000000c006ba80       0xf4 arch/mips/cpu/octeon/cvmx/libcvmx.o
                0x00000000c006ba80                cvmx_helper_cfg_get_rgmii_tx_clk_delay
 .text.cvmx_helper_cfg_get_vsc7224_chan_info
                0x00000000c006bb74       0xcc arch/mips/cpu/octeon/cvmx/libcvmx.o
                0x00000000c006bb74                cvmx_helper_cfg_get_vsc7224_chan_info
 .text.cvmx_helper_cfg_set_vsc7224_chan_info
                0x00000000c006bc40       0xd8 arch/mips/cpu/octeon/cvmx/libcvmx.o
                0x00000000c006bc40                cvmx_helper_cfg_set_vsc7224_chan_info
 .text.cvmx_helper_cfg_get_avsp5410_info
                0x00000000c006bd18       0xcc arch/mips/cpu/octeon/cvmx/libcvmx.o
                0x00000000c006bd18                cvmx_helper_cfg_get_avsp5410_info
 .text.cvmx_helper_cfg_set_avsp5410_info
                0x00000000c006bde4       0xd8 arch/mips/cpu/octeon/cvmx/libcvmx.o
                0x00000000c006bde4                cvmx_helper_cfg_set_avsp5410_info
 .text.cvmx_helper_cfg_get_sfp_info
                0x00000000c006bebc       0xcc arch/mips/cpu/octeon/cvmx/libcvmx.o
                0x00000000c006bebc                cvmx_helper_cfg_get_sfp_info
 .text.__cvmx_helper_init_port_valid
                0x00000000c006bf88      0x420 arch/mips/cpu/octeon/cvmx/libcvmx.o
                0x00000000c006bf88                __cvmx_helper_init_port_valid
 .text.cvmx_helper_cfg_ipd2pko_port_base
                0x00000000c006c3a8       0xc4 arch/mips/cpu/octeon/cvmx/libcvmx.o
                0x00000000c006c3a8                cvmx_helper_cfg_ipd2pko_port_base
 .text.__cvmx_helper_init_port_config_data
                0x00000000c006c46c      0x7c0 arch/mips/cpu/octeon/cvmx/libcvmx.o
                0x00000000c006c46c                __cvmx_helper_init_port_config_data
 .text.__cvmx_helper_errata_fix_ipd_ptr_alignment
                0x00000000c006cc2c      0x96c arch/mips/cpu/octeon/cvmx/libcvmx.o
                0x00000000c006cc2c                __cvmx_helper_errata_fix_ipd_ptr_alignment
 .text.__cvmx_helper_ilk_link_set
                0x00000000c006d598        0x8 arch/mips/cpu/octeon/cvmx/libcvmx.o
                0x00000000c006d598                __cvmx_helper_ilk_link_set
 .text.__cvmx_ilk_clear_cal
                0x00000000c006d5a0      0x250 arch/mips/cpu/octeon/cvmx/libcvmx.o
                0x00000000c006d5a0                __cvmx_ilk_clear_cal
 .text.__cvmx_helper_ilk_enumerate
                0x00000000c006d7f0       0xa8 arch/mips/cpu/octeon/cvmx/libcvmx.o
                0x00000000c006d7f0                __cvmx_helper_ilk_enumerate
 .text.__cvmx_helper_ilk_enable
                0x00000000c006d898       0x18 arch/mips/cpu/octeon/cvmx/libcvmx.o
                0x00000000c006d898                __cvmx_helper_ilk_enable
 .text.__cvmx_helper_ilk_link_get
                0x00000000c006d8b0      0x60c arch/mips/cpu/octeon/cvmx/libcvmx.o
                0x00000000c006d8b0                __cvmx_helper_ilk_link_get
 .text.__cvmx_helper_ilk_probe
                0x00000000c006debc      0x148 arch/mips/cpu/octeon/cvmx/libcvmx.o
                0x00000000c006debc                __cvmx_helper_ilk_probe
 .text.cvmx_helper_fcs_op
                0x00000000c006e004      0x238 arch/mips/cpu/octeon/cvmx/libcvmx.o
 .text.__cvmx_helper_ipd_setup_fpa_pools
                0x00000000c006e23c       0x90 arch/mips/cpu/octeon/cvmx/libcvmx.o
                0x00000000c006e23c                __cvmx_helper_ipd_setup_fpa_pools
 .text.__cvmx_helper_ipd_global_setup
                0x00000000c006e2cc       0x78 arch/mips/cpu/octeon/cvmx/libcvmx.o
                0x00000000c006e2cc                __cvmx_helper_ipd_global_setup
 .text.__cvmx_helper_ipd_setup_interface
                0x00000000c006e344     0x1dbc arch/mips/cpu/octeon/cvmx/libcvmx.o
                0x00000000c006e344                __cvmx_helper_ipd_setup_interface
 .text.__cvmx_helper_loop_enumerate
                0x00000000c0070100       0x64 arch/mips/cpu/octeon/cvmx/libcvmx.o
                0x00000000c0070100                __cvmx_helper_loop_enumerate
 .text.__cvmx_helper_loop_probe
                0x00000000c0070164       0x18 arch/mips/cpu/octeon/cvmx/libcvmx.o
                0x00000000c0070164                __cvmx_helper_loop_probe
 .text.__cvmx_helper_loop_enable
                0x00000000c007017c      0x4b4 arch/mips/cpu/octeon/cvmx/libcvmx.o
                0x00000000c007017c                __cvmx_helper_loop_enable
 .text.__cvmx_helper_npi_probe
                0x00000000c0070630       0xe8 arch/mips/cpu/octeon/cvmx/libcvmx.o
                0x00000000c0070630                __cvmx_helper_npi_probe
 .text.__cvmx_helper_npi_enable
                0x00000000c0070718      0x320 arch/mips/cpu/octeon/cvmx/libcvmx.o
                0x00000000c0070718                __cvmx_helper_npi_enable
 .text.cvmx_helper_pki_set_dflt_pool
                0x00000000c0070a38       0x38 arch/mips/cpu/octeon/cvmx/libcvmx.o
                0x00000000c0070a38                cvmx_helper_pki_set_dflt_pool
 .text.cvmx_helper_pki_set_dflt_aura
                0x00000000c0070a70       0x30 arch/mips/cpu/octeon/cvmx/libcvmx.o
                0x00000000c0070a70                cvmx_helper_pki_set_dflt_aura
 .text.__cvmx_helper_pki_set_dflt_ltype_map
                0x00000000c0070aa0      0x464 arch/mips/cpu/octeon/cvmx/libcvmx.o
                0x00000000c0070aa0                __cvmx_helper_pki_set_dflt_ltype_map
 .text.__cvmx_helper_pki_install_dflt_vlan
                0x00000000c0070f04      0x2c0 arch/mips/cpu/octeon/cvmx/libcvmx.o
                0x00000000c0070f04                __cvmx_helper_pki_install_dflt_vlan
 .text.__cvmx_helper_pki_port_setup
                0x00000000c00711c4      0x1b8 arch/mips/cpu/octeon/cvmx/libcvmx.o
                0x00000000c00711c4                __cvmx_helper_pki_port_setup
 .text.cvmx_pki_get_port_config
                0x00000000c007137c       0xc4 arch/mips/cpu/octeon/cvmx/libcvmx.o
                0x00000000c007137c                cvmx_pki_get_port_config
 .text.cvmx_helper_pki_set_qpg_entry
                0x00000000c0071440       0xe0 arch/mips/cpu/octeon/cvmx/libcvmx.o
                0x00000000c0071440                cvmx_helper_pki_set_qpg_entry
 .text.cvmx_helper_pki_enable
                0x00000000c0071520      0x184 arch/mips/cpu/octeon/cvmx/libcvmx.o
                0x00000000c0071520                cvmx_helper_pki_enable
 .text.__cvmx_helper_pki_global_setup
                0x00000000c00716a4      0x3f8 arch/mips/cpu/octeon/cvmx/libcvmx.o
                0x00000000c00716a4                __cvmx_helper_pki_global_setup
 .text.cvmx_pki_set_port_config
                0x00000000c0071a9c       0xe4 arch/mips/cpu/octeon/cvmx/libcvmx.o
                0x00000000c0071a9c                cvmx_pki_set_port_config
 .text.cvmx_helper_pki_set_fcs_op
                0x00000000c0071b80      0x1c8 arch/mips/cpu/octeon/cvmx/libcvmx.o
                0x00000000c0071b80                cvmx_helper_pki_set_fcs_op
 .text.cvmx_helper_pki_shutdown
                0x00000000c0071d48      0x4b8 arch/mips/cpu/octeon/cvmx/libcvmx.o
                0x00000000c0071d48                cvmx_helper_pki_shutdown
 .text.cvmx_pko_set_cmd_que_pool_config
                0x00000000c0072200       0x28 arch/mips/cpu/octeon/cvmx/libcvmx.o
                0x00000000c0072200                cvmx_pko_set_cmd_que_pool_config
 .text.cvmx_fpa_get_pko_pool
                0x00000000c0072228       0x18 arch/mips/cpu/octeon/cvmx/libcvmx.o
                0x00000000c0072228                cvmx_fpa_get_pko_pool
 .text.cvmx_fpa_get_pko_pool_block_size
                0x00000000c0072240       0x18 arch/mips/cpu/octeon/cvmx/libcvmx.o
                0x00000000c0072240                cvmx_fpa_get_pko_pool_block_size
 .text.cvmx_helper_wait_pko_queue_drain
                0x00000000c0072258       0xc4 arch/mips/cpu/octeon/cvmx/libcvmx.o
 .text.__cvmx_helper_pko_drain
                0x00000000c007231c      0x1f8 arch/mips/cpu/octeon/cvmx/libcvmx.o
                0x00000000c007231c                __cvmx_helper_pko_drain
 .text.__cvmx_helper_interface_setup_pko
                0x00000000c0072514      0x150 arch/mips/cpu/octeon/cvmx/libcvmx.o
                0x00000000c0072514                __cvmx_helper_interface_setup_pko
 .text.cvmx_helper_pko_init
                0x00000000c0072664      0x1bc arch/mips/cpu/octeon/cvmx/libcvmx.o
                0x00000000c0072664                cvmx_helper_pko_init
 .text.cvmx_helper_pko3_shut_interface
                0x00000000c0072820      0x484 arch/mips/cpu/octeon/cvmx/libcvmx.o
                0x00000000c0072820                cvmx_helper_pko3_shut_interface
 .text.cvmx_helper_pko3_shutdown
                0x00000000c0072ca4       0x80 arch/mips/cpu/octeon/cvmx/libcvmx.o
                0x00000000c0072ca4                cvmx_helper_pko3_shutdown
 .text.__cvmx_helper_pko3_init_global
                0x00000000c0072d24      0x798 arch/mips/cpu/octeon/cvmx/libcvmx.o
                0x00000000c0072d24                __cvmx_helper_pko3_init_global
 .text.cvmx_helper_pko3_init_global
                0x00000000c00734bc      0x338 arch/mips/cpu/octeon/cvmx/libcvmx.o
                0x00000000c00734bc                cvmx_helper_pko3_init_global
 .text.__cvmx_pko3_config_gen_interface
                0x00000000c00737f4      0x848 arch/mips/cpu/octeon/cvmx/libcvmx.o
                0x00000000c00737f4                __cvmx_pko3_config_gen_interface
 .text.__cvmx_pko3_config_chan_interface
                0x00000000c007403c      0x930 arch/mips/cpu/octeon/cvmx/libcvmx.o
 .text.__cvmx_pko3_helper_dqs_activate
                0x00000000c007496c      0x1f0 arch/mips/cpu/octeon/cvmx/libcvmx.o
                0x00000000c007496c                __cvmx_pko3_helper_dqs_activate
 .text.cvmx_helper_pko3_init_interface
                0x00000000c0074b5c      0xefc arch/mips/cpu/octeon/cvmx/libcvmx.o
                0x00000000c0074b5c                cvmx_helper_pko3_init_interface
 .text.__cvmx_helper_rgmii_link_get
                0x00000000c0075a58       0xbc arch/mips/cpu/octeon/cvmx/libcvmx.o
                0x00000000c0075a58                __cvmx_helper_rgmii_link_get
 .text.__cvmx_helper_gmii_link_get
                0x00000000c0075b14       0x6c arch/mips/cpu/octeon/cvmx/libcvmx.o
                0x00000000c0075b14                __cvmx_helper_gmii_link_get
 .text.cvmx_helper_rgmii_internal_loopback
                0x00000000c0075b80      0x57c arch/mips/cpu/octeon/cvmx/libcvmx.o
                0x00000000c0075b80                cvmx_helper_rgmii_internal_loopback
 .text.__cvmx_helper_rgmii_enable
                0x00000000c00760fc      0xd54 arch/mips/cpu/octeon/cvmx/libcvmx.o
                0x00000000c00760fc                __cvmx_helper_rgmii_enable
 .text.__cvmx_helper_rgmii_configure_loopback
                0x00000000c0076e50      0x6f8 arch/mips/cpu/octeon/cvmx/libcvmx.o
                0x00000000c0076e50                __cvmx_helper_rgmii_configure_loopback
 .text.__cvmx_helper_rgmii_probe
                0x00000000c0077548      0x210 arch/mips/cpu/octeon/cvmx/libcvmx.o
                0x00000000c0077548                __cvmx_helper_rgmii_probe
 .text.__cvmx_helper_rgmii_link_set
                0x00000000c0077758     0x1198 arch/mips/cpu/octeon/cvmx/libcvmx.o
                0x00000000c0077758                __cvmx_helper_rgmii_link_set
 .text.cvmx_sfp_register_check_mod_abs
                0x00000000c00788f0       0x1c arch/mips/cpu/octeon/cvmx/libcvmx.o
                0x00000000c00788f0                cvmx_sfp_register_check_mod_abs
 .text.cvmx_sfp_register_mod_abs_changed
                0x00000000c007890c       0x18 arch/mips/cpu/octeon/cvmx/libcvmx.o
                0x00000000c007890c                cvmx_sfp_register_mod_abs_changed
 .text.cvmx_sfp_check_mod_abs
                0x00000000c0078924       0xbc arch/mips/cpu/octeon/cvmx/libcvmx.o
                0x00000000c0078924                cvmx_sfp_check_mod_abs
 .text.cvmx_qsfp_select
                0x00000000c00789e0       0x38 arch/mips/cpu/octeon/cvmx/libcvmx.o
 .text.cvmx_sfp_read_i2c_eeprom
                0x00000000c0078a18      0xbc8 arch/mips/cpu/octeon/cvmx/libcvmx.o
                0x00000000c0078a18                cvmx_sfp_read_i2c_eeprom
 .text.__cvmx_helper_need_g15618
                0x00000000c00795e0       0x88 arch/mips/cpu/octeon/cvmx/libcvmx.o
 .text.__cvmx_helper_sgmii_hardware_init_link
                0x00000000c0079668      0x75c arch/mips/cpu/octeon/cvmx/libcvmx.o
 .text.__cvmx_helper_sgmii_link_set
                0x00000000c0079dc4      0xfa4 arch/mips/cpu/octeon/cvmx/libcvmx.o
                0x00000000c0079dc4                __cvmx_helper_sgmii_link_set
 .text.__cvmx_helper_sgmii_enumerate
                0x00000000c007ad68       0x98 arch/mips/cpu/octeon/cvmx/libcvmx.o
                0x00000000c007ad68                __cvmx_helper_sgmii_enumerate
 .text.__cvmx_helper_sgmii_link_get
                0x00000000c007ae00      0x424 arch/mips/cpu/octeon/cvmx/libcvmx.o
                0x00000000c007ae00                __cvmx_helper_sgmii_link_get
 .text.__cvmx_helper_sgmii_enable
                0x00000000c007b224     0x15cc arch/mips/cpu/octeon/cvmx/libcvmx.o
                0x00000000c007b224                __cvmx_helper_sgmii_enable
 .text.__cvmx_helper_sgmii_configure_loopback
                0x00000000c007c7f0      0x314 arch/mips/cpu/octeon/cvmx/libcvmx.o
                0x00000000c007c7f0                __cvmx_helper_sgmii_configure_loopback
 .text.__cvmx_helper_sgmii_probe
                0x00000000c007cb04      0x22c arch/mips/cpu/octeon/cvmx/libcvmx.o
                0x00000000c007cb04                __cvmx_helper_sgmii_probe
 .text.__cvmx_helper_spi_link_set
                0x00000000c007cd30        0x8 arch/mips/cpu/octeon/cvmx/libcvmx.o
                0x00000000c007cd30                __cvmx_helper_spi_link_set
 .text.__cvmx_helper_spi_enumerate
                0x00000000c007cd38       0x64 arch/mips/cpu/octeon/cvmx/libcvmx.o
                0x00000000c007cd38                __cvmx_helper_spi_enumerate
 .text.__cvmx_helper_spi_link_get
                0x00000000c007cd9c      0x130 arch/mips/cpu/octeon/cvmx/libcvmx.o
                0x00000000c007cd9c                __cvmx_helper_spi_link_get
 .text.__cvmx_helper_spi_enable
                0x00000000c007cecc      0x118 arch/mips/cpu/octeon/cvmx/libcvmx.o
                0x00000000c007cecc                __cvmx_helper_spi_enable
 .text.__cvmx_helper_spi_probe
                0x00000000c007cfe4       0xb4 arch/mips/cpu/octeon/cvmx/libcvmx.o
                0x00000000c007cfe4                __cvmx_helper_spi_probe
 .text.__cvmx_helper_srio_link_set
                0x00000000c007d098        0x8 arch/mips/cpu/octeon/cvmx/libcvmx.o
                0x00000000c007d098                __cvmx_helper_srio_link_set
 .text.__cvmx_helper_srio_port
                0x00000000c007d0a0       0xf4 arch/mips/cpu/octeon/cvmx/libcvmx.o
                0x00000000c007d0a0                __cvmx_helper_srio_port
 .text.__cvmx_helper_srio_link_get
                0x00000000c007d194      0x2e4 arch/mips/cpu/octeon/cvmx/libcvmx.o
                0x00000000c007d194                __cvmx_helper_srio_link_get
 .text.__cvmx_helper_srio_probe
                0x00000000c007d478      0x154 arch/mips/cpu/octeon/cvmx/libcvmx.o
                0x00000000c007d478                __cvmx_helper_srio_probe
 .text.__cvmx_helper_srio_enable
                0x00000000c007d5cc      0x7ac arch/mips/cpu/octeon/cvmx/libcvmx.o
                0x00000000c007d5cc                __cvmx_helper_srio_enable
 .text.cvmx_helper_interface_mode_to_string
                0x00000000c007dd78      0x130 arch/mips/cpu/octeon/cvmx/libcvmx.o
                0x00000000c007dd78                cvmx_helper_interface_mode_to_string
 .text.cvmx_helper_get_interface_num
                0x00000000c007dea8      0x25c arch/mips/cpu/octeon/cvmx/libcvmx.o
                0x00000000c007dea8                cvmx_helper_get_interface_num
 .text.cvmx_helper_get_interface_index_num
                0x00000000c007e104      0x218 arch/mips/cpu/octeon/cvmx/libcvmx.o
                0x00000000c007e104                cvmx_helper_get_interface_index_num
 .text.cvmx_helper_get_bpid
                0x00000000c007e31c       0xc4 arch/mips/cpu/octeon/cvmx/libcvmx.o
                0x00000000c007e31c                cvmx_helper_get_bpid
 .text.cvmx_helper_get_pknd
                0x00000000c007e3e0       0xc4 arch/mips/cpu/octeon/cvmx/libcvmx.o
                0x00000000c007e3e0                cvmx_helper_get_pknd
 .text.cvmx_helper_get_pko_port
                0x00000000c007e4a4       0x18 arch/mips/cpu/octeon/cvmx/libcvmx.o
                0x00000000c007e4a4                cvmx_helper_get_pko_port
 .text.cvmx_packet_short_ptr_calculate
                0x00000000c007e4bc      0x370 arch/mips/cpu/octeon/cvmx/libcvmx.o
 .text.cvmx_wqe_get_packet_ptr
                0x00000000c007e82c      0x3b0 arch/mips/cpu/octeon/cvmx/libcvmx.o
                0x00000000c007e82c                cvmx_wqe_get_packet_ptr
 .text.__cvmx_helper_setup_gmx
                0x00000000c007ebdc      0x9e8 arch/mips/cpu/octeon/cvmx/libcvmx.o
                0x00000000c007ebdc                __cvmx_helper_setup_gmx
 .text.cvmx_helper_get_ipd_port
                0x00000000c007f5c4      0x290 arch/mips/cpu/octeon/cvmx/libcvmx.o
                0x00000000c007f5c4                cvmx_helper_get_ipd_port
 .text.cvmx_helper_free_packet_data
                0x00000000c007f854      0x5fc arch/mips/cpu/octeon/cvmx/libcvmx.o
                0x00000000c007f854                cvmx_helper_free_packet_data
 .text.cvmx_wqe_free
                0x00000000c007fe50      0x278 arch/mips/cpu/octeon/cvmx/libcvmx.o
                0x00000000c007fe50                cvmx_wqe_free
 .text.__cvmx_helper_xaui_link_init
                0x00000000c00800c8     0x1688 arch/mips/cpu/octeon/cvmx/libcvmx.o
                0x00000000c00800c8                __cvmx_helper_xaui_link_init
 .text.__cvmx_helper_xaui_enumerate
                0x00000000c0081750       0xd4 arch/mips/cpu/octeon/cvmx/libcvmx.o
                0x00000000c0081750                __cvmx_helper_xaui_enumerate
 .text.__cvmx_helper_xaui_enable
                0x00000000c0081824      0x53c arch/mips/cpu/octeon/cvmx/libcvmx.o
                0x00000000c0081824                __cvmx_helper_xaui_enable
 .text.__cvmx_helper_xaui_link_get
                0x00000000c0081d60      0x574 arch/mips/cpu/octeon/cvmx/libcvmx.o
                0x00000000c0081d60                __cvmx_helper_xaui_link_get
 .text.__cvmx_helper_xaui_link_set
                0x00000000c00822d4      0x134 arch/mips/cpu/octeon/cvmx/libcvmx.o
                0x00000000c00822d4                __cvmx_helper_xaui_link_set
 .text.__cvmx_helper_xaui_configure_loopback
                0x00000000c0082408      0x240 arch/mips/cpu/octeon/cvmx/libcvmx.o
                0x00000000c0082408                __cvmx_helper_xaui_configure_loopback
 .text.__cvmx_helper_xaui_probe
                0x00000000c0082648      0x37c arch/mips/cpu/octeon/cvmx/libcvmx.o
                0x00000000c0082648                __cvmx_helper_xaui_probe
 .text.cvmx_ilk_use_la_mode
                0x00000000c00829c4       0x84 arch/mips/cpu/octeon/cvmx/libcvmx.o
                0x00000000c00829c4                cvmx_ilk_use_la_mode
 .text.cvmx_ilk_get_intf_ena
                0x00000000c0082a48       0xb0 arch/mips/cpu/octeon/cvmx/libcvmx.o
                0x00000000c0082a48                cvmx_ilk_get_intf_ena
 .text.cvmx_ilk_start_interface
                0x00000000c0082af8      0x8a0 arch/mips/cpu/octeon/cvmx/libcvmx.o
                0x00000000c0082af8                cvmx_ilk_start_interface
 .text.cvmx_ilk_enable
                0x00000000c0083398      0x298 arch/mips/cpu/octeon/cvmx/libcvmx.o
                0x00000000c0083398                cvmx_ilk_enable
 .text.cvmx_ipd_disable
                0x00000000c0083630       0xa8 arch/mips/cpu/octeon/cvmx/libcvmx.o
                0x00000000c0083630                cvmx_ipd_disable
 .text.cvmx_ipd_convert_to_newcfg
                0x00000000c00836d8      0x21c arch/mips/cpu/octeon/cvmx/libcvmx.o
                0x00000000c00836d8                cvmx_ipd_convert_to_newcfg
 .text.cvmx_ipd_config
                0x00000000c00838f4      0x214 arch/mips/cpu/octeon/cvmx/libcvmx.o
                0x00000000c00838f4                cvmx_ipd_config
 .text.cvmx_ipd_enable
                0x00000000c0083b08       0xd8 arch/mips/cpu/octeon/cvmx/libcvmx.o
                0x00000000c0083b08                cvmx_ipd_enable
 .text.cvmx_ipd_set_config
                0x00000000c0083be0      0x140 arch/mips/cpu/octeon/cvmx/libcvmx.o
                0x00000000c0083be0                cvmx_ipd_set_config
 .text.__cvmx_ipd_free_ptr
                0x00000000c0083d20      0xaa4 arch/mips/cpu/octeon/cvmx/libcvmx.o
                0x00000000c0083d20                __cvmx_ipd_free_ptr
 .text.cvmx_pki_write_frame_len
                0x00000000c00847c4       0x98 arch/mips/cpu/octeon/cvmx/libcvmx.o
 .text.cvmx_pki_read_tag_config
                0x00000000c008485c      0x44c arch/mips/cpu/octeon/cvmx/libcvmx.o
                0x00000000c008485c                cvmx_pki_read_tag_config
 .text.cvmx_pki_write_tag_config
                0x00000000c0084ca8      0x4c0 arch/mips/cpu/octeon/cvmx/libcvmx.o
                0x00000000c0084ca8                cvmx_pki_write_tag_config
 .text.cvmx_pki_setup_clusters
                0x00000000c0085168       0x9c arch/mips/cpu/octeon/cvmx/libcvmx.o
                0x00000000c0085168                cvmx_pki_setup_clusters
 .text.cvmx_pki_enable
                0x00000000c0085204       0xe0 arch/mips/cpu/octeon/cvmx/libcvmx.o
                0x00000000c0085204                cvmx_pki_enable
 .text.cvmx_pki_disable
                0x00000000c00852e4       0x50 arch/mips/cpu/octeon/cvmx/libcvmx.o
                0x00000000c00852e4                cvmx_pki_disable
 .text.__cvmx_pki_free_ptr
                0x00000000c0085334       0x5c arch/mips/cpu/octeon/cvmx/libcvmx.o
                0x00000000c0085334                __cvmx_pki_free_ptr
 .text.cvmx_pki_read_pkind_config
                0x00000000c0085390      0x234 arch/mips/cpu/octeon/cvmx/libcvmx.o
                0x00000000c0085390                cvmx_pki_read_pkind_config
 .text.cvmx_pki_read_style_config
                0x00000000c00855c4      0x4a8 arch/mips/cpu/octeon/cvmx/libcvmx.o
                0x00000000c00855c4                cvmx_pki_read_style_config
 .text.cvmx_pki_read_qpg_entry
                0x00000000c0085a6c       0xd0 arch/mips/cpu/octeon/cvmx/libcvmx.o
                0x00000000c0085a6c                cvmx_pki_read_qpg_entry
 .text.cvmx_pki_write_qpg_entry
                0x00000000c0085b3c       0xac arch/mips/cpu/octeon/cvmx/libcvmx.o
                0x00000000c0085b3c                cvmx_pki_write_qpg_entry
 .text.cvmx_pki_get_pkind_style
                0x00000000c0085be8       0x50 arch/mips/cpu/octeon/cvmx/libcvmx.o
                0x00000000c0085be8                cvmx_pki_get_pkind_style
 .text.cvmx_pki_read_global_config
                0x00000000c0085c38      0x2d0 arch/mips/cpu/octeon/cvmx/libcvmx.o
                0x00000000c0085c38                cvmx_pki_read_global_config
 .text.cvmx_pki_write_global_config
                0x00000000c0085f08      0x2e8 arch/mips/cpu/octeon/cvmx/libcvmx.o
                0x00000000c0085f08                cvmx_pki_write_global_config
 .text.cvmx_pki_write_pkind_config
                0x00000000c00861f0      0x370 arch/mips/cpu/octeon/cvmx/libcvmx.o
                0x00000000c00861f0                cvmx_pki_write_pkind_config
 .text.cvmx_pki_write_style_config
                0x00000000c0086560      0x404 arch/mips/cpu/octeon/cvmx/libcvmx.o
                0x00000000c0086560                cvmx_pki_write_style_config
 .text.cvmx_pki_pcam_write_entry
                0x00000000c0086964      0x340 arch/mips/cpu/octeon/cvmx/libcvmx.o
                0x00000000c0086964                cvmx_pki_pcam_write_entry
 .text.cvmx_pki_endis_fcs_check
                0x00000000c0086ca4      0x188 arch/mips/cpu/octeon/cvmx/libcvmx.o
                0x00000000c0086ca4                cvmx_pki_endis_fcs_check
 .text.cvmx_pki_endis_l2_errs
                0x00000000c0086e2c      0x19c arch/mips/cpu/octeon/cvmx/libcvmx.o
                0x00000000c0086e2c                cvmx_pki_endis_l2_errs
 .text.cvmx_pki_reset
                0x00000000c0086fc8      0x1e0 arch/mips/cpu/octeon/cvmx/libcvmx.o
                0x00000000c0086fc8                cvmx_pki_reset
 .text.cvmx_pki_style_free
                0x00000000c00871a8      0x104 arch/mips/cpu/octeon/cvmx/libcvmx.o
                0x00000000c00871a8                cvmx_pki_style_free
 .text.cvmx_pki_qpg_entry_alloc
                0x00000000c00872ac      0x15c arch/mips/cpu/octeon/cvmx/libcvmx.o
                0x00000000c00872ac                cvmx_pki_qpg_entry_alloc
 .text.cvmx_pki_qpg_entry_free
                0x00000000c0087408       0xb8 arch/mips/cpu/octeon/cvmx/libcvmx.o
                0x00000000c0087408                cvmx_pki_qpg_entry_free
 .text.cvmx_pki_mtag_idx_alloc
                0x00000000c00874c0      0x154 arch/mips/cpu/octeon/cvmx/libcvmx.o
                0x00000000c00874c0                cvmx_pki_mtag_idx_alloc
 .text.cvmx_pki_style_alloc
                0x00000000c0087614      0x210 arch/mips/cpu/octeon/cvmx/libcvmx.o
                0x00000000c0087614                cvmx_pki_style_alloc
 .text.cvmx_pki_cluster_grp_alloc
                0x00000000c0087824      0x1b8 arch/mips/cpu/octeon/cvmx/libcvmx.o
                0x00000000c0087824                cvmx_pki_cluster_grp_alloc
 .text.cvmx_pki_pcam_entry_alloc
                0x00000000c00879dc      0x1e4 arch/mips/cpu/octeon/cvmx/libcvmx.o
                0x00000000c00879dc                cvmx_pki_pcam_entry_alloc
 .text.__cvmx_pki_global_rsrc_free
                0x00000000c0087bc0      0x39c arch/mips/cpu/octeon/cvmx/libcvmx.o
                0x00000000c0087bc0                __cvmx_pki_global_rsrc_free
 .text.cvmx_pko_disable
                0x00000000c0087f5c       0x3c arch/mips/cpu/octeon/cvmx/libcvmx.o
                0x00000000c0087f5c                cvmx_pko_disable
 .text.cvmx_pko_queue_pend_count
                0x00000000c0087f98       0xa8 arch/mips/cpu/octeon/cvmx/libcvmx.o
                0x00000000c0087f98                cvmx_pko_queue_pend_count
 .text.__cvmx_pko_get_pipe
                0x00000000c0088040       0x78 arch/mips/cpu/octeon/cvmx/libcvmx.o
                0x00000000c0088040                __cvmx_pko_get_pipe
 .text.__cvmx_pko_memory_per_engine_o68
                0x00000000c00880b8       0x70 arch/mips/cpu/octeon/cvmx/libcvmx.o
 .text.cvmx_pko_get_num_queues
                0x00000000c0088128      0x124 arch/mips/cpu/octeon/cvmx/libcvmx.o
                0x00000000c0088128                cvmx_pko_get_num_queues
 .text.cvmx_pko_get_base_queue
                0x00000000c008824c      0x124 arch/mips/cpu/octeon/cvmx/libcvmx.o
                0x00000000c008824c                cvmx_pko_get_base_queue
 .text.cvmx_pko_hw_init
                0x00000000c0088370      0xa30 arch/mips/cpu/octeon/cvmx/libcvmx.o
                0x00000000c0088370                cvmx_pko_hw_init
 .text.cvmx_pko_shutdown
                0x00000000c0088da0      0x394 arch/mips/cpu/octeon/cvmx/libcvmx.o
                0x00000000c0088da0                cvmx_pko_shutdown
 .text.cvmx_pko_config_port
                0x00000000c0089134      0x978 arch/mips/cpu/octeon/cvmx/libcvmx.o
                0x00000000c0089134                cvmx_pko_config_port
 .text.cvmx_pko_enable
                0x00000000c0089aac       0xa4 arch/mips/cpu/octeon/cvmx/libcvmx.o
                0x00000000c0089aac                cvmx_pko_enable
 .text.cvmx_pko_get_base_pko_port
                0x00000000c0089b50      0x104 arch/mips/cpu/octeon/cvmx/libcvmx.o
                0x00000000c0089b50                cvmx_pko_get_base_pko_port
 .text.__cvmx_pko_internal_ports_range_init
                0x00000000c0089c54       0xa8 arch/mips/cpu/octeon/cvmx/libcvmx.o
                0x00000000c0089c54                __cvmx_pko_internal_ports_range_init
 .text.cvmx_pko_internal_ports_alloc
                0x00000000c0089cfc      0x13c arch/mips/cpu/octeon/cvmx/libcvmx.o
                0x00000000c0089cfc                cvmx_pko_internal_ports_alloc
 .text.cvmx_pko3_channel_credit_level
                0x00000000c0089e38       0x58 arch/mips/cpu/octeon/cvmx/libcvmx.o
                0x00000000c0089e38                cvmx_pko3_channel_credit_level
 .text.cvmx_pko3_dq_drain
                0x00000000c0089e90       0xcc arch/mips/cpu/octeon/cvmx/libcvmx.o
                0x00000000c0089e90                cvmx_pko3_dq_drain
 .text.cvmx_pko3_dq_options
                0x00000000c0089f5c       0x84 arch/mips/cpu/octeon/cvmx/libcvmx.o
                0x00000000c0089f5c                cvmx_pko3_dq_options
 .text.cvmx_pko3_hw_init_global
                0x00000000c0089fe0     0x1198 arch/mips/cpu/octeon/cvmx/libcvmx.o
                0x00000000c0089fe0                cvmx_pko3_hw_init_global
 .text.cvmx_pko3_hw_disable
                0x00000000c008b178      0x530 arch/mips/cpu/octeon/cvmx/libcvmx.o
                0x00000000c008b178                cvmx_pko3_hw_disable
 .text.cvmx_pko3_interface_options
                0x00000000c008b6a8      0x334 arch/mips/cpu/octeon/cvmx/libcvmx.o
                0x00000000c008b6a8                cvmx_pko3_interface_options
 .text.cvmx_pko_dq_open
                0x00000000c008b9dc      0x2e0 arch/mips/cpu/octeon/cvmx/libcvmx.o
                0x00000000c008b9dc                cvmx_pko_dq_open
 .text.cvmx_pko3_dq_query
                0x00000000c008bcbc      0x28c arch/mips/cpu/octeon/cvmx/libcvmx.o
                0x00000000c008bcbc                cvmx_pko3_dq_query
 .text.cvmx_pko3_dq_close
                0x00000000c008bf48      0x278 arch/mips/cpu/octeon/cvmx/libcvmx.o
                0x00000000c008bf48                cvmx_pko3_dq_close
 .text.__cvmx_pko3_cmd_subdc_add
                0x00000000c008c1c0       0xb4 arch/mips/cpu/octeon/cvmx/libcvmx.o
 .text.cvmx_pko3_legacy_xmit
                0x00000000c008c274      0xebc arch/mips/cpu/octeon/cvmx/libcvmx.o
                0x00000000c008c274                cvmx_pko3_legacy_xmit
 .text.__cvmx_pko3_dq_table_setup
                0x00000000c008d130       0x6c arch/mips/cpu/octeon/cvmx/libcvmx.o
                0x00000000c008d130                __cvmx_pko3_dq_table_setup
 .text.__cvmx_pko3_ipd_dq_unregister
                0x00000000c008d19c      0x120 arch/mips/cpu/octeon/cvmx/libcvmx.o
                0x00000000c008d19c                __cvmx_pko3_ipd_dq_unregister
 .text.__cvmx_pko3_dq_table_init
                0x00000000c008d2bc       0x1c arch/mips/cpu/octeon/cvmx/libcvmx.o
 .text.cvmx_pko3_map_channel
                0x00000000c008d2d8      0x274 arch/mips/cpu/octeon/cvmx/libcvmx.o
                0x00000000c008d2d8                cvmx_pko3_map_channel
 .text.cvmx_pko_configure_l2_queue
                0x00000000c008d54c      0x170 arch/mips/cpu/octeon/cvmx/libcvmx.o
 .text.cvmx_pko_configure_l3_queue
                0x00000000c008d6bc      0x170 arch/mips/cpu/octeon/cvmx/libcvmx.o
 .text.cvmx_pko_configure_l4_queue
                0x00000000c008d82c      0x170 arch/mips/cpu/octeon/cvmx/libcvmx.o
 .text.cvmx_pko_configure_l5_queue
                0x00000000c008d99c      0x170 arch/mips/cpu/octeon/cvmx/libcvmx.o
 .text.cvmx_pko3_get_queue_base
                0x00000000c008db0c       0x98 arch/mips/cpu/octeon/cvmx/libcvmx.o
                0x00000000c008db0c                cvmx_pko3_get_queue_base
 .text.cvmx_pko3_get_queue_num
                0x00000000c008dba4       0x80 arch/mips/cpu/octeon/cvmx/libcvmx.o
                0x00000000c008dba4                cvmx_pko3_get_queue_num
 .text.__cvmx_pko3_ipd_dq_register
                0x00000000c008dc24      0x154 arch/mips/cpu/octeon/cvmx/libcvmx.o
                0x00000000c008dc24                __cvmx_pko3_ipd_dq_register
 .text.cvmx_pko_configure_dq
                0x00000000c008dd78      0x30c arch/mips/cpu/octeon/cvmx/libcvmx.o
 .text.cvmx_pko3_pq_config
                0x00000000c008e084      0x158 arch/mips/cpu/octeon/cvmx/libcvmx.o
                0x00000000c008e084                cvmx_pko3_pq_config
 .text.cvmx_pko3_sq_config_children
                0x00000000c008e1dc      0x210 arch/mips/cpu/octeon/cvmx/libcvmx.o
                0x00000000c008e1dc                cvmx_pko3_sq_config_children
 .text.__cvmx_pko3_dq_param_setup
                0x00000000c008e3ec        0x8 arch/mips/cpu/octeon/cvmx/libcvmx.o
                0x00000000c008e3ec                __cvmx_pko3_dq_param_setup
 .text.cvmx_pko_alloc_global_resource
                0x00000000c008e3f4      0x118 arch/mips/cpu/octeon/cvmx/libcvmx.o
                0x00000000c008e3f4                cvmx_pko_alloc_global_resource
 .text.cvmx_pko3_num_level_queues
                0x00000000c008e50c       0xf8 arch/mips/cpu/octeon/cvmx/libcvmx.o
                0x00000000c008e50c                cvmx_pko3_num_level_queues
 .text.cvmx_pko_free_queues
                0x00000000c008e604      0x210 arch/mips/cpu/octeon/cvmx/libcvmx.o
                0x00000000c008e604                cvmx_pko_free_queues
 .text.cvmx_pko_alloc_queues
                0x00000000c008e814      0x238 arch/mips/cpu/octeon/cvmx/libcvmx.o
                0x00000000c008e814                cvmx_pko_alloc_queues
 .text.cvmx_spi_start_interface
                0x00000000c008ea4c      0x154 arch/mips/cpu/octeon/cvmx/libcvmx.o
                0x00000000c008ea4c                cvmx_spi_start_interface
 .text.cvmx_spi_set_callbacks
                0x00000000c008eba0       0x24 arch/mips/cpu/octeon/cvmx/libcvmx.o
                0x00000000c008eba0                cvmx_spi_set_callbacks
 .text.cvmx_spi_get_callbacks
                0x00000000c008ebc4       0x20 arch/mips/cpu/octeon/cvmx/libcvmx.o
                0x00000000c008ebc4                cvmx_spi_get_callbacks
 .text.cvmx_spi_interface_up_cb
                0x00000000c008ebe4      0x34c arch/mips/cpu/octeon/cvmx/libcvmx.o
                0x00000000c008ebe4                cvmx_spi_interface_up_cb
 .text.cvmx_spi_calendar_setup_cb
                0x00000000c008ef30      0x498 arch/mips/cpu/octeon/cvmx/libcvmx.o
                0x00000000c008ef30                cvmx_spi_calendar_setup_cb
 .text.cvmx_spi_reset_cb
                0x00000000c008f3c8      0x65c arch/mips/cpu/octeon/cvmx/libcvmx.o
                0x00000000c008f3c8                cvmx_spi_reset_cb
 .text.cvmx_spi_clock_detect_cb
                0x00000000c008fa24      0x238 arch/mips/cpu/octeon/cvmx/libcvmx.o
                0x00000000c008fa24                cvmx_spi_clock_detect_cb
 .text.cvmx_spi_training_cb
                0x00000000c008fc5c      0x28c arch/mips/cpu/octeon/cvmx/libcvmx.o
                0x00000000c008fc5c                cvmx_spi_training_cb
 .text.cvmx_spi_calendar_sync_cb
                0x00000000c008fee8      0x228 arch/mips/cpu/octeon/cvmx/libcvmx.o
                0x00000000c008fee8                cvmx_spi_calendar_sync_cb
 .text.__cvmx_spi4000_read
                0x00000000c0090110      0x148 arch/mips/cpu/octeon/cvmx/libcvmx.o
 .text.__cvmx_spi4000_write
                0x00000000c0090258      0x12c arch/mips/cpu/octeon/cvmx/libcvmx.o
 .text.cvmx_spi4000_check_speed
                0x00000000c0090384      0x1e0 arch/mips/cpu/octeon/cvmx/libcvmx.o
                0x00000000c0090384                cvmx_spi4000_check_speed
 .text.__cvmx_spi4000_mdio_write
                0x00000000c0090564       0x98 arch/mips/cpu/octeon/cvmx/libcvmx.o
 .text.cvmx_spi4000_is_present
                0x00000000c00905fc       0xdc arch/mips/cpu/octeon/cvmx/libcvmx.o
                0x00000000c00905fc                cvmx_spi4000_is_present
 .text.cvmx_spi4000_initialize
                0x00000000c00906d8      0x2fc arch/mips/cpu/octeon/cvmx/libcvmx.o
                0x00000000c00906d8                cvmx_spi4000_initialize
 .text.cvmx_srio_set_pkind
                0x00000000c00909d4       0x70 arch/mips/cpu/octeon/cvmx/libcvmx.o
                0x00000000c00909d4                cvmx_srio_set_pkind
 .text.__cvmx_srio_free_s2m
                0x00000000c0090a44       0xd0 arch/mips/cpu/octeon/cvmx/libcvmx.o
 .text.cvmx_srio_physical_unmap
                0x00000000c0090b14      0x2e0 arch/mips/cpu/octeon/cvmx/libcvmx.o
                0x00000000c0090b14                cvmx_srio_physical_unmap
 .text.__cvmx_srio_to_sli
                0x00000000c0090df4       0x7c arch/mips/cpu/octeon/cvmx/libcvmx.o
 .text.__cvmx_srio_alloc_s2m
                0x00000000c0090e70      0x1e8 arch/mips/cpu/octeon/cvmx/libcvmx.o
 .text.cvmx_srio_physical_map
                0x00000000c0091058      0x6cc arch/mips/cpu/octeon/cvmx/libcvmx.o
                0x00000000c0091058                cvmx_srio_physical_map
 .text.__cvmx_srio_local_write32
                0x00000000c0091724      0x22c arch/mips/cpu/octeon/cvmx/libcvmx.o
 .text.__cvmx_srio_local_read32
                0x00000000c0091950      0x2f8 arch/mips/cpu/octeon/cvmx/libcvmx.o
 .text.cvmx_srio_receive_spf
                0x00000000c0091c48      0x250 arch/mips/cpu/octeon/cvmx/libcvmx.o
                0x00000000c0091c48                cvmx_srio_receive_spf
 .text._cvmx_srio_config_write32
                0x00000000c0091e98      0xb70 arch/mips/cpu/octeon/cvmx/libcvmx.o
                0x00000000c0091e98                _cvmx_srio_config_write32
 .text._cvmx_srio_config_read32
                0x00000000c0092a08      0x864 arch/mips/cpu/octeon/cvmx/libcvmx.o
                0x00000000c0092a08                _cvmx_srio_config_read32
 .text.cvmx_srio_config_write32
                0x00000000c009326c       0xfc arch/mips/cpu/octeon/cvmx/libcvmx.o
                0x00000000c009326c                cvmx_srio_config_write32
 .text.cvmx_srio_config_read32
                0x00000000c0093368      0x294 arch/mips/cpu/octeon/cvmx/libcvmx.o
                0x00000000c0093368                cvmx_srio_config_read32
 .text.flush_cache
                0x00000000c00935fc       0x18 arch/mips/cpu/octeon/libocteon.o
                0x00000000c00935fc                flush_cache
 .text.write_one_tlb64
                0x00000000c0093614       0x28 arch/mips/cpu/octeon/libocteon.o
                0x00000000c0093614                write_one_tlb64
 .text.get_num_tlb_entries
                0x00000000c009363c       0x2c arch/mips/cpu/octeon/libocteon.o
                0x00000000c009363c                get_num_tlb_entries
 .text.flush_dcache_range
                0x00000000c0093668        0xc arch/mips/cpu/octeon/libocteon.o
                0x00000000c0093668                flush_dcache_range
 .text.invalidate_dcache_range
                0x00000000c0093674        0x8 arch/mips/cpu/octeon/libocteon.o
                0x00000000c0093674                invalidate_dcache_range
 .text.configure_lmtdma_window
                0x00000000c009367c       0x38 arch/mips/cpu/octeon/libocteon.o
                0x00000000c009367c                configure_lmtdma_window
 .text.cpu_eth_init
                0x00000000c00936b4       0xb8 arch/mips/cpu/octeon/libocteon.o
                0x00000000c00936b4                cpu_eth_init
 .text.do_reset
                0x00000000c009376c      0x178 arch/mips/cpu/octeon/libocteon.o
                0x00000000c009376c                do_reset
 .text.enable_interrupts
                0x00000000c00938e4        0x8 arch/mips/cpu/octeon/libocteon.o
                0x00000000c00938e4                enable_interrupts
 .text.disable_interrupts
                0x00000000c00938ec        0x8 arch/mips/cpu/octeon/libocteon.o
                0x00000000c00938ec                disable_interrupts
 .text.lowcase  0x00000000c00938f4       0x50 arch/mips/cpu/octeon/libocteon.o
                0x00000000c00938f4                lowcase
 .text.octeon_get_cpu_multiplier
                0x00000000c0093944      0x104 arch/mips/cpu/octeon/libocteon.o
                0x00000000c0093944                octeon_get_cpu_multiplier
 .text.octeon_get_ioclk_hz
                0x00000000c0093a48       0xdc arch/mips/cpu/octeon/libocteon.o
                0x00000000c0093a48                octeon_get_ioclk_hz
 .text.octeon_get_io_clock_rate
                0x00000000c0093b24       0x18 arch/mips/cpu/octeon/libocteon.o
                0x00000000c0093b24                octeon_get_io_clock_rate
 .text.failsafe_scan
                0x00000000c0093b3c       0x4c arch/mips/cpu/octeon/libocteon.o
                0x00000000c0093b3c                failsafe_scan
 .text.octeon_init_cvmcount
                0x00000000c0093b88      0x1e0 arch/mips/cpu/octeon/libocteon.o
                0x00000000c0093b88                octeon_init_cvmcount
 .text.validate_ddr3_rlevel_bitmask
                0x00000000c0093d68      0x21c arch/mips/cpu/octeon/libocteon.o
 .text.compute_ddr3_rlevel_delay
                0x00000000c0093f84       0x4c arch/mips/cpu/octeon/libocteon.o
 .text.update_wlevel_rank_struct
                0x00000000c0093fd0       0x40 arch/mips/cpu/octeon/libocteon.o
 .text.get_wlevel_rank_struct
                0x00000000c0094010       0x2c arch/mips/cpu/octeon/libocteon.o
 .text.update_rlevel_rank_struct
                0x00000000c009403c       0x44 arch/mips/cpu/octeon/libocteon.o
 .text.get_rlevel_rank_struct
                0x00000000c0094080       0x30 arch/mips/cpu/octeon/libocteon.o
 .text.rlevel_to_wlevel
                0x00000000c00940b0       0x70 arch/mips/cpu/octeon/libocteon.o
 .text.nonsequential_delays
                0x00000000c0094120       0xc4 arch/mips/cpu/octeon/libocteon.o
 .text.roundup_ddr3_wlevel_bitmask
                0x00000000c00941e4       0xa4 arch/mips/cpu/octeon/libocteon.o
 .text.validate_hwl_seq
                0x00000000c0094288       0x58 arch/mips/cpu/octeon/libocteon.o
 .text.EXTR_WR  0x00000000c00942e0       0x30 arch/mips/cpu/octeon/libocteon.o
 .text.INSRT_WR
                0x00000000c0094310       0x58 arch/mips/cpu/octeon/libocteon.o
 .text.find_WL_majority
                0x00000000c0094368       0x78 arch/mips/cpu/octeon/libocteon.o
 .text.unpack_rlevel_settings
                0x00000000c00943e0       0xcc arch/mips/cpu/octeon/libocteon.o
 .text.PPBM     0x00000000c00944ac       0x28 arch/mips/cpu/octeon/libocteon.o
 .text.pretty_psecs_to_mts
                0x00000000c00944d4       0x88 arch/mips/cpu/octeon/libocteon.o
                0x00000000c00944d4                pretty_psecs_to_mts
 .text.mts_to_hertz
                0x00000000c009455c       0x24 arch/mips/cpu/octeon/libocteon.o
                0x00000000c009455c                mts_to_hertz
 .text.cvmx_dram_get_num_lmc
                0x00000000c0094580       0xb8 arch/mips/cpu/octeon/libocteon.o
 .text.cvmx_dram_address_extract_info
                0x00000000c0094638      0x388 arch/mips/cpu/octeon/libocteon.o
 .text.set_ddr_clock_initialized
                0x00000000c00949c0       0x50 arch/mips/cpu/octeon/libocteon.o
 .text.ddr_clock_initialized
                0x00000000c0094a10       0x14 arch/mips/cpu/octeon/libocteon.o
 .text.octeon_ipd_delay_cycles
                0x00000000c0094a24       0x34 arch/mips/cpu/octeon/libocteon.o
 .text.ddr_print
                0x00000000c0094a58       0x60 arch/mips/cpu/octeon/libocteon.o
 .text.lookup_ddr_config_structure
                0x00000000c0094ab8     0x10c8 arch/mips/cpu/octeon/libocteon.o
                0x00000000c0094ab8                lookup_ddr_config_structure
 .text.do_display_BM
                0x00000000c0095b80      0x288 arch/mips/cpu/octeon/libocteon.o
 .text.display_DAC_DBI_settings
                0x00000000c0095e08      0x114 arch/mips/cpu/octeon/libocteon.o
                0x00000000c0095e08                display_DAC_DBI_settings
 .text.ddr_config_write_csr_node
                0x00000000c0095f1c       0xc0 arch/mips/cpu/octeon/libocteon.o
 .text.setup_hw_pattern
                0x00000000c0095fdc       0xbc arch/mips/cpu/octeon/libocteon.o
 .text.read_DAC_DBI_settings
                0x00000000c0096098      0x1d4 arch/mips/cpu/octeon/libocteon.o
                0x00000000c0096098                read_DAC_DBI_settings
 .text.load_dac_override
                0x00000000c009626c      0x2e4 arch/mips/cpu/octeon/libocteon.o
                0x00000000c009626c                load_dac_override
 .text.set_rdimm_mode
                0x00000000c0096550       0xd0 arch/mips/cpu/octeon/libocteon.o
                0x00000000c0096550                set_rdimm_mode
 .text.load_dll_offset
                0x00000000c0096620      0x508 arch/mips/cpu/octeon/libocteon.o
                0x00000000c0096620                load_dll_offset
 .text.change_dll_offset_enable
                0x00000000c0096b28      0x138 arch/mips/cpu/octeon/libocteon.o
                0x00000000c0096b28                change_dll_offset_enable
 .text.octeon_read_lmcx_ddr3_wlevel_dbg
                0x00000000c0096c60       0x9c arch/mips/cpu/octeon/libocteon.o
 .text.octeon_read_lmcx_ddr3_rlevel_dbg
                0x00000000c0096cfc       0xc4 arch/mips/cpu/octeon/libocteon.o
 .text.ddr_config_write_csr
                0x00000000c0096dc0       0x9c arch/mips/cpu/octeon/libocteon.o
 .text.encode_pbank_lsb_ddr3
                0x00000000c0096e5c       0x70 arch/mips/cpu/octeon/libocteon.o
 .text.encode_row_lsb_ddr3
                0x00000000c0096ecc       0x68 arch/mips/cpu/octeon/libocteon.o
 .text.test_dram_byte
                0x00000000c0096f34      0x27c arch/mips/cpu/octeon/libocteon.o
 .text.choose_best_hw_patterns
                0x00000000c00971b0      0x104 arch/mips/cpu/octeon/libocteon.o
 .text.setup_lfsr_pattern
                0x00000000c00972b4       0xe0 arch/mips/cpu/octeon/libocteon.o
 .text.psecs_to_mts
                0x00000000c0097394       0xc4 arch/mips/cpu/octeon/libocteon.o
                0x00000000c0097394                psecs_to_mts
 .text.hertz_to_psecs
                0x00000000c0097458       0x7c arch/mips/cpu/octeon/libocteon.o
                0x00000000c0097458                hertz_to_psecs
 .text.compute_vref_value
                0x00000000c00974d4      0x820 arch/mips/cpu/octeon/libocteon.o
                0x00000000c00974d4                compute_vref_value
 .text.test_dram_byte64
                0x00000000c0097cf4      0x3c4 arch/mips/cpu/octeon/libocteon.o
 .text.cn78xx_lmc_dreset_init
                0x00000000c00980b8      0x118 arch/mips/cpu/octeon/libocteon.o
 .text.cn7xxx_lmc_ddr3_reset
                0x00000000c00981d0       0xe4 arch/mips/cpu/octeon/libocteon.o
 .text.Get_Deskew_Settings
                0x00000000c00982b4      0x1b4 arch/mips/cpu/octeon/libocteon.o
 .text.Validate_Deskew_Training
                0x00000000c0098468      0x424 arch/mips/cpu/octeon/libocteon.o
 .text.octeon_tlv_eeprom_get_next_tuple
                0x00000000c009888c      0x158 arch/mips/cpu/octeon/libocteon.o
                0x00000000c009888c                octeon_tlv_eeprom_get_next_tuple
 .text.octeon_tlv_get_tuple_addr
                0x00000000c00989e4       0xd4 arch/mips/cpu/octeon/libocteon.o
                0x00000000c00989e4                octeon_tlv_get_tuple_addr
 .text.do_display_WL
                0x00000000c0098ab8      0x110 arch/mips/cpu/octeon/libocteon.o
 .text.display_RL_with_RODT
                0x00000000c0098bc8      0x14c arch/mips/cpu/octeon/libocteon.o
 .text.do_display_RL
                0x00000000c0098d14      0x178 arch/mips/cpu/octeon/libocteon.o
 .text.printable_rank_spec
                0x00000000c0098e8c       0xc0 arch/mips/cpu/octeon/libocteon.o
                0x00000000c0098e8c                printable_rank_spec
 .text.lookup_env_parameter_ull
                0x00000000c0098f4c       0xe4 arch/mips/cpu/octeon/libocteon.o
 .text.pulse_gpio_pin
                0x00000000c0099030       0x90 arch/mips/cpu/octeon/libocteon.o
 .text.limit_l2_ways
                0x00000000c00990c0      0x2b4 arch/mips/cpu/octeon/libocteon.o
                0x00000000c00990c0                limit_l2_ways
 .text.validate_spd_checksum_ddr3
                0x00000000c0099374      0x158 arch/mips/cpu/octeon/libocteon.o
 .text.validate_spd_checksum
                0x00000000c00994cc      0x120 arch/mips/cpu/octeon/libocteon.o
                0x00000000c00994cc                validate_spd_checksum
 .text.read_spd
                0x00000000c00995ec      0x158 arch/mips/cpu/octeon/libocteon.o
                0x00000000c00995ec                read_spd
 .text.get_dimm_serial_number
                0x00000000c0099744       0xb4 arch/mips/cpu/octeon/libocteon.o
                0x00000000c0099744                get_dimm_serial_number
 .text.get_dimm_part_number
                0x00000000c00997f8      0x15c arch/mips/cpu/octeon/libocteon.o
                0x00000000c00997f8                get_dimm_part_number
 .text.get_dimm_module_type
                0x00000000c0099954       0x38 arch/mips/cpu/octeon/libocteon.o
                0x00000000c0099954                get_dimm_module_type
 .text.get_dimm_ecc
                0x00000000c009998c       0x44 arch/mips/cpu/octeon/libocteon.o
                0x00000000c009998c                get_dimm_ecc
 .text.report_common_dimm
                0x00000000c00999d0      0x1b0 arch/mips/cpu/octeon/libocteon.o
 .text.report_ddr3_dimm
                0x00000000c0099b80       0xf8 arch/mips/cpu/octeon/libocteon.o
 .text.get_ddr_type
                0x00000000c0099c78       0x44 arch/mips/cpu/octeon/libocteon.o
                0x00000000c0099c78                get_ddr_type
 .text.report_dimm
                0x00000000c0099cbc      0x1a0 arch/mips/cpu/octeon/libocteon.o
 .text.validate_dimm
                0x00000000c0099e5c      0x1ac arch/mips/cpu/octeon/libocteon.o
                0x00000000c0099e5c                validate_dimm
 .text.lookup_env_parameter
                0x00000000c009a008       0xec arch/mips/cpu/octeon/libocteon.o
 .text.initialize_ddr_clock
                0x00000000c009a0f4     0x35c8 arch/mips/cpu/octeon/libocteon.o
                0x00000000c009a0f4                initialize_ddr_clock
 .text.measure_octeon_ddr_clock
                0x00000000c009d6bc      0x378 arch/mips/cpu/octeon/libocteon.o
                0x00000000c009d6bc                measure_octeon_ddr_clock
 .text._73xx_perform_octeon3_ddr3_sequence
                0x00000000c009da34      0x208 arch/mips/cpu/octeon/libocteon.o
                0x00000000c009da34                _73xx_perform_octeon3_ddr3_sequence
 .text.test_dram_byte_hw
                0x00000000c009dc3c      0x5e8 arch/mips/cpu/octeon/libocteon.o
 .text.perform_HW_dll_offset_tuning
                0x00000000c009e224      0x860 arch/mips/cpu/octeon/libocteon.o
 .text.cvmx_tune_node
                0x00000000c009ea84      0x130 arch/mips/cpu/octeon/libocteon.o
 .text.run_best_hw_patterns
                0x00000000c009ebb4      0x128 arch/mips/cpu/octeon/libocteon.o
 .text.Perform_Deskew_Training
                0x00000000c009ecdc      0x410 arch/mips/cpu/octeon/libocteon.o
 .text.set_DRAM_output_inversion
                0x00000000c009f0ec      0x1e0 arch/mips/cpu/octeon/libocteon.o
 .text._73xx_set_vref
                0x00000000c009f2cc      0x174 arch/mips/cpu/octeon/libocteon.o
                0x00000000c009f2cc                _73xx_set_vref
 .text.ddr4_mpr_write
                0x00000000c009f440       0xcc arch/mips/cpu/octeon/libocteon.o
                0x00000000c009f440                ddr4_mpr_write
 .text.ddr4_mpr_read
                0x00000000c009f50c      0x124 arch/mips/cpu/octeon/libocteon.o
                0x00000000c009f50c                ddr4_mpr_read
 .text.ddr4_mrw
                0x00000000c009f630       0xe0 arch/mips/cpu/octeon/libocteon.o
 .text.set_mpr_mode
                0x00000000c009f710      0x138 arch/mips/cpu/octeon/libocteon.o
 .text._70xx_perform_octeon3_ddr3_sequence
                0x00000000c009f848      0x180 arch/mips/cpu/octeon/libocteon.o
                0x00000000c009f848                _70xx_perform_octeon3_ddr3_sequence
 .text.perform_octeon3_ddr3_sequence
                0x00000000c009f9c8       0x58 arch/mips/cpu/octeon/libocteon.o
 .text._70xx_set_vref
                0x00000000c009fa20      0x174 arch/mips/cpu/octeon/libocteon.o
                0x00000000c009fa20                _70xx_set_vref
 .text.process_custom_dll_offsets
                0x00000000c009fb94      0x258 arch/mips/cpu/octeon/libocteon.o
 .text.perform_ddr3_sequence
                0x00000000c009fdec      0x1fc arch/mips/cpu/octeon/libocteon.o
                0x00000000c009fdec                perform_ddr3_sequence
 .text.perform_ddr_init_sequence
                0x00000000c009ffe8      0x280 arch/mips/cpu/octeon/libocteon.o
 .text.init_octeon_ddr3_interface
                0x00000000c00a0268     0x78f8 arch/mips/cpu/octeon/libocteon.o
                0x00000000c00a0268                init_octeon_ddr3_interface
 .text._73xx_init_octeon3_ddr3_interface
                0x00000000c00a7b60     0xebbc arch/mips/cpu/octeon/libocteon.o
                0x00000000c00a7b60                _73xx_init_octeon3_ddr3_interface
 .text._70xx_init_octeon3_ddr3_interface
                0x00000000c00b671c     0x95cc arch/mips/cpu/octeon/libocteon.o
                0x00000000c00b671c                _70xx_init_octeon3_ddr3_interface
 .text.init_octeon3_ddr3_interface
                0x00000000c00bfce8       0xa4 arch/mips/cpu/octeon/libocteon.o
                0x00000000c00bfce8                init_octeon3_ddr3_interface
 .text.octeon_ddr_initialize
                0x00000000c00bfd8c     0x15b8 arch/mips/cpu/octeon/libocteon.o
                0x00000000c00bfd8c                octeon_ddr_initialize
 .text.generic_ffs
                0x00000000c00c1344      0x21c arch/mips/cpu/octeon/libocteon.o
 .text.displayErrorRegC0_Icache
                0x00000000c00c1560       0x54 arch/mips/cpu/octeon/libocteon.o
 .text.displayErrorRegC0_cvmmem
                0x00000000c00c15b4       0x54 arch/mips/cpu/octeon/libocteon.o
 .text.displayErrorReg_1
                0x00000000c00c1608       0x54 arch/mips/cpu/octeon/libocteon.o
 .text.octeon_bist_6XXX
                0x00000000c00c165c     0x1174 arch/mips/cpu/octeon/libocteon.o
                0x00000000c00c165c                octeon_bist_6XXX
 .text.octeon_bist_check_iob
                0x00000000c00c27d0      0xe80 arch/mips/cpu/octeon/libocteon.o
 .text.octeon_bist_70XX
                0x00000000c00c3650      0x858 arch/mips/cpu/octeon/libocteon.o
                0x00000000c00c3650                octeon_bist_70XX
 .text.octeon_bist_7XXX
                0x00000000c00c3ea8     0x14e4 arch/mips/cpu/octeon/libocteon.o
                0x00000000c00c3ea8                octeon_bist_7XXX
 .text.octeon_bist
                0x00000000c00c538c      0xc64 arch/mips/cpu/octeon/libocteon.o
                0x00000000c00c538c                octeon_bist
 .text.octeon_bist_start
                0x00000000c00c5ff0       0x70 arch/mips/cpu/octeon/libocteon.o
                0x00000000c00c5ff0                octeon_bist_start
 .text.octeon_bist_usb
                0x00000000c00c6060      0x18c arch/mips/cpu/octeon/libocteon.o
                0x00000000c00c6060                octeon_bist_usb
 .text.set_except_base_addr
                0x00000000c00c61ec        0x8 arch/mips/cpu/octeon/libocteon.o
                0x00000000c00c61ec                set_except_base_addr
 .text.get_cop0_cvmctl_reg
                0x00000000c00c61f4        0xc arch/mips/cpu/octeon/libocteon.o
                0x00000000c00c61f4                get_cop0_cvmctl_reg
 .text.set_cop0_cvmctl_reg
                0x00000000c00c6200        0x8 arch/mips/cpu/octeon/libocteon.o
                0x00000000c00c6200                set_cop0_cvmctl_reg
 .text.get_cop0_cvmmemctl_reg
                0x00000000c00c6208        0xc arch/mips/cpu/octeon/libocteon.o
                0x00000000c00c6208                get_cop0_cvmmemctl_reg
 .text.set_cop0_cvmmemctl_reg
                0x00000000c00c6214        0x8 arch/mips/cpu/octeon/libocteon.o
                0x00000000c00c6214                set_cop0_cvmmemctl_reg
 .text.octeon_get_cycles
                0x00000000c00c621c        0xc arch/mips/cpu/octeon/libocteon.o
                0x00000000c00c621c                octeon_get_cycles
 .text.octeon_setup_boot_desc_block_board
                0x00000000c00c6228        0x8 arch/mips/cpu/octeon/libocteon.o
                0x00000000c00c6228                octeon_setup_boot_desc_block_board
 .text.octeon_write64_byte
                0x00000000c00c6230       0x54 arch/mips/cpu/octeon/libocteon.o
                0x00000000c00c6230                octeon_write64_byte
 .text.octeon_read64_byte
                0x00000000c00c6284       0x34 arch/mips/cpu/octeon/libocteon.o
                0x00000000c00c6284                octeon_read64_byte
 .text.memcpy64
                0x00000000c00c62b8      0x178 arch/mips/cpu/octeon/libocteon.o
                0x00000000c00c62b8                memcpy64
 .text.memset64
                0x00000000c00c6430      0x110 arch/mips/cpu/octeon/libocteon.o
                0x00000000c00c6430                memset64
 .text.uboot_tlb_ptr_to_phys
                0x00000000c00c6540       0x9c arch/mips/cpu/octeon/libocteon.o
                0x00000000c00c6540                uboot_tlb_ptr_to_phys
 .text.get_core_pattern
                0x00000000c00c65dc       0x30 arch/mips/cpu/octeon/libocteon.o
                0x00000000c00c65dc                get_core_pattern
 .text.octeon_setup_cvmx_sysinfo
                0x00000000c00c660c       0x7c arch/mips/cpu/octeon/libocteon.o
                0x00000000c00c660c                octeon_setup_cvmx_sysinfo
 .text.octeon_free_tmp_named_blocks
                0x00000000c00c6688      0x100 arch/mips/cpu/octeon/libocteon.o
                0x00000000c00c6688                octeon_free_tmp_named_blocks
 .text.octeon_bootloader_shutdown
                0x00000000c00c6788       0xc4 arch/mips/cpu/octeon/libocteon.o
                0x00000000c00c6788                octeon_bootloader_shutdown
 .text.arch_preboot_os
                0x00000000c00c684c       0x18 arch/mips/cpu/octeon/libocteon.o
                0x00000000c00c684c                arch_preboot_os
 .text.octeon_set_moveable_region
                0x00000000c00c6864      0x1e8 arch/mips/cpu/octeon/libocteon.o
                0x00000000c00c6864                octeon_set_moveable_region
 .text.octeon_setup_ram_env
                0x00000000c00c6a4c       0x84 arch/mips/cpu/octeon/libocteon.o
                0x00000000c00c6a4c                octeon_setup_ram_env
 .text.octeon_sync_cores
                0x00000000c00c6ad0       0x30 arch/mips/cpu/octeon/libocteon.o
                0x00000000c00c6ad0                octeon_sync_cores
 .text.copy_default_except_handlers
                0x00000000c00c6b00      0x17c arch/mips/cpu/octeon/libocteon.o
                0x00000000c00c6b00                copy_default_except_handlers
 .text.fill_tad_corecount
                0x00000000c00c6c7c      0x148 arch/mips/cpu/octeon/libocteon.o
                0x00000000c00c6c7c                fill_tad_corecount
 .text.get_logical_coremask
                0x00000000c00c6dc4      0x130 arch/mips/cpu/octeon/libocteon.o
                0x00000000c00c6dc4                get_logical_coremask
 .text.get_coremask_override
                0x00000000c00c6ef4      0x154 arch/mips/cpu/octeon/libocteon.o
                0x00000000c00c6ef4                get_coremask_override
 .text.octeon_get_available_coremask
                0x00000000c00c7048      0x5e4 arch/mips/cpu/octeon/libocteon.o
                0x00000000c00c7048                octeon_get_available_coremask
 .text.octeon_get_boot_vector
                0x00000000c00c762c       0x5c arch/mips/cpu/octeon/libocteon.o
                0x00000000c00c762c                octeon_get_boot_vector
 .text.octeon_setup_boot_vector
                0x00000000c00c7688      0x234 arch/mips/cpu/octeon/libocteon.o
                0x00000000c00c7688                octeon_setup_boot_vector
 .text.octeon_boot_bus_moveable_init
                0x00000000c00c78bc       0x68 arch/mips/cpu/octeon/libocteon.o
                0x00000000c00c78bc                octeon_boot_bus_moveable_init
 .text.octeon_bzero64_pfs
                0x00000000c00c7924      0x1f4 arch/mips/cpu/octeon/libocteon.o
                0x00000000c00c7924                octeon_bzero64_pfs
 .text.mem_copy_tlb
                0x00000000c00c7b18      0x204 arch/mips/cpu/octeon/libocteon.o
                0x00000000c00c7b18                mem_copy_tlb
 .text.validate_coremask
                0x00000000c00c7d1c      0x184 arch/mips/cpu/octeon/libocteon.o
                0x00000000c00c7d1c                validate_coremask
 .text.octeon_get_available_core_count
                0x00000000c00c7ea0       0x58 arch/mips/cpu/octeon/libocteon.o
                0x00000000c00c7ea0                octeon_get_available_core_count
 .text.cores_common_bootinfo_init
                0x00000000c00c7ef8      0x114 arch/mips/cpu/octeon/libocteon.o
 .text.octeon_setup_boot_desc_block
                0x00000000c00c800c      0xf08 arch/mips/cpu/octeon/libocteon.o
                0x00000000c00c800c                octeon_setup_boot_desc_block
 .text.start_cores
                0x00000000c00c8f14      0x400 arch/mips/cpu/octeon/libocteon.o
                0x00000000c00c8f14                start_cores
 .text.octeon_build_exception_table
                0x00000000c00c9314       0xd8 arch/mips/cpu/octeon/libocteon.o
                0x00000000c00c9314                octeon_build_exception_table
 .text.get_core_num
                0x00000000c00c93ec        0xc arch/mips/cpu/octeon/libocteon.o
                0x00000000c00c93ec                get_core_num
 .text.octeon_restore_std_mips_config
                0x00000000c00c93f8       0x54 arch/mips/cpu/octeon/libocteon.o
                0x00000000c00c93f8                octeon_restore_std_mips_config
 .text.overwrite_console
                0x00000000c00c944c        0x8 arch/mips/cpu/octeon/libocteon.o
                0x00000000c00c944c                overwrite_console
 .text.crc32_no_comp
                0x00000000c00c9454       0xa0 arch/mips/cpu/octeon/libocteon.o
                0x00000000c00c9454                crc32_no_comp
 .text.crc32    0x00000000c00c94f4       0x38 arch/mips/cpu/octeon/libocteon.o
                0x00000000c00c94f4                crc32
 .text.crc32_wd
                0x00000000c00c952c       0xbc arch/mips/cpu/octeon/libocteon.o
                0x00000000c00c952c                crc32_wd
 .text.crc32_wd_buf
                0x00000000c00c95e8       0x64 arch/mips/cpu/octeon/libocteon.o
                0x00000000c00c95e8                crc32_wd_buf
 .text.octeon_dram_clear_access_errors
                0x00000000c00c964c      0x848 arch/mips/cpu/octeon/libocteon.o
                0x00000000c00c964c                octeon_dram_clear_access_errors
 .text.octeon_import_ram_env
                0x00000000c00c9e94      0x1bc arch/mips/cpu/octeon/libocteon.o
                0x00000000c00c9e94                octeon_import_ram_env
 .text.octeon_clear_mem_pfs
                0x00000000c00ca050       0xc8 arch/mips/cpu/octeon/libocteon.o
                0x00000000c00ca050                octeon_clear_mem_pfs
 .text.octeon_dram_clear_ecc_errors
                0x00000000c00ca118      0x7e4 arch/mips/cpu/octeon/libocteon.o
                0x00000000c00ca118                octeon_dram_clear_ecc_errors
 .text.octeon_init_dram
                0x00000000c00ca8fc     0x144c arch/mips/cpu/octeon/libocteon.o
                0x00000000c00ca8fc                octeon_init_dram
 .text.on_watchdog_enable
                0x00000000c00cbd48       0x9c arch/mips/cpu/octeon/libocteon.o
 .text.on_pci_console_active
                0x00000000c00cbde4      0x3b8 arch/mips/cpu/octeon/libocteon.o
 .text.on_console_uart
                0x00000000c00cc19c       0x78 arch/mips/cpu/octeon/libocteon.o
 .text.octeon_env_init
                0x00000000c00cc214       0x18 arch/mips/cpu/octeon/libocteon.o
                0x00000000c00cc214                octeon_env_init
 .text.octeon_check_env
                0x00000000c00cc22c       0x5c arch/mips/cpu/octeon/libocteon.o
                0x00000000c00cc22c                octeon_check_env
 .text.octeon3_reset_wait_pend
                0x00000000c00cc288      0x42c arch/mips/cpu/octeon/libocteon.o
 .text.__octeon_early_errata_workaround_f
                0x00000000c00cc6b4       0x6c arch/mips/cpu/octeon/libocteon.o
                0x00000000c00cc6b4                octeon_early_errata_workaround_f
                0x00000000c00cc6b4                __octeon_early_errata_workaround_f
 .text.__octeon_enable_all_cores_cn78xx
                0x00000000c00cc720      0x6fc arch/mips/cpu/octeon/libocteon.o
                0x00000000c00cc720                __octeon_enable_all_cores_cn78xx
                0x00000000c00cc720                octeon_enable_all_cores_cn78xx
 .text.__octeon_late_errata_workaround_f
                0x00000000c00cce1c      0x160 arch/mips/cpu/octeon/libocteon.o
                0x00000000c00cce1c                octeon_late_errata_workaround_f
                0x00000000c00cce1c                __octeon_late_errata_workaround_f
 .text.do_bootelf_exec
                0x00000000c00ccf7c       0x94 arch/mips/cpu/octeon/libocteon.o
                0x00000000c00ccf7c                do_bootelf_exec
 .text.do_go_exec_uboot_app
                0x00000000c00cd010      0x37c arch/mips/cpu/octeon/libocteon.o
                0x00000000c00cd010                do_go_exec_uboot_app
 .text.do_go_exec
                0x00000000c00cd38c      0x168 arch/mips/cpu/octeon/libocteon.o
                0x00000000c00cd38c                do_go_exec
 .text.timer_init
                0x00000000c00cd4f4       0x50 arch/mips/cpu/octeon/libocteon.o
                0x00000000c00cd4f4                timer_init
 .text.get_timer
                0x00000000c00cd544       0x94 arch/mips/cpu/octeon/libocteon.o
                0x00000000c00cd544                get_timer
 .text.__udelay
                0x00000000c00cd5d8       0x48 arch/mips/cpu/octeon/libocteon.o
                0x00000000c00cd5d8                __udelay
 .text.get_ticks
                0x00000000c00cd620       0x3c arch/mips/cpu/octeon/libocteon.o
                0x00000000c00cd620                get_ticks
 .text.get_tbclk
                0x00000000c00cd65c        0x8 arch/mips/cpu/octeon/libocteon.o
                0x00000000c00cd65c                get_tbclk
 .text.convert_mac
                0x00000000c00cd664       0x30 arch/mips/cpu/octeon/libocteon.o
 .text.__octeon_fixup_fdt
                0x00000000c00cd694       0x60 arch/mips/cpu/octeon/libocteon.o
                0x00000000c00cd694                octeon_fixup_fdt
                0x00000000c00cd694                __octeon_fixup_fdt
 .text.octeon_fdt_node_check_compatible
                0x00000000c00cd6f4       0x98 arch/mips/cpu/octeon/libocteon.o
                0x00000000c00cd6f4                octeon_fdt_node_check_compatible
 .text.octeon_fdt_compat_vendor
                0x00000000c00cd78c      0x120 arch/mips/cpu/octeon/libocteon.o
                0x00000000c00cd78c                octeon_fdt_compat_vendor
 .text.__octeon_fixup_fdt_memory
                0x00000000c00cd8ac      0x1b0 arch/mips/cpu/octeon/libocteon.o
                0x00000000c00cd8ac                __octeon_fixup_fdt_memory
                0x00000000c00cd8ac                octeon_fixup_fdt_memory
 .text.octeon_set_one_fdt_mac
                0x00000000c00cda5c       0x9c arch/mips/cpu/octeon/libocteon.o
 .text.__octeon_fixup_fdt_uart
                0x00000000c00cdaf8       0xe8 arch/mips/cpu/octeon/libocteon.o
                0x00000000c00cdaf8                __octeon_fixup_fdt_uart
                0x00000000c00cdaf8                octeon_fixup_fdt_uart
 .text.__octeon_fixup_fdt_mac_addr
                0x00000000c00cdbe0      0x370 arch/mips/cpu/octeon/libocteon.o
                0x00000000c00cdbe0                __octeon_fixup_fdt_mac_addr
                0x00000000c00cdbe0                octeon_fixup_fdt_mac_addr
 .text.__octeon_fdt_patch_rename
                0x00000000c00cdf50      0x518 arch/mips/cpu/octeon/libocteon.o
                0x00000000c00cdf50                __octeon_fdt_patch_rename
                0x00000000c00cdf50                octeon_fdt_patch_rename
 .text.__octeon_fdt_patch
                0x00000000c00ce468       0x88 arch/mips/cpu/octeon/libocteon.o
                0x00000000c00ce468                __octeon_fdt_patch
                0x00000000c00ce468                octeon_fdt_patch
 .text.octeon_read_config
                0x00000000c00ce4f0       0xd0 arch/mips/cpu/octeon/libocteon.o
                0x00000000c00ce4f0                octeon_read_config
 .text.octeon_pci_read_config_byte
                0x00000000c00ce5c0       0x58 arch/mips/cpu/octeon/libocteon.o
 .text.octeon_pci_read_config_word
                0x00000000c00ce618       0x58 arch/mips/cpu/octeon/libocteon.o
 .text.octeon_pci_read_config_dword
                0x00000000c00ce670       0x58 arch/mips/cpu/octeon/libocteon.o
 .text.octeon_pci_mem1_readl
                0x00000000c00ce6c8       0xb4 arch/mips/cpu/octeon/libocteon.o
                0x00000000c00ce6c8                octeon_pci_mem1_readl
 .text.octeon_write_config
                0x00000000c00ce77c       0xc4 arch/mips/cpu/octeon/libocteon.o
 .text.octeon_pci_write_config_dword
                0x00000000c00ce840       0x44 arch/mips/cpu/octeon/libocteon.o
 .text.octeon_pci_write_config_word
                0x00000000c00ce884       0x48 arch/mips/cpu/octeon/libocteon.o
 .text.octeon_pci_write_config_byte
                0x00000000c00ce8cc       0x48 arch/mips/cpu/octeon/libocteon.o
 .text.octeon_pci_initialize
                0x00000000c00ce914      0x414 arch/mips/cpu/octeon/libocteon.o
                0x00000000c00ce914                octeon_pci_initialize
 .text.octeon_pci_write_io
                0x00000000c00ced28      0x10c arch/mips/cpu/octeon/libocteon.o
                0x00000000c00ced28                octeon_pci_write_io
 .text.octeon_pci_read_io
                0x00000000c00cee34       0xf8 arch/mips/cpu/octeon/libocteon.o
                0x00000000c00cee34                octeon_pci_read_io
 .text.init_octeon_pci
                0x00000000c00cef2c      0x29c arch/mips/cpu/octeon/libocteon.o
                0x00000000c00cef2c                init_octeon_pci
 .text.octeon_pci_port_num
                0x00000000c00cf1c8       0x10 arch/mips/cpu/octeon/libocteon.o
                0x00000000c00cf1c8                octeon_pci_port_num
 .text.pci_skip_dev
                0x00000000c00cf1d8        0x8 arch/mips/cpu/octeon/libocteon.o
                0x00000000c00cf1d8                pci_skip_dev
 .text.octeon_pcie_read_config_dword
                0x00000000c00cf1e0       0x88 arch/mips/cpu/octeon/libocteon.o
 .text.init_octeon_pcie
                0x00000000c00cf268      0x200 arch/mips/cpu/octeon/libocteon.o
                0x00000000c00cf268                init_octeon_pcie
 .text.octeon_pcie_write_config_byte
                0x00000000c00cf468       0x68 arch/mips/cpu/octeon/libocteon.o
 .text.octeon_pcie_write_config_word
                0x00000000c00cf4d0       0x68 arch/mips/cpu/octeon/libocteon.o
 .text.octeon_pcie_write_config_dword
                0x00000000c00cf538       0x68 arch/mips/cpu/octeon/libocteon.o
 .text.octeon_pcie_read_config_byte
                0x00000000c00cf5a0       0x88 arch/mips/cpu/octeon/libocteon.o
 .text.octeon_pcie_read_config_word
                0x00000000c00cf628       0x88 arch/mips/cpu/octeon/libocteon.o
 .text.get_tlb_mapping_size
                0x00000000c00cf6b0       0x5c arch/mips/cpu/octeon/libocteon.o
                0x00000000c00cf6b0                get_tlb_mapping_size
 .text.bl_write_tlb
                0x00000000c00cf70c       0x38 arch/mips/cpu/octeon/libocteon.o
                0x00000000c00cf70c                bl_write_tlb
 .text.copy_elf64_header
                0x00000000c00cf744       0x6c arch/mips/cpu/octeon/libocteon.o
                0x00000000c00cf744                copy_elf64_header
 .text.copy_elf64_section_header
                0x00000000c00cf7b0       0x54 arch/mips/cpu/octeon/libocteon.o
                0x00000000c00cf7b0                copy_elf64_section_header
 .text.copy_elf64_program_header
                0x00000000c00cf804       0x44 arch/mips/cpu/octeon/libocteon.o
                0x00000000c00cf804                copy_elf64_program_header
 .text.idle_core_start_app
                0x00000000c00cf848       0x8c arch/mips/cpu/octeon/libocteon.o
                0x00000000c00cf848                idle_core_start_app
 .text.alloc_tlbs
                0x00000000c00cf8d4      0x1ac arch/mips/cpu/octeon/libocteon.o
 .text.read_elf_info
                0x00000000c00cfa80      0x5ac arch/mips/cpu/octeon/libocteon.o
                0x00000000c00cfa80                read_elf_info
 .text.copy_tlb_entry
                0x00000000c00d002c       0xcc arch/mips/cpu/octeon/libocteon.o
                0x00000000c00d002c                copy_tlb_entry
 .text.octeon_setup_crt0_tlb
                0x00000000c00d00f8       0xe4 arch/mips/cpu/octeon/libocteon.o
 .text._start_app
                0x00000000c00d01dc      0x30c arch/mips/cpu/octeon/libocteon.o
 .text.start_app
                0x00000000c00d04e8       0x1c arch/mips/cpu/octeon/libocteon.o
                0x00000000c00d04e8                start_app
 .text.mem_set_tlb
                0x00000000c00d0504      0x1c8 arch/mips/cpu/octeon/libocteon.o
                0x00000000c00d0504                mem_set_tlb
 .text.add_tlb_mapping
                0x00000000c00d06cc      0x4bc arch/mips/cpu/octeon/libocteon.o
                0x00000000c00d06cc                add_tlb_mapping
 .text.octeon_parse_nodes
                0x00000000c00d0b88       0xa0 arch/mips/cpu/octeon/libocteon.o
 .text.octeon_parse_bootopts
                0x00000000c00d0c28      0x598 arch/mips/cpu/octeon/libocteon.o
                0x00000000c00d0c28                octeon_parse_bootopts
 .text.do_bootocteon
                0x00000000c00d11c0     0x108c arch/mips/cpu/octeon/libocteon.o
                0x00000000c00d11c0                do_bootocteon
 .text.elf_accessors_be16
                0x00000000c00d224c        0x8 arch/mips/cpu/octeon/libocteon.o
 .text.elf_accessors_be32
                0x00000000c00d2254        0x8 arch/mips/cpu/octeon/libocteon.o
 .text.elf_accessors_be64
                0x00000000c00d225c        0x8 arch/mips/cpu/octeon/libocteon.o
 .text.load_elf64_image
                0x00000000c00d2264      0x38c arch/mips/cpu/octeon/libocteon.o
                0x00000000c00d2264                load_elf64_image
 .text.load_elf_image
                0x00000000c00d25f0      0x1c0 arch/mips/cpu/octeon/libocteon.o
                0x00000000c00d25f0                load_elf_image
 .text.valid_elf_image
                0x00000000c00d27b0      0x124 arch/mips/cpu/octeon/libocteon.o
                0x00000000c00d27b0                valid_elf_image
 .text.elf_accessors_le32
                0x00000000c00d28d4       0x28 arch/mips/cpu/octeon/libocteon.o
 .text.elf_accessors_le16
                0x00000000c00d28fc       0x18 arch/mips/cpu/octeon/libocteon.o
 .text.elf_accessors_le64
                0x00000000c00d2914       0x68 arch/mips/cpu/octeon/libocteon.o
 .text.do_bootelf
                0x00000000c00d297c      0x104 arch/mips/cpu/octeon/libocteon.o
                0x00000000c00d297c                do_bootelf
 .text.do_icache_invalidate
                0x00000000c00d2a80       0x14 arch/mips/cpu/octeon/libocteon.o
                0x00000000c00d2a80                do_icache_invalidate
 .text.do_dcache_flush
                0x00000000c00d2a94       0x14 arch/mips/cpu/octeon/libocteon.o
                0x00000000c00d2a94                do_dcache_flush
 .text.do_flush_l2c
                0x00000000c00d2aa8       0x38 arch/mips/cpu/octeon/libocteon.o
                0x00000000c00d2aa8                do_flush_l2c
 .text.do_bootmem_free_print
                0x00000000c00d2ae0       0x38 arch/mips/cpu/octeon/libocteon.o
                0x00000000c00d2ae0                do_bootmem_free_print
 .text.do_bootmem_named_print
                0x00000000c00d2b18       0x38 arch/mips/cpu/octeon/libocteon.o
                0x00000000c00d2b18                do_bootmem_named_print
 .text.do_bootmem_named_free
                0x00000000c00d2b50       0x88 arch/mips/cpu/octeon/libocteon.o
                0x00000000c00d2b50                do_bootmem_named_free
 .text.do_bootmem_named_alloc
                0x00000000c00d2bd8      0x1d8 arch/mips/cpu/octeon/libocteon.o
                0x00000000c00d2bd8                do_bootmem_named_alloc
 .text.do_write64l
                0x00000000c00d2db0       0xa4 arch/mips/cpu/octeon/libocteon.o
                0x00000000c00d2db0                do_write64l
 .text.do_write64s
                0x00000000c00d2e54       0xa4 arch/mips/cpu/octeon/libocteon.o
                0x00000000c00d2e54                do_write64s
 .text.do_write64
                0x00000000c00d2ef8       0xd0 arch/mips/cpu/octeon/libocteon.o
                0x00000000c00d2ef8                do_write64
 .text.do_read64s
                0x00000000c00d2fc8       0x94 arch/mips/cpu/octeon/libocteon.o
                0x00000000c00d2fc8                do_read64s
 .text.do_read64l
                0x00000000c00d305c       0xa4 arch/mips/cpu/octeon/libocteon.o
                0x00000000c00d305c                do_read64l
 .text.do_read64
                0x00000000c00d3100       0xa4 arch/mips/cpu/octeon/libocteon.o
                0x00000000c00d3100                do_read64
 .text.do_write64b
                0x00000000c00d31a4       0xb0 arch/mips/cpu/octeon/libocteon.o
                0x00000000c00d31a4                do_write64b
 .text.do_read64b
                0x00000000c00d3254       0xb0 arch/mips/cpu/octeon/libocteon.o
                0x00000000c00d3254                do_read64b
 .text.do_mem_base64
                0x00000000c00d3304       0x68 arch/mips/cpu/octeon/libocteon.o
                0x00000000c00d3304                do_mem_base64
 .text.mod_mem64
                0x00000000c00d336c      0x28c arch/mips/cpu/octeon/libocteon.o
 .text.do_mem_nm64
                0x00000000c00d35f8       0x2c arch/mips/cpu/octeon/libocteon.o
                0x00000000c00d35f8                do_mem_nm64
 .text.do_mem_mm64
                0x00000000c00d3624       0x2c arch/mips/cpu/octeon/libocteon.o
                0x00000000c00d3624                do_mem_mm64
 .text.cmd_get_data_size_swap
                0x00000000c00d3650      0x118 arch/mips/cpu/octeon/libocteon.o
                0x00000000c00d3650                cmd_get_data_size_swap
 .text.print_buffer64
                0x00000000c00d3768      0x320 arch/mips/cpu/octeon/libocteon.o
                0x00000000c00d3768                print_buffer64
 .text.do_mem_md64
                0x00000000c00d3a88      0x164 arch/mips/cpu/octeon/libocteon.o
                0x00000000c00d3a88                do_mem_md64
 .text.do_mem_mw64
                0x00000000c00d3bec      0x25c arch/mips/cpu/octeon/libocteon.o
                0x00000000c00d3bec                do_mem_mw64
 .text.do_mem_cmp64
                0x00000000c00d3e48      0x230 arch/mips/cpu/octeon/libocteon.o
                0x00000000c00d3e48                do_mem_cmp64
 .text.do_mem_cp64
                0x00000000c00d4078      0x1dc arch/mips/cpu/octeon/libocteon.o
                0x00000000c00d4078                do_mem_cp64
 .text.do_mem_loop64
                0x00000000c00d4254      0x1e0 arch/mips/cpu/octeon/libocteon.o
                0x00000000c00d4254                do_mem_loop64
 .text.hw_watchdog_reset
                0x00000000c00d4434      0x174 arch/mips/cpu/octeon/libocteon.o
                0x00000000c00d4434                hw_watchdog_reset
 .text.hw_watchdog_start
                0x00000000c00d45a8      0x56c arch/mips/cpu/octeon/libocteon.o
                0x00000000c00d45a8                hw_watchdog_start
 .text.hw_watchdog_disable
                0x00000000c00d4b14      0x2c0 arch/mips/cpu/octeon/libocteon.o
                0x00000000c00d4b14                hw_watchdog_disable
 .text.octeon_watchdog_disable_all
                0x00000000c00d4dd4      0x4f8 arch/mips/cpu/octeon/libocteon.o
                0x00000000c00d4dd4                octeon_watchdog_disable_all
 .text.do_octeonwd
                0x00000000c00d52cc      0x1e0 arch/mips/cpu/octeon/libocteon.o
                0x00000000c00d52cc                do_octeonwd
 .text.md5      0x00000000c00d54ac      0x214 arch/mips/cpu/octeon/libocteon.o
                0x00000000c00d54ac                md5
 .text.md5_wd   0x00000000c00d56c0       0x6c arch/mips/cpu/octeon/libocteon.o
                0x00000000c00d56c0                md5_wd
 .text.sha1_starts
                0x00000000c00d572c       0x48 arch/mips/cpu/octeon/libocteon.o
                0x00000000c00d572c                sha1_starts
 .text.sha1_update
                0x00000000c00d5774      0x218 arch/mips/cpu/octeon/libocteon.o
                0x00000000c00d5774                sha1_update
 .text.sha1_finish
                0x00000000c00d598c      0x184 arch/mips/cpu/octeon/libocteon.o
                0x00000000c00d598c                sha1_finish
 .text.sha1_csum_wd
                0x00000000c00d5b10       0xe8 arch/mips/cpu/octeon/libocteon.o
                0x00000000c00d5b10                sha1_csum_wd
 .text.__set_qlm_pcie_mode_61xx
                0x00000000c00d5bf8       0xfc arch/mips/cpu/octeon/libocteon.o
 .text.__set_qlm_ref_clk_cn78xx
                0x00000000c00d5cf4       0x8c arch/mips/cpu/octeon/libocteon.o
 .text.__qlm_kr_inc_dec_gser26636
                0x00000000c00d5d80       0x8c arch/mips/cpu/octeon/libocteon.o
 .text.__setup_pem_reset
                0x00000000c00d5e0c       0x9c arch/mips/cpu/octeon/libocteon.o
 .text.__qlm_init_errata_20844
                0x00000000c00d5ea8      0x200 arch/mips/cpu/octeon/libocteon.o
 .text.__get_lane_mode_for_speed_and_ref_clk
                0x00000000c00d60a8      0x250 arch/mips/cpu/octeon/libocteon.o
 .text.__qlm_setup_pll_cn78xx
                0x00000000c00d62f8      0x2e4 arch/mips/cpu/octeon/libocteon.o
 .text.octeon_qlm_tune_per_lane_v3
                0x00000000c00d65dc      0x814 arch/mips/cpu/octeon/libocteon.o
                0x00000000c00d65dc                octeon_qlm_tune_per_lane_v3
 .text.__dlmx_setup_pcie_cn70xx
                0x00000000c00d6df0      0x7f4 arch/mips/cpu/octeon/libocteon.o
 .text.__dlm2_sata_uctl_init_cn70xx
                0x00000000c00d75e4      0x20c arch/mips/cpu/octeon/libocteon.o
 .text.__cvmx_qlm_pcie_errata_cn78xx
                0x00000000c00d77f0     0x1654 arch/mips/cpu/octeon/libocteon.o
 .text.__sata_dlm_init_cn70xx
                0x00000000c00d8e44      0x7d0 arch/mips/cpu/octeon/libocteon.o
 .text.__qlm_errata_gser_26150
                0x00000000c00d9614      0x748 arch/mips/cpu/octeon/libocteon.o
 .text.__sata_dlm_init_cn73xx
                0x00000000c00d9d5c      0xca0 arch/mips/cpu/octeon/libocteon.o
 .text.__sata_bist_cn70xx
                0x00000000c00da9fc      0x744 arch/mips/cpu/octeon/libocteon.o
 .text.__setup_sata
                0x00000000c00db140       0x1c arch/mips/cpu/octeon/libocteon.o
 .text.__dlm_setup_pll_cn70xx
                0x00000000c00db15c      0x550 arch/mips/cpu/octeon/libocteon.o
 .text.octeon_configure_qlm_cn70xx
                0x00000000c00db6ac      0xc90 arch/mips/cpu/octeon/libocteon.o
 .text.__set_sli_window_ctl_errata_31375
                0x00000000c00dc33c      0x288 arch/mips/cpu/octeon/libocteon.o
 .text.__qlm_rx_eq_temp_gser27140
                0x00000000c00dc5c4      0x3f4 arch/mips/cpu/octeon/libocteon.o
 .text.octeon_qlm_tune_v3
                0x00000000c00dc9b8       0xfc arch/mips/cpu/octeon/libocteon.o
                0x00000000c00dc9b8                octeon_qlm_tune_v3
 .text.octeon_configure_qlm_cn78xx
                0x00000000c00dcab4     0x1350 arch/mips/cpu/octeon/libocteon.o
                0x00000000c00dcab4                octeon_configure_qlm_cn78xx
 .text.cvmx_qlm_is_ref_clock
                0x00000000c00dde04       0x94 arch/mips/cpu/octeon/libocteon.o
                0x00000000c00dde04                cvmx_qlm_is_ref_clock
 .text.__get_qlm_spd
                0x00000000c00dde98      0x188 arch/mips/cpu/octeon/libocteon.o
 .text.octeon_configure_qlm_cn61xx
                0x00000000c00de020      0x404 arch/mips/cpu/octeon/libocteon.o
 .text.octeon_configure_qlm
                0x00000000c00de424     0x2458 arch/mips/cpu/octeon/libocteon.o
                0x00000000c00de424                octeon_configure_qlm
 .text.octeon_init_qlm
                0x00000000c00e087c      0x218 arch/mips/cpu/octeon/libocteon.o
                0x00000000c00e087c                octeon_init_qlm
 .text.generic_ffs
                0x00000000c00e0a94       0x6c arch/mips/lib/libmips.o
 .text.__board_fdt_get_limits
                0x00000000c00e0b00       0x20 arch/mips/lib/libmips.o
                0x00000000c00e0b00                __board_fdt_get_limits
                0x00000000c00e0b00                board_fdt_get_limits
 .text.misc_init_r
                0x00000000c00e0b20        0x8 arch/mips/lib/libmips.o
                0x00000000c00e0b20                misc_init_r
 .text.octeon_dram_test
                0x00000000c00e0b28        0x8 arch/mips/lib/libmips.o
                0x00000000c00e0b28                octeon_dram_test
 .text.octeon_early_console_init_f
                0x00000000c00e0b30       0x10 arch/mips/lib/libmips.o
 .text.display_banner
                0x00000000c00e0b40      0x1f8 arch/mips/lib/libmips.o
 .text.init_baudrate
                0x00000000c00e0d38       0x74 arch/mips/lib/libmips.o
 .text.disable_wdog_early
                0x00000000c00e0dac       0x38 arch/mips/lib/libmips.o
 .text.__octeon_clear_dram
                0x00000000c00e0de4      0x2a0 arch/mips/lib/libmips.o
                0x00000000c00e0de4                octeon_clear_dram
                0x00000000c00e0de4                __octeon_clear_dram
 .text.__octeon_configure_prompt
                0x00000000c00e1084      0xd10 arch/mips/lib/libmips.o
                0x00000000c00e1084                __octeon_configure_prompt
                0x00000000c00e1084                octeon_configure_prompt
 .text.__octeon_configure_linux_reserved_memory
                0x00000000c00e1d94      0x1e0 arch/mips/lib/libmips.o
                0x00000000c00e1d94                __octeon_configure_linux_reserved_memory
                0x00000000c00e1d94                octeon_configure_linux_reserved_memory
 .text.__octeon_configure_load_memory
                0x00000000c00e1f74      0x44c arch/mips/lib/libmips.o
                0x00000000c00e1f74                octeon_configure_load_memory
                0x00000000c00e1f74                __octeon_configure_load_memory
 .text.uart_debug
                0x00000000c00e23c0       0x98 arch/mips/lib/libmips.o
                0x00000000c00e23c0                uart_debug
 .text.__octeon_mac_info_init
                0x00000000c00e2458       0xdc arch/mips/lib/libmips.o
                0x00000000c00e2458                __octeon_mac_info_init
                0x00000000c00e2458                octeon_mac_info_init
 .text.__board_fdt_init_f
                0x00000000c00e2534       0x2c arch/mips/lib/libmips.o
                0x00000000c00e2534                __board_fdt_init_f
                0x00000000c00e2534                board_fdt_init_f
 .text.__early_uart_init_f
                0x00000000c00e2560       0x48 arch/mips/lib/libmips.o
                0x00000000c00e2560                early_uart_init_f
                0x00000000c00e2560                __early_uart_init_f
 .text.__octeon_set_boardname
                0x00000000c00e25a8      0xc78 arch/mips/lib/libmips.o
                0x00000000c00e25a8                __octeon_set_boardname
                0x00000000c00e25a8                octeon_set_boardname
 .text.__octeon_setup_clocks
                0x00000000c00e3220      0x1ac arch/mips/lib/libmips.o
                0x00000000c00e3220                __octeon_setup_clocks
                0x00000000c00e3220                octeon_setup_clocks
 .text.board_init_f
                0x00000000c00e33cc      0x584 arch/mips/lib/libmips.o
                0x00000000c00e33cc                board_init_f
 .text.board_init_r
                0x00000000c00e3950     0x1904 arch/mips/lib/libmips.o
                0x00000000c00e3950                board_init_r
 .text.linux_env_set
                0x00000000c00e5254      0x110 arch/mips/lib/libmips.o
 .text.boot_prep_linux
                0x00000000c00e5364      0x334 arch/mips/lib/libmips.o
 .text.boot_jump_linux
                0x00000000c00e5698       0x70 arch/mips/lib/libmips.o
 .text.do_bootm_linux
                0x00000000c00e5708       0xac arch/mips/lib/libmips.o
                0x00000000c00e5708                do_bootm_linux
 .text.octeon_boot_bus_board_init
                0x00000000c00e57b4       0x64 board/juniper/common/libjuniper.o
                0x00000000c00e57b4                octeon_boot_bus_board_init
 .text.board_write_id_eeprom
                0x00000000c00e5818       0x50 board/juniper/common/libjuniper.o
                0x00000000c00e5818                board_write_id_eeprom
 .text.board_read_id_eeprom
                0x00000000c00e5868       0x54 board/juniper/common/libjuniper.o
                0x00000000c00e5868                board_read_id_eeprom
 .text.octeon_board_get_mac_addr
                0x00000000c00e58bc       0xd8 board/juniper/common/libjuniper.o
                0x00000000c00e58bc                octeon_board_get_mac_addr
 .text.octeon_board_get_descriptor
                0x00000000c00e5994      0x1cc board/juniper/common/libjuniper.o
                0x00000000c00e5994                octeon_board_get_descriptor
 .text.octeon_adjust_board_name
                0x00000000c00e5b60        0x8 board/octeon/common/libocteon.o
                0x00000000c00e5b60                octeon_adjust_board_name
 .text.board_usb_preinit
                0x00000000c00e5b68        0x8 board/octeon/common/libocteon.o
                0x00000000c00e5b68                board_usb_preinit
 .text.board_usb_postinit
                0x00000000c00e5b70        0x8 board/octeon/common/libocteon.o
                0x00000000c00e5b70                board_usb_postinit
 .text.octeon_get_fuse_addr
                0x00000000c00e5b78       0x70 board/octeon/common/libocteon.o
 .text.octeon_get_fuse
                0x00000000c00e5be8      0x1dc board/octeon/common/libocteon.o
                0x00000000c00e5be8                octeon_get_fuse
 .text.__octeon_led_str_write
                0x00000000c00e5dc4        0x8 board/octeon/common/libocteon.o
                0x00000000c00e5dc4                octeon_led_str_write
                0x00000000c00e5dc4                __octeon_led_str_write
 .text.__board_mdio_init
                0x00000000c00e5dcc       0x18 board/octeon/common/libocteon.o
                0x00000000c00e5dcc                board_mdio_init
                0x00000000c00e5dcc                __board_mdio_init
 .text.__octeon_board_get_clock_info
                0x00000000c00e5de4      0x138 board/octeon/common/libocteon.o
                0x00000000c00e5de4                octeon_board_get_clock_info
                0x00000000c00e5de4                __octeon_board_get_clock_info
 .text.__octeon_board_create_random_mac_addr
                0x00000000c00e5f1c      0x1a8 board/octeon/common/libocteon.o
                0x00000000c00e5f1c                octeon_board_create_random_mac_addr
                0x00000000c00e5f1c                __octeon_board_create_random_mac_addr
 .text.octeon_get_unique_id
                0x00000000c00e60c4      0x260 board/octeon/common/libocteon.o
                0x00000000c00e60c4                octeon_get_unique_id
 .text.__display_board_info
                0x00000000c00e6324      0xe3c board/octeon/common/libocteon.o
                0x00000000c00e6324                __display_board_info
                0x00000000c00e6324                display_board_info
 .text.octeon_add_user_boot_bus_fdt_devices
                0x00000000c00e7160        0x8 board/octeon/common/libocteon.o
                0x00000000c00e7160                octeon_add_user_boot_bus_fdt_devices
 .text.octeon_boot_bus_board_late_init
                0x00000000c00e7168        0x8 board/octeon/common/libocteon.o
                0x00000000c00e7168                octeon_boot_bus_board_late_init
 .text.__octeon_boot_bus_pal_init
                0x00000000c00e7170       0x6c board/octeon/common/libocteon.o
                0x00000000c00e7170                __octeon_boot_bus_pal_init
                0x00000000c00e7170                octeon_boot_bus_pal_init
 .text.octeon_boot_bus_board_post_init
                0x00000000c00e71dc        0x8 board/octeon/common/libocteon.o
                0x00000000c00e71dc                octeon_boot_bus_board_post_init
 .text.__boot_bus_time_encode
                0x00000000c00e71e4      0x114 board/octeon/common/libocteon.o
                0x00000000c00e71e4                __boot_bus_time_encode
                0x00000000c00e71e4                boot_bus_time_encode
 .text.__octeon_boot_bus_init
                0x00000000c00e72f8      0x284 board/octeon/common/libocteon.o
                0x00000000c00e72f8                __octeon_boot_bus_init
                0x00000000c00e72f8                octeon_boot_bus_init
 .text.__octeon_boot_bus_get_range
                0x00000000c00e757c      0x170 board/octeon/common/libocteon.o
                0x00000000c00e757c                octeon_boot_bus_get_range
                0x00000000c00e757c                __octeon_boot_bus_get_range
 .text.__octeon_boot_bus_get_fdt_info
                0x00000000c00e76ec      0x8c8 board/octeon/common/libocteon.o
                0x00000000c00e76ec                __octeon_boot_bus_get_fdt_info
                0x00000000c00e76ec                octeon_boot_bus_get_fdt_info
 .text.boot_bus_get_handler
                0x00000000c00e7fb4       0xec board/octeon/common/libocteon.o
                0x00000000c00e7fb4                boot_bus_get_handler
 .text.octeon_boot_bus_add_fdt_handler
                0x00000000c00e80a0       0xc8 board/octeon/common/libocteon.o
                0x00000000c00e80a0                octeon_boot_bus_add_fdt_handler
 .text.__octeon_boot_bus_late_init
                0x00000000c00e8168      0x1f4 board/octeon/common/libocteon.o
                0x00000000c00e8168                __octeon_boot_bus_late_init
                0x00000000c00e8168                octeon_boot_bus_late_init
 .text.__octeon_boot_bus_generic_init
                0x00000000c00e835c      0x348 board/octeon/common/libocteon.o
                0x00000000c00e835c                __octeon_boot_bus_generic_init
                0x00000000c00e835c                octeon_boot_bus_generic_init
 .text.pci_init_board
                0x00000000c00e86a4       0x90 board/octeon/common/libocteon.o
                0x00000000c00e86a4                pci_init_board
 .text.octeon_board_pre_phy_init
                0x00000000c00e8734        0x8 board/octeon/common/libocteon.o
                0x00000000c00e8734                octeon_board_pre_phy_init
 .text.octeon_board_post_phy_init
                0x00000000c00e873c        0x8 board/octeon/common/libocteon.o
                0x00000000c00e873c                octeon_board_post_phy_init
 .text.__octeon_fdt_generic_8023_c45_config
                0x00000000c00e8744      0x134 board/octeon/common/libocteon.o
                0x00000000c00e8744                octeon_fdt_generic_8023_c45_config
                0x00000000c00e8744                __octeon_fdt_generic_8023_c45_config
 .text.octeon_board_phy_init
                0x00000000c00e8878      0x700 board/octeon/common/libocteon.o
                0x00000000c00e8878                octeon_board_phy_init
 .text.do_go    0x00000000c00e8f78       0xac common/libcommon.o
 .text.do_bootd
                0x00000000c00e9024       0x58 common/libcommon.o
                0x00000000c00e9024                do_bootd
 .text.copy_args
                0x00000000c00e907c       0xc8 common/libcommon.o
 .text.do_bootm_plan9
                0x00000000c00e9144      0x12c common/libcommon.o
 .text.do_bootm_states
                0x00000000c00e9270      0xca8 common/libcommon.o
 .text.do_bootm
                0x00000000c00e9f18      0x14c common/libcommon.o
                0x00000000c00e9f18                do_bootm
 .text.bootm_maybe_autostart
                0x00000000c00ea064       0xb0 common/libcommon.o
                0x00000000c00ea064                bootm_maybe_autostart
 .text.do_bootm_netbsd
                0x00000000c00ea114      0x1a4 common/libcommon.o
 .text.do_bootm_rtems
                0x00000000c00ea2b8       0x94 common/libcommon.o
 .text.common_diskboot
                0x00000000c00ea34c      0x364 common/libcommon.o
                0x00000000c00ea34c                common_diskboot
 .text.do_echo  0x00000000c00ea6b0      0x154 common/libcommon.o
 .text.eeprom_write
                0x00000000c00ea804       0xf0 common/libcommon.o
                0x00000000c00ea804                eeprom_write
 .text.eeprom_read
                0x00000000c00ea8f4       0xe0 common/libcommon.o
                0x00000000c00ea8f4                eeprom_read
 .text.do_eeprom
                0x00000000c00ea9d4      0x174 common/libcommon.o
                0x00000000c00ea9d4                do_eeprom
 .text.do_fat_fswrite
                0x00000000c00eab48      0x1bc common/libcommon.o
 .text.do_fat_fsinfo
                0x00000000c00ead04       0xdc common/libcommon.o
 .text.do_fat_ls
                0x00000000c00eade0       0x18 common/libcommon.o
 .text.do_fat_fsload
                0x00000000c00eadf8       0x1c common/libcommon.o
                0x00000000c00eadf8                do_fat_fsload
 .text.is_printable_string
                0x00000000c00eae14       0xa0 common/libcommon.o
 .text.fdt_valid
                0x00000000c00eaeb4      0x10c common/libcommon.o
 .text.print_data
                0x00000000c00eafc0      0x2bc common/libcommon.o
 .text.set_working_fdt_addr
                0x00000000c00eb27c       0x2c common/libcommon.o
                0x00000000c00eb27c                set_working_fdt_addr
 .text.do_fdt   0x00000000c00eb2a8     0x1244 common/libcommon.o
 .text.do_gpio  0x00000000c00ec4ec      0x1c0 common/libcommon.o
 .text.do_help  0x00000000c00ec6ac       0x4c common/libcommon.o
 .text.i2c_init_board
                0x00000000c00ec6f8        0x8 common/libcommon.o
                0x00000000c00ec6f8                i2c_init_board
 .text.get_alen
                0x00000000c00ec700       0x40 common/libcommon.o
 .text.do_i2c   0x00000000c00ec740       0xb4 common/libcommon.o
 .text.do_i2c_bus_speed
                0x00000000c00ec7f4       0xb4 common/libcommon.o
 .text.do_i2c_show_bus
                0x00000000c00ec8a8      0x1ac common/libcommon.o
                0x00000000c00ec8a8                do_i2c_show_bus
 .text.do_i2c_reset
                0x00000000c00eca54       0x60 common/libcommon.o
 .text.do_i2c_mw
                0x00000000c00ecab4      0x180 common/libcommon.o
 .text.do_i2c_write
                0x00000000c00ecc34      0x198 common/libcommon.o
 .text.do_i2c_loop
                0x00000000c00ecdcc      0x178 common/libcommon.o
 .text.do_i2c_read
                0x00000000c00ecf44      0x11c common/libcommon.o
 .text.do_i2c_probe
                0x00000000c00ed060       0xf4 common/libcommon.o
 .text.do_i2c_md
                0x00000000c00ed154      0x274 common/libcommon.o
 .text.mod_i2c_mem
                0x00000000c00ed3c8      0x2d8 common/libcommon.o
 .text.do_i2c_nm
                0x00000000c00ed6a0       0x2c common/libcommon.o
 .text.do_i2c_mm
                0x00000000c00ed6cc       0x2c common/libcommon.o
 .text.do_i2c_crc
                0x00000000c00ed6f8      0x198 common/libcommon.o
 .text.do_i2c_bus_num
                0x00000000c00ed890      0x10c common/libcommon.o
                0x00000000c00ed890                do_i2c_bus_num
 .text.ktrans   0x00000000c00ed99c       0x3c common/libcommon.o
 .text.chk1     0x00000000c00ed9d8       0x28 common/libcommon.o
 .text.bin_data_init
                0x00000000c00eda00       0x28 common/libcommon.o
 .text.bin_data_char
                0x00000000c00eda28       0x38 common/libcommon.o
 .text.load_serial_ymodem
                0x00000000c00eda60      0x158 common/libcommon.o
 .text.getcxmodem
                0x00000000c00edbb8       0x4c common/libcommon.o
 .text.s1_sendpacket
                0x00000000c00edc04       0xa8 common/libcommon.o
 .text.do_load_serial_bin
                0x00000000c00edcac      0xab4 common/libcommon.o
 .text.write_record
                0x00000000c00ee760       0x7c common/libcommon.o
 .text.do_load_serial
                0x00000000c00ee7dc      0x3d0 common/libcommon.o
 .text.do_save_serial
                0x00000000c00eebac      0x25c common/libcommon.o
                0x00000000c00eebac                do_save_serial
 .text.do_md5sum
                0x00000000c00eee08      0x1d4 common/libcommon.o
 .text.extract_range
                0x00000000c00eefdc      0x14c common/libcommon.o
 .text.do_mdio  0x00000000c00ef128      0x4cc common/libcommon.o
 .text.do_mem_loop
                0x00000000c00ef5f4      0x1b8 common/libcommon.o
 .text.do_mem_base
                0x00000000c00ef7ac       0x68 common/libcommon.o
 .text.do_mem_crc
                0x00000000c00ef814       0xd8 common/libcommon.o
 .text.mod_mem  0x00000000c00ef8ec      0x24c common/libcommon.o
 .text.do_mem_nm
                0x00000000c00efb38       0x2c common/libcommon.o
 .text.do_mem_mm
                0x00000000c00efb64       0x2c common/libcommon.o
 .text.board_show_dram
                0x00000000c00efb90       0x54 common/libcommon.o
                0x00000000c00efb90                board_show_dram
 .text.do_mem_info
                0x00000000c00efbe4       0x3c common/libcommon.o
 .text.do_mem_cp
                0x00000000c00efc20      0x190 common/libcommon.o
 .text.do_mem_md
                0x00000000c00efdb0      0x12c common/libcommon.o
 .text.do_mem_mw
                0x00000000c00efedc      0x140 common/libcommon.o
 .text.do_mem_cmp
                0x00000000c00f001c      0x21c common/libcommon.o
 .text.do_mii   0x00000000c00f0238      0x94c common/libcommon.o
 .text.do_sleep
                0x00000000c00f0b84      0x108 common/libcommon.o
 .text.do_ping  0x00000000c00f0c8c       0x98 common/libcommon.o
 .text.do_dns   0x00000000c00f0d24       0xdc common/libcommon.o
                0x00000000c00f0d24                do_dns
 .text.netboot_common
                0x00000000c00f0e00      0x414 common/libcommon.o
 .text.do_nfs   0x00000000c00f1214       0x20 common/libcommon.o
 .text.do_dhcp  0x00000000c00f1234       0x20 common/libcommon.o
 .text.do_tftpsrv
                0x00000000c00f1254       0x20 common/libcommon.o
 .text.do_tftpput
                0x00000000c00f1274       0x20 common/libcommon.o
                0x00000000c00f1274                do_tftpput
 .text.do_bootp
                0x00000000c00f1294       0x20 common/libcommon.o
 .text.do_cdp   0x00000000c00f12b4      0x108 common/libcommon.o
                0x00000000c00f12b4                do_cdp
 .text.do_tftpb
                0x00000000c00f13bc       0x88 common/libcommon.o
                0x00000000c00f13bc                do_tftpb
 .text.get_env_id
                0x00000000c00f1444       0x18 common/libcommon.o
                0x00000000c00f1444                get_env_id
 .text.print_active_callback
                0x00000000c00f145c       0xb0 common/libcommon.o
 .text.print_static_binding
                0x00000000c00f150c       0x48 common/libcommon.o
 .text.do_env_delete
                0x00000000c00f1554       0xec common/libcommon.o
 .text._do_env_set
                0x00000000c00f1640      0x238 common/libcommon.o
 .text.do_env_set
                0x00000000c00f1878       0x34 common/libcommon.o
 .text.setenv_force
                0x00000000c00f18ac       0x8c common/libcommon.o
                0x00000000c00f18ac                setenv_force
 .text.setenv   0x00000000c00f1938       0x80 common/libcommon.o
                0x00000000c00f1938                setenv
 .text.env_print
                0x00000000c00f19b8       0xf0 common/libcommon.o
 .text.do_env_print
                0x00000000c00f1aa8      0x150 common/libcommon.o
 .text.do_env   0x00000000c00f1bf8       0xb4 common/libcommon.o
 .text.do_env_import
                0x00000000c00f1cac      0x2c8 common/libcommon.o
 .text.setenv_hex
                0x00000000c00f1f74       0x5c common/libcommon.o
                0x00000000c00f1f74                setenv_hex
 .text.do_env_export
                0x00000000c00f1fd0      0x304 common/libcommon.o
 .text.do_env_default
                0x00000000c00f22d4       0xe4 common/libcommon.o
 .text.do_env_save
                0x00000000c00f23b8       0x50 common/libcommon.o
 .text.envmatch
                0x00000000c00f2408       0xc4 common/libcommon.o
                0x00000000c00f2408                envmatch
 .text.getenv_f
                0x00000000c00f24cc      0x138 common/libcommon.o
                0x00000000c00f24cc                getenv_f
 .text.getenv   0x00000000c00f2604       0xb0 common/libcommon.o
                0x00000000c00f2604                getenv
 .text.getenv_ulong
                0x00000000c00f26b4       0x78 common/libcommon.o
                0x00000000c00f26b4                getenv_ulong
 .text.getenv_hex
                0x00000000c00f272c       0x70 common/libcommon.o
                0x00000000c00f272c                getenv_hex
 .text.do_env_flags
                0x00000000c00f279c      0x1cc common/libcommon.o
                0x00000000c00f279c                do_env_flags
 .text.do_env_callback
                0x00000000c00f2968      0x1a0 common/libcommon.o
                0x00000000c00f2968                do_env_callback
 .text.print_active_flags
                0x00000000c00f2b08       0x9c common/libcommon.o
 .text.print_static_flags
                0x00000000c00f2ba4       0xa4 common/libcommon.o
 .text.setenv_ulong
                0x00000000c00f2c48       0x4c common/libcommon.o
                0x00000000c00f2c48                setenv_ulong
 .text.pci_cfg_write
                0x00000000c00f2c94       0x68 common/libcommon.o
 .text.pci_cfg_modify
                0x00000000c00f2cfc      0x1fc common/libcommon.o
 .text.pci_header_show
                0x00000000c00f2ef8      0xba0 common/libcommon.o
                0x00000000c00f2ef8                pci_header_show
 .text.pci_header_show_brief
                0x00000000c00f3a98       0xbc common/libcommon.o
                0x00000000c00f3a98                pci_header_show_brief
 .text.pciinfo  0x00000000c00f3b54      0x1e4 common/libcommon.o
                0x00000000c00f3b54                pciinfo
 .text.do_pci   0x00000000c00f3d38      0x508 common/libcommon.o
 .text.sata_get_dev
                0x00000000c00f4240       0x3c common/libcommon.o
                0x00000000c00f4240                sata_get_dev
 .text.do_sata  0x00000000c00f427c      0x5a4 common/libcommon.o
 .text.__sata_initialize
                0x00000000c00f4820      0x12c common/libcommon.o
                0x00000000c00f4820                sata_initialize
                0x00000000c00f4820                __sata_initialize
 .text.__scan_sata_devices
                0x00000000c00f494c       0xb4 common/libcommon.o
                0x00000000c00f494c                __scan_sata_devices
                0x00000000c00f494c                scan_sata_devices
 .text.bytes_per_second
                0x00000000c00f4a00       0x84 common/libcommon.o
 .text.spi_flash_update
                0x00000000c00f4a84      0x34c common/libcommon.o
                0x00000000c00f4a84                spi_flash_update
 .text.do_spi_flash
                0x00000000c00f4dd0      0x5dc common/libcommon.o
 .text.do_sha1sum
                0x00000000c00f53ac       0x48 common/libcommon.o
                0x00000000c00f53ac                do_sha1sum
 .text.do_spi   0x00000000c00f53f4      0x32c common/libcommon.o
                0x00000000c00f53f4                do_spi
 .text.type_string_get_space_size
                0x00000000c00f5720       0x58 common/libcommon.o
 .text.do_tpm   0x00000000c00f5778       0xb4 common/libcommon.o
 .text.type_string_get_num_values
                0x00000000c00f582c       0x18 common/libcommon.o
 .text.type_string_alloc
                0x00000000c00f5844       0x6c common/libcommon.o
 .text.parse_byte_string
                0x00000000c00f58b0      0x104 common/libcommon.o
 .text.do_tpm_nv_define_space
                0x00000000c00f59b4       0xb0 common/libcommon.o
 .text.print_byte_string
                0x00000000c00f5a64      0x120 common/libcommon.o
                0x00000000c00f5a64                print_byte_string
 .text.do_tpm_startup
                0x00000000c00f5b84       0xc4 common/libcommon.o
 .text.do_tpm_nv_write
                0x00000000c00f5c48      0x1d0 common/libcommon.o
 .text.do_tpm_nv_read
                0x00000000c00f5e18      0x1d4 common/libcommon.o
 .text.do_tpm_nv_define
                0x00000000c00f5fec       0xc8 common/libcommon.o
 .text.do_tpm_raw_transfer
                0x00000000c00f60b4       0xe0 common/libcommon.o
 .text.do_tpm_physical_disable
                0x00000000c00f6194       0x48 common/libcommon.o
 .text.do_tpm_physical_enable
                0x00000000c00f61dc       0x48 common/libcommon.o
 .text.do_tpm_force_clear
                0x00000000c00f6224       0x48 common/libcommon.o
 .text.do_tpm_continue_self_test
                0x00000000c00f626c       0x48 common/libcommon.o
 .text.do_tpm_self_test_full
                0x00000000c00f62b4       0x48 common/libcommon.o
 .text.do_tpm_init
                0x00000000c00f62fc       0x48 common/libcommon.o
 .text.do_tpm_get_capability
                0x00000000c00f6344      0x100 common/libcommon.o
 .text.do_tpm_physical_set_deactivated
                0x00000000c00f6444       0x5c common/libcommon.o
 .text.do_tpm_read_pubek
                0x00000000c00f64a0       0xb8 common/libcommon.o
 .text.do_tpm_tsc_physical_presence
                0x00000000c00f6558       0x5c common/libcommon.o
 .text.do_tpm_pcr_read
                0x00000000c00f65b4       0xdc common/libcommon.o
 .text.do_tpm_extend
                0x00000000c00f6690       0xe0 common/libcommon.o
 .text.do_tpm_nv_write_value
                0x00000000c00f6770       0xd4 common/libcommon.o
 .text.do_tpm_nv_read_value
                0x00000000c00f6844       0xdc common/libcommon.o
 .text.do_usbboot
                0x00000000c00f6920       0x1c common/libcommon.o
 .text.usb_display_class_sub
                0x00000000c00f693c      0x2b8 common/libcommon.o
 .text.usb_find_device
                0x00000000c00f6bf4       0x84 common/libcommon.o
 .text.usb_show_tree_graph
                0x00000000c00f6c78      0x374 common/libcommon.o
 .text.usb_display_desc
                0x00000000c00f6fec      0x2f8 common/libcommon.o
 .text.usb_display_string
                0x00000000c00f72e4       0x68 common/libcommon.o
 .text.usb_display_config
                0x00000000c00f734c      0x330 common/libcommon.o
 .text.do_usb   0x00000000c00f767c      0xac0 common/libcommon.o
 .text.print_cavium_licence
                0x00000000c00f813c      0x290 common/libcommon.o
                0x00000000c00f813c                print_cavium_licence
 .text.do_version
                0x00000000c00f83cc       0x6c common/libcommon.o
 .text.cmd_get_data_size
                0x00000000c00f8438       0xc0 common/libcommon.o
                0x00000000c00f8438                cmd_get_data_size
 .text.cmd_usage
                0x00000000c00f84f8       0x94 common/libcommon.o
                0x00000000c00f84f8                cmd_usage
 .text.var_complete
                0x00000000c00f858c       0x6c common/libcommon.o
                0x00000000c00f858c                var_complete
 .text.find_cmd_tbl
                0x00000000c00f85f8      0x114 common/libcommon.o
                0x00000000c00f85f8                find_cmd_tbl
 .text.find_cmd
                0x00000000c00f870c       0x34 common/libcommon.o
                0x00000000c00f870c                find_cmd
 .text.cmd_process
                0x00000000c00f8740      0x18c common/libcommon.o
                0x00000000c00f8740                cmd_process
 .text.cmd_auto_complete
                0x00000000c00f88cc      0x55c common/libcommon.o
                0x00000000c00f88cc                cmd_auto_complete
 .text._do_help
                0x00000000c00f8e28      0x234 common/libcommon.o
                0x00000000c00f8e28                _do_help
 .text.on_silent
                0x00000000c00f905c        0x8 common/libcommon.o
 .text.console_tstc
                0x00000000c00f9064       0xd4 common/libcommon.o
 .text.fgetc    0x00000000c00f9138       0x98 common/libcommon.o
                0x00000000c00f9138                fgetc
 .text.ftstc    0x00000000c00f91d0       0x2c common/libcommon.o
                0x00000000c00f91d0                ftstc
 .text.fputc    0x00000000c00f91fc       0xb0 common/libcommon.o
                0x00000000c00f91fc                fputc
 .text.fputs    0x00000000c00f92ac       0xb0 common/libcommon.o
                0x00000000c00f92ac                fputs
 .text.disable_ctrlc
                0x00000000c00f935c       0x1c common/libcommon.o
                0x00000000c00f935c                disable_ctrlc
 .text.had_ctrlc
                0x00000000c00f9378       0x18 common/libcommon.o
                0x00000000c00f9378                had_ctrlc
 .text.clear_ctrlc
                0x00000000c00f9390       0x18 common/libcommon.o
                0x00000000c00f9390                clear_ctrlc
 .text.getc     0x00000000c00f93a8       0x40 common/libcommon.o
                0x00000000c00f93a8                getc
 .text.tstc     0x00000000c00f93e8       0x40 common/libcommon.o
                0x00000000c00f93e8                tstc
 .text.ctrlc    0x00000000c00f9428       0x88 common/libcommon.o
                0x00000000c00f9428                ctrlc
 .text.putc     0x00000000c00f94b0       0x58 common/libcommon.o
                0x00000000c00f94b0                putc
 .text.puts     0x00000000c00f9508       0x54 common/libcommon.o
                0x00000000c00f9508                puts
 .text.console_init_f
                0x00000000c00f955c       0x58 common/libcommon.o
                0x00000000c00f955c                console_init_f
 .text.search_device
                0x00000000c00f95b4       0x58 common/libcommon.o
                0x00000000c00f95b4                search_device
 .text.console_assign
                0x00000000c00f960c      0x108 common/libcommon.o
                0x00000000c00f960c                console_assign
 .text.vprintf  0x00000000c00f9714       0x64 common/libcommon.o
                0x00000000c00f9714                vprintf
 .text.printf   0x00000000c00f9778       0x90 common/libcommon.o
                0x00000000c00f9778                printf
 .text.on_console
                0x00000000c00f9808      0x110 common/libcommon.o
 .text.fprintf  0x00000000c00f9918       0x90 common/libcommon.o
                0x00000000c00f9918                fprintf
 .text.serial_printf
                0x00000000c00f99a8       0x88 common/libcommon.o
                0x00000000c00f99a8                serial_printf
 .text.console_init_r
                0x00000000c00f9a30      0x254 common/libcommon.o
                0x00000000c00f9a30                console_init_r
 .text.mem_malloc_init
                0x00000000c00f9c84       0x38 common/libcommon.o
                0x00000000c00f9c84                mem_malloc_init
 .text.sbrk     0x00000000c00f9cbc       0x94 common/libcommon.o
                0x00000000c00f9cbc                sbrk
 .text.malloc_trim
                0x00000000c00f9d50      0x11c common/libcommon.o
                0x00000000c00f9d50                malloc_trim
 .text.free     0x00000000c00f9e6c      0x2bc common/libcommon.o
                0x00000000c00f9e6c                free
 .text.malloc   0x00000000c00fa128      0x7bc common/libcommon.o
                0x00000000c00fa128                malloc
 .text.calloc   0x00000000c00fa8e4      0x108 common/libcommon.o
                0x00000000c00fa8e4                calloc
 .text.memalign
                0x00000000c00fa9ec      0x190 common/libcommon.o
                0x00000000c00fa9ec                memalign
 .text.realloc  0x00000000c00fab7c      0x5b4 common/libcommon.o
                0x00000000c00fab7c                realloc
 .text.reverse_strstr
                0x00000000c00fb130       0xc8 common/libcommon.o
 .text.env_attr_lookup
                0x00000000c00fb1f8      0x1bc common/libcommon.o
                0x00000000c00fb1f8                env_attr_lookup
 .text.env_attr_walk
                0x00000000c00fb3b4      0x1ec common/libcommon.o
                0x00000000c00fb3b4                env_attr_walk
 .text.clear_callback
                0x00000000c00fb5a0        0xc common/libcommon.o
 .text.on_callbacks
                0x00000000c00fb5ac       0x7c common/libcommon.o
 .text.find_env_callback
                0x00000000c00fb628       0xb8 common/libcommon.o
 .text.set_callback
                0x00000000c00fb6e0       0xbc common/libcommon.o
 .text.env_callback_init
                0x00000000c00fb79c       0xec common/libcommon.o
                0x00000000c00fb79c                env_callback_init
 .text.__env_get_char_spec
                0x00000000c00fb888       0x10 common/libcommon.o
                0x00000000c00fb888                env_get_char_spec
 .text.env_get_addr
                0x00000000c00fb898       0x2c common/libcommon.o
                0x00000000c00fb898                env_get_addr
 .text.env_get_char_memory
                0x00000000c00fb8c4       0x38 common/libcommon.o
                0x00000000c00fb8c4                env_get_char_memory
 .text.env_get_char
                0x00000000c00fb8fc       0x74 common/libcommon.o
                0x00000000c00fb8fc                env_get_char
 .text.env_complete
                0x00000000c00fb970      0x164 common/libcommon.o
                0x00000000c00fb970                env_complete
 .text.set_default_vars
                0x00000000c00fbad4       0x30 common/libcommon.o
                0x00000000c00fbad4                set_default_vars
 .text.set_default_env
                0x00000000c00fbb04       0xdc common/libcommon.o
                0x00000000c00fbb04                set_default_env
 .text.env_relocate
                0x00000000c00fbbe0       0x5c common/libcommon.o
                0x00000000c00fbbe0                env_relocate
 .text.__env_import
                0x00000000c00fbc3c      0x100 common/libcommon.o
                0x00000000c00fbc3c                env_import
                0x00000000c00fbc3c                __env_import
 .text.getenv_default
                0x00000000c00fbd3c       0x68 common/libcommon.o
                0x00000000c00fbd3c                getenv_default
 .text.getenv_yesno
                0x00000000c00fbda4       0x74 common/libcommon.o
                0x00000000c00fbda4                getenv_yesno
 .text.env_flags_get_vartype_name
                0x00000000c00fbe18       0x24 common/libcommon.o
                0x00000000c00fbe18                env_flags_get_vartype_name
 .text.env_flags_get_varaccess_name
                0x00000000c00fbe3c       0x24 common/libcommon.o
                0x00000000c00fbe3c                env_flags_get_varaccess_name
 .text.skip_num
                0x00000000c00fbe60       0x94 common/libcommon.o
 .text.clear_flags
                0x00000000c00fbef4        0xc common/libcommon.o
 .text.on_flags
                0x00000000c00fbf00       0x7c common/libcommon.o
 .text.env_flags_parse_varaccess_from_binflags
                0x00000000c00fbf7c       0x70 common/libcommon.o
                0x00000000c00fbf7c                env_flags_parse_varaccess_from_binflags
 .text.env_flags_print_varaccess
                0x00000000c00fbfec       0xb0 common/libcommon.o
                0x00000000c00fbfec                env_flags_print_varaccess
 .text.env_flags_print_vartypes
                0x00000000c00fc09c       0xb0 common/libcommon.o
                0x00000000c00fc09c                env_flags_print_vartypes
 .text.env_flags_validate
                0x00000000c00fc14c      0x41c common/libcommon.o
                0x00000000c00fc14c                env_flags_validate
 .text.env_flags_parse_varaccess
                0x00000000c00fc568       0x94 common/libcommon.o
                0x00000000c00fc568                env_flags_parse_varaccess
 .text.env_flags_parse_vartype
                0x00000000c00fc5fc       0x90 common/libcommon.o
                0x00000000c00fc5fc                env_flags_parse_vartype
 .text.env_parse_flags_to_bin
                0x00000000c00fc68c       0x64 common/libcommon.o
 .text.set_flags
                0x00000000c00fc6f0       0xb8 common/libcommon.o
 .text.env_flags_init
                0x00000000c00fc7a8       0xc8 common/libcommon.o
                0x00000000c00fc7a8                env_flags_init
 .text.env_init
                0x00000000c00fc870       0x24 common/libcommon.o
                0x00000000c00fc870                env_init
 .text.env_relocate_spec
                0x00000000c00fc894      0x104 common/libcommon.o
                0x00000000c00fc894                env_relocate_spec
 .text.saveenv  0x00000000c00fc998      0x220 common/libcommon.o
                0x00000000c00fc998                saveenv
 .text.dummy    0x00000000c00fcbb8        0x8 common/libcommon.o
 .text.get_version
                0x00000000c00fcbc0       0x18 common/libcommon.o
                0x00000000c00fcbc0                get_version
 .text.jumptable_init
                0x00000000c00fcbd8      0x37c common/libcommon.o
                0x00000000c00fcbd8                jumptable_init
 .text.uboot_eth_init
                0x00000000c00fcf54       0x38 common/libcommon.o
                0x00000000c00fcf54                uboot_eth_init
 .text.do_reset_jt
                0x00000000c00fcf8c       0x48 common/libcommon.o
                0x00000000c00fcf8c                do_reset_jt
 .text.write_cell
                0x00000000c00fcfd4       0x2c common/libcommon.o
 .text.get_cells_len
                0x00000000c00fd000       0x5c common/libcommon.o
 .text.fdt_set_phandle
                0x00000000c00fd05c       0x90 common/libcommon.o
                0x00000000c00fd05c                fdt_set_phandle
 .text.fdt_alloc_phandle
                0x00000000c00fd0ec       0xbc common/libcommon.o
                0x00000000c00fd0ec                fdt_alloc_phandle
 .text.fdt_translate_address
                0x00000000c00fd1a8      0x338 common/libcommon.o
                0x00000000c00fd1a8                fdt_translate_address
 .text.fdt_get_base_address
                0x00000000c00fd4e0       0xc4 common/libcommon.o
                0x00000000c00fd4e0                fdt_get_base_address
 .text.of_bus_default_translate
                0x00000000c00fd5a4       0xc0 common/libcommon.o
 .text.fdt_resize
                0x00000000c00fd664      0x128 common/libcommon.o
                0x00000000c00fd664                fdt_resize
 .text.fdt_initrd
                0x00000000c00fd78c      0x250 common/libcommon.o
                0x00000000c00fd78c                fdt_initrd
 .text.fdt_fixup_memory_banks
                0x00000000c00fd9dc      0x2ac common/libcommon.o
                0x00000000c00fd9dc                fdt_fixup_memory_banks
 .text.fdt_fixup_memory
                0x00000000c00fdc88       0x44 common/libcommon.o
                0x00000000c00fdc88                fdt_fixup_memory
 .text.fdt_chosen
                0x00000000c00fdccc      0x188 common/libcommon.o
                0x00000000c00fdccc                fdt_chosen
 .text.of_bus_default_count_cells
                0x00000000c00fde54       0xc0 common/libcommon.o
 .text.of_bus_default_map
                0x00000000c00fdf14       0xa8 common/libcommon.o
 .text.show_hash
                0x00000000c00fdfbc       0xb8 common/libcommon.o
 .text.find_hash_algo
                0x00000000c00fe074       0xa4 common/libcommon.o
 .text.hash_command
                0x00000000c00fe118      0x3c8 common/libcommon.o
                0x00000000c00fe118                hash_command
 .text.fdt_error
                0x00000000c00fe4e0       0x5c common/libcommon.o
 .text.boot_fdt_add_mem_rsv_regions
                0x00000000c00fe53c      0x11c common/libcommon.o
                0x00000000c00fe53c                boot_fdt_add_mem_rsv_regions
 .text.boot_relocate_fdt
                0x00000000c00fe658      0x254 common/libcommon.o
                0x00000000c00fe658                boot_relocate_fdt
 .text.boot_get_fdt
                0x00000000c00fe8ac      0x460 common/libcommon.o
                0x00000000c00fe8ac                boot_get_fdt
 .text.fit_image_hash_get_value
                0x00000000c00fed0c       0x78 common/libcommon.o
                0x00000000c00fed0c                fit_image_hash_get_value
 .text.fit_image_hash_get_algo
                0x00000000c00fed84       0x58 common/libcommon.o
                0x00000000c00fed84                fit_image_hash_get_algo
 .text.fit_image_get_data
                0x00000000c00feddc       0x78 common/libcommon.o
                0x00000000c00feddc                fit_image_get_data
 .text.fit_image_get_entry
                0x00000000c00fee54       0x60 common/libcommon.o
                0x00000000c00fee54                fit_image_get_entry
 .text.fit_image_get_load
                0x00000000c00feeb4       0x60 common/libcommon.o
                0x00000000c00feeb4                fit_image_get_load
 .text.fit_get_timestamp
                0x00000000c00fef14       0x74 common/libcommon.o
                0x00000000c00fef14                fit_get_timestamp
 .text.fit_get_desc
                0x00000000c00fef88       0x58 common/libcommon.o
                0x00000000c00fef88                fit_get_desc
 .text.fit_conf_print
                0x00000000c00fefe0      0x174 common/libcommon.o
                0x00000000c00fefe0                fit_conf_print
 .text.fit_check_format
                0x00000000c00ff154       0x94 common/libcommon.o
                0x00000000c00ff154                fit_check_format
 .text.fit_conf_get_node
                0x00000000c00ff1e8       0xb0 common/libcommon.o
                0x00000000c00ff1e8                fit_conf_get_node
 .text.fit_image_get_node
                0x00000000c00ff298       0x7c common/libcommon.o
                0x00000000c00ff298                fit_image_get_node
 .text.fit_conf_get_prop_node
                0x00000000c00ff314       0x5c common/libcommon.o
                0x00000000c00ff314                fit_conf_get_prop_node
 .text.calculate_hash
                0x00000000c00ff370      0x128 common/libcommon.o
                0x00000000c00ff370                calculate_hash
 .text.fit_image_verify
                0x00000000c00ff498      0x334 common/libcommon.o
                0x00000000c00ff498                fit_image_verify
 .text.fit_image_get_comp
                0x00000000c00ff7cc       0x74 common/libcommon.o
                0x00000000c00ff7cc                fit_image_get_comp
 .text.fit_image_check_comp
                0x00000000c00ff840       0x58 common/libcommon.o
                0x00000000c00ff840                fit_image_check_comp
 .text.fit_image_get_type
                0x00000000c00ff898       0x74 common/libcommon.o
                0x00000000c00ff898                fit_image_get_type
 .text.fit_image_check_type
                0x00000000c00ff90c       0x58 common/libcommon.o
                0x00000000c00ff90c                fit_image_check_type
 .text.fit_image_get_arch
                0x00000000c00ff964       0x74 common/libcommon.o
                0x00000000c00ff964                fit_image_get_arch
 .text.fit_image_check_arch
                0x00000000c00ff9d8       0x58 common/libcommon.o
                0x00000000c00ff9d8                fit_image_check_arch
 .text.fit_image_get_os
                0x00000000c00ffa30       0x74 common/libcommon.o
                0x00000000c00ffa30                fit_image_get_os
 .text.fit_image_check_os
                0x00000000c00ffaa4       0x58 common/libcommon.o
                0x00000000c00ffaa4                fit_image_check_os
 .text.fit_image_print_data
                0x00000000c00ffafc      0x224 common/libcommon.o
 .text.fit_image_print
                0x00000000c00ffd20      0x4f8 common/libcommon.o
                0x00000000c00ffd20                fit_image_print
 .text.fit_image_select
                0x00000000c0100218       0xb0 common/libcommon.o
                0x00000000c0100218                fit_image_select
 .text.fit_parse_spec
                0x00000000c01002c8       0xa0 common/libcommon.o
 .text.fit_parse_subimage
                0x00000000c0100368       0x2c common/libcommon.o
                0x00000000c0100368                fit_parse_subimage
 .text.fit_parse_conf
                0x00000000c0100394       0x2c common/libcommon.o
                0x00000000c0100394                fit_parse_conf
 .text.fit_get_node_from_config
                0x00000000c01003c0       0x84 common/libcommon.o
                0x00000000c01003c0                fit_get_node_from_config
 .text.fit_print_contents
                0x00000000c0100444      0x34c common/libcommon.o
                0x00000000c0100444                fit_print_contents
 .text.fit_image_load
                0x00000000c0100790      0x568 common/libcommon.o
                0x00000000c0100790                fit_image_load
 .text.image_multi_count
                0x00000000c0100cf8       0x20 common/libcommon.o
                0x00000000c0100cf8                image_multi_count
 .text.image_multi_getimg
                0x00000000c0100d18       0xd0 common/libcommon.o
                0x00000000c0100d18                image_multi_getimg
 .text.get_table_entry_name
                0x00000000c0100de8       0x30 common/libcommon.o
                0x00000000c0100de8                get_table_entry_name
 .text.genimg_get_os_name
                0x00000000c0100e18       0x28 common/libcommon.o
                0x00000000c0100e18                genimg_get_os_name
 .text.genimg_get_arch_name
                0x00000000c0100e40       0x28 common/libcommon.o
                0x00000000c0100e40                genimg_get_arch_name
 .text.genimg_get_type_name
                0x00000000c0100e68       0x28 common/libcommon.o
                0x00000000c0100e68                genimg_get_type_name
 .text.genimg_get_comp_name
                0x00000000c0100e90       0x28 common/libcommon.o
                0x00000000c0100e90                genimg_get_comp_name
 .text.genimg_get_image
                0x00000000c0100eb8        0x8 common/libcommon.o
                0x00000000c0100eb8                genimg_get_image
 .text.genimg_has_config
                0x00000000c0100ec0        0xc common/libcommon.o
                0x00000000c0100ec0                genimg_has_config
 .text.on_loadaddr
                0x00000000c0100ecc       0x58 common/libcommon.o
 .text.get_table_entry_id
                0x00000000c0100f24       0x94 common/libcommon.o
                0x00000000c0100f24                get_table_entry_id
 .text.genimg_get_comp_id
                0x00000000c0100fb8       0x28 common/libcommon.o
                0x00000000c0100fb8                genimg_get_comp_id
 .text.genimg_get_type_id
                0x00000000c0100fe0       0x28 common/libcommon.o
                0x00000000c0100fe0                genimg_get_type_id
 .text.genimg_get_arch_id
                0x00000000c0101008       0x28 common/libcommon.o
                0x00000000c0101008                genimg_get_arch_id
 .text.genimg_get_os_id
                0x00000000c0101030       0x28 common/libcommon.o
                0x00000000c0101030                genimg_get_os_id
 .text.genimg_get_format
                0x00000000c0101058       0x58 common/libcommon.o
                0x00000000c0101058                genimg_get_format
 .text.genimg_print_time
                0x00000000c01010b0       0x5c common/libcommon.o
                0x00000000c01010b0                genimg_print_time
 .text.genimg_print_size
                0x00000000c010110c       0x5c common/libcommon.o
                0x00000000c010110c                genimg_print_size
 .text.image_print_contents
                0x00000000c0101168      0x244 common/libcommon.o
                0x00000000c0101168                image_print_contents
 .text.memmove_wd
                0x00000000c01013ac       0xc8 common/libcommon.o
                0x00000000c01013ac                memmove_wd
 .text.getenv_bootm_low
                0x00000000c0101474       0x60 common/libcommon.o
                0x00000000c0101474                getenv_bootm_low
 .text.getenv_bootm_mapsize
                0x00000000c01014d4       0x60 common/libcommon.o
                0x00000000c01014d4                getenv_bootm_mapsize
 .text.getenv_bootm_size
                0x00000000c0101534       0x98 common/libcommon.o
                0x00000000c0101534                getenv_bootm_size
 .text.image_check_dcrc
                0x00000000c01015cc       0x58 common/libcommon.o
                0x00000000c01015cc                image_check_dcrc
 .text.image_check_hcrc
                0x00000000c0101624       0x6c common/libcommon.o
                0x00000000c0101624                image_check_hcrc
 .text.boot_get_ramdisk
                0x00000000c0101690      0x404 common/libcommon.o
                0x00000000c0101690                boot_get_ramdisk
 .text.iomux_doenv
                0x00000000c0101a94      0x2bc common/libcommon.o
                0x00000000c0101a94                iomux_doenv
 .text.__show_boot_progress
                0x00000000c0101d50        0x8 common/libcommon.o
                0x00000000c0101d50                __show_boot_progress
                0x00000000c0101d50                show_boot_progress
 .text.parse_line
                0x00000000c0101d58       0xc4 common/libcommon.o
                0x00000000c0101d58                parse_line
 .text.builtin_run_command
                0x00000000c0101e1c      0x41c common/libcommon.o
 .text.run_command_list
                0x00000000c0102238      0x168 common/libcommon.o
                0x00000000c0102238                run_command_list
 .text.run_command
                0x00000000c01023a0       0x40 common/libcommon.o
                0x00000000c01023a0                run_command
 .text.do_run   0x00000000c01023e0       0xdc common/libcommon.o
                0x00000000c01023e0                do_run
 .text.delete_char
                0x00000000c01024bc      0x170 common/libcommon.o
 .text.cread_add_char
                0x00000000c010262c      0x168 common/libcommon.o
 .text.cread_add_str
                0x00000000c0102794       0xc0 common/libcommon.o
 .text.readline_into_buffer
                0x00000000c0102854      0xbbc common/libcommon.o
                0x00000000c0102854                readline_into_buffer
 .text.readline
                0x00000000c0103410       0x24 common/libcommon.o
                0x00000000c0103410                readline
 .text.main_loop
                0x00000000c0103434      0x6a8 common/libcommon.o
                0x00000000c0103434                main_loop
 .text.miiphy_init
                0x00000000c0103adc       0x28 common/libcommon.o
                0x00000000c0103adc                miiphy_init
 .text.mdio_get_current_dev
                0x00000000c0103b04       0x18 common/libcommon.o
                0x00000000c0103b04                mdio_get_current_dev
 .text.miiphy_get_current_dev
                0x00000000c0103b1c       0x20 common/libcommon.o
                0x00000000c0103b1c                miiphy_get_current_dev
 .text.miiphy_listdev
                0x00000000c0103b3c       0xdc common/libcommon.o
                0x00000000c0103b3c                miiphy_listdev
 .text.miiphy_get_dev_by_name
                0x00000000c0103c18       0xb4 common/libcommon.o
                0x00000000c0103c18                miiphy_get_dev_by_name
 .text.miiphy_set_current_dev
                0x00000000c0103ccc       0x70 common/libcommon.o
                0x00000000c0103ccc                miiphy_set_current_dev
 .text.miiphy_get_active_dev
                0x00000000c0103d3c       0x88 common/libcommon.o
 .text.miiphy_write
                0x00000000c0103dc4       0x90 common/libcommon.o
                0x00000000c0103dc4                miiphy_write
 .text.miiphy_read
                0x00000000c0103e54       0x8c common/libcommon.o
                0x00000000c0103e54                miiphy_read
 .text.miiphy_is_1000base_x
                0x00000000c0103ee0       0x64 common/libcommon.o
                0x00000000c0103ee0                miiphy_is_1000base_x
 .text.miiphy_duplex
                0x00000000c0103f44      0x188 common/libcommon.o
                0x00000000c0103f44                miiphy_duplex
 .text.miiphy_speed
                0x00000000c01040cc      0x144 common/libcommon.o
                0x00000000c01040cc                miiphy_speed
 .text.miiphy_info
                0x00000000c0104210       0xe8 common/libcommon.o
                0x00000000c0104210                miiphy_info
 .text.mdio_register
                0x00000000c01042f8       0xc0 common/libcommon.o
                0x00000000c01042f8                mdio_register
 .text.mdio_alloc
                0x00000000c01043b8       0x64 common/libcommon.o
                0x00000000c01043b8                mdio_alloc
 .text.mdio_list_devices
                0x00000000c010441c      0x118 common/libcommon.o
                0x00000000c010441c                mdio_list_devices
 .text.mdio_phydev_for_ethname
                0x00000000c0104534       0xf0 common/libcommon.o
                0x00000000c0104534                mdio_phydev_for_ethname
 .text.hex1_bin
                0x00000000c0104624       0x50 common/libcommon.o
 .text.hex2_bin
                0x00000000c0104674       0x84 common/libcommon.o
 .text.srec_decode
                0x00000000c01046f8      0x2f8 common/libcommon.o
                0x00000000c01046f8                srec_decode
 .text.stdio_clone
                0x00000000c01049f0       0x7c common/libcommon.o
                0x00000000c01049f0                stdio_clone
 .text.stdio_register
                0x00000000c0104a6c       0x6c common/libcommon.o
                0x00000000c0104a6c                stdio_register
 .text.stdio_init
                0x00000000c0104ad8       0xc4 common/libcommon.o
                0x00000000c0104ad8                stdio_init
 .text.stdio_get_by_name
                0x00000000c0104b9c       0xa0 common/libcommon.o
                0x00000000c0104b9c                stdio_get_by_name
 .text.usb_disable_asynch
                0x00000000c0104c3c       0x20 common/libcommon.o
                0x00000000c0104c3c                usb_disable_asynch
 .text.usb_maxpacket
                0x00000000c0104c5c       0x34 common/libcommon.o
                0x00000000c0104c5c                usb_maxpacket
 .text.usb_set_maxpacket_ep
                0x00000000c0104c90       0xbc common/libcommon.o
 .text.usb_get_dev_index
                0x00000000c0104d4c       0x3c common/libcommon.o
                0x00000000c0104d4c                usb_get_dev_index
 .text.board_usb_init
                0x00000000c0104d88        0x8 common/libcommon.o
                0x00000000c0104d88                board_usb_init
 .text.usb_alloc_new_device
                0x00000000c0104d90       0xec common/libcommon.o
                0x00000000c0104d90                usb_alloc_new_device
 .text.usb_free_device
                0x00000000c0104e7c       0x9c common/libcommon.o
                0x00000000c0104e7c                usb_free_device
 .text.usb_bulk_msg
                0x00000000c0104f18       0xc4 common/libcommon.o
                0x00000000c0104f18                usb_bulk_msg
 .text.usb_control_msg
                0x00000000c0104fdc      0x158 common/libcommon.o
                0x00000000c0104fdc                usb_control_msg
 .text.usb_get_string
                0x00000000c0105134      0x104 common/libcommon.o
 .text.usb_string_sub
                0x00000000c0105238      0x17c common/libcommon.o
 .text.usb_string
                0x00000000c01053b4      0x150 common/libcommon.o
                0x00000000c01053b4                usb_string
 .text.usb_set_interface
                0x00000000c0105504       0xe0 common/libcommon.o
                0x00000000c0105504                usb_set_interface
 .text.usb_get_descriptor
                0x00000000c01055e4       0x7c common/libcommon.o
 .text.usb_get_configuration_no
                0x00000000c0105660      0x180 common/libcommon.o
                0x00000000c0105660                usb_get_configuration_no
 .text.usb_new_device
                0x00000000c01057e0      0x7e0 common/libcommon.o
                0x00000000c01057e0                usb_new_device
 .text.usb_clear_halt
                0x00000000c0105fc0       0xd0 common/libcommon.o
                0x00000000c0105fc0                usb_clear_halt
 .text.usb_stop
                0x00000000c0106090      0x124 common/libcommon.o
                0x00000000c0106090                usb_stop
 .text.usb_init
                0x00000000c01061b4      0x220 common/libcommon.o
                0x00000000c01061b4                usb_init
 .text.usb_hub_reset_devices
                0x00000000c01063d4        0x8 common/libcommon.o
                0x00000000c01063d4                usb_hub_reset_devices
 .text.usb_hub_reset
                0x00000000c01063dc       0x18 common/libcommon.o
                0x00000000c01063dc                usb_hub_reset
 .text.usb_get_port_status
                0x00000000c01063f4       0x6c common/libcommon.o
 .text.usb_set_port_feature
                0x00000000c0106460       0x6c common/libcommon.o
 .text.usb_clear_port_feature
                0x00000000c01064cc       0x6c common/libcommon.o
 .text.usb_get_hub_descriptor
                0x00000000c0106538       0x70 common/libcommon.o
 .text.hub_port_reset
                0x00000000c01065a8      0x168 common/libcommon.o
                0x00000000c01065a8                hub_port_reset
 .text.usb_hub_power_on
                0x00000000c0106710      0x124 common/libcommon.o
 .text.usb_hub_port_connect_change
                0x00000000c0106834      0x1ac common/libcommon.o
                0x00000000c0106834                usb_hub_port_connect_change
 .text.usb_hub_probe
                0x00000000c01069e0      0x49c common/libcommon.o
                0x00000000c01069e0                usb_hub_probe
 .text.usb_stor_get_dev
                0x00000000c0106e7c       0x48 common/libcommon.o
                0x00000000c0106e7c                usb_stor_get_dev
 .text.usb_stor_irq
                0x00000000c0106ec4       0x1c common/libcommon.o
 .text.num_usb_disks
                0x00000000c0106ee0       0x18 common/libcommon.o
                0x00000000c0106ee0                num_usb_disks
 .text.usb_disk_write
                0x00000000c0106ef8        0x8 common/libcommon.o
                0x00000000c0106ef8                usb_disk_write
 .text.usb_request_sense
                0x00000000c0106f00       0xa8 common/libcommon.o
 .text.usb_stor_get_info
                0x00000000c0106fa8      0x4ac common/libcommon.o
                0x00000000c0106fa8                usb_stor_get_info
 .text.usb_storage_probe
                0x00000000c0107454      0x2b4 common/libcommon.o
                0x00000000c0107454                usb_storage_probe
 .text.usb_stor_BBB_clear_endpt_stall
                0x00000000c0107708       0x6c common/libcommon.o
 .text.usb_stor_CB_reset
                0x00000000c0107774      0x118 common/libcommon.o
 .text.usb_stor_BBB_reset
                0x00000000c010788c      0x128 common/libcommon.o
 .text.usb_stor_CB_comdat
                0x00000000c01079b4      0x2c0 common/libcommon.o
 .text.usb_stor_CBI_get_status
                0x00000000c0107c74      0x128 common/libcommon.o
 .text.usb_stor_CB_transport
                0x00000000c0107d9c      0x298 common/libcommon.o
 .text.usb_stor_write
                0x00000000c0108034      0x290 common/libcommon.o
                0x00000000c0108034                usb_stor_write
 .text.usb_stor_read
                0x00000000c01082c4      0x290 common/libcommon.o
                0x00000000c01082c4                usb_stor_read
 .text.usb_disk_read
                0x00000000c0108554      0x160 common/libcommon.o
                0x00000000c0108554                usb_disk_read
 .text.usb_stor_scan
                0x00000000c01086b4      0x504 common/libcommon.o
                0x00000000c01086b4                usb_stor_scan
 .text.usb_disk_scan
                0x00000000c0108bb8      0x198 common/libcommon.o
                0x00000000c0108bb8                usb_disk_scan
 .text.usb_stor_info
                0x00000000c0108d50       0xdc common/libcommon.o
                0x00000000c0108d50                usb_stor_info
 .text.usb_stor_BBB_transport
                0x00000000c0108e2c      0x3d8 common/libcommon.o
 .text.xyzModem_error
                0x00000000c0109204       0xa4 common/libcommon.o
                0x00000000c0109204                xyzModem_error
 .text.CYGACC_COMM_IF_PUTC
                0x00000000c01092a8       0x18 common/libcommon.o
 .text.CYGACC_COMM_IF_GETC_TIMEOUT
                0x00000000c01092c0       0xc4 common/libcommon.o
 .text.xyzModem_flush
                0x00000000c0109384       0x5c common/libcommon.o
 .text.xyzModem_stream_terminate
                0x00000000c01093e0      0x168 common/libcommon.o
                0x00000000c01093e0                xyzModem_stream_terminate
 .text.xyzModem_stream_close
                0x00000000c0109548       0x54 common/libcommon.o
                0x00000000c0109548                xyzModem_stream_close
 .text.xyzModem_get_hdr
                0x00000000c010959c      0x364 common/libcommon.o
 .text.xyzModem_stream_read
                0x00000000c0109900      0x324 common/libcommon.o
                0x00000000c0109900                xyzModem_stream_read
 .text.xyzModem_stream_open
                0x00000000c0109c24      0x344 common/libcommon.o
                0x00000000c0109c24                xyzModem_stream_open
 .text.get_dev  0x00000000c0109f68       0xf4 disk/libdisk.o
                0x00000000c0109f68                get_dev
 .text.get_device
                0x00000000c010a05c       0xd4 disk/libdisk.o
                0x00000000c010a05c                get_device
 .text.get_partition_info
                0x00000000c010a130       0x64 disk/libdisk.o
                0x00000000c010a130                get_partition_info
 .text.get_device_and_partition
                0x00000000c010a194      0x610 disk/libdisk.o
                0x00000000c010a194                get_device_and_partition
 .text.print_part_header
                0x00000000c010a7a4       0xfc disk/libdisk.o
 .text.print_part
                0x00000000c010a8a0       0xa0 disk/libdisk.o
                0x00000000c010a8a0                print_part
 .text.init_part
                0x00000000c010a940       0x64 disk/libdisk.o
                0x00000000c010a940                init_part
 .text.dev_print
                0x00000000c010a9a4      0x344 disk/libdisk.o
                0x00000000c010a9a4                dev_print
 .text.test_block_type
                0x00000000c010ace8       0xc8 disk/libdisk.o
 .text.test_part_dos
                0x00000000c010adb0       0xb8 disk/libdisk.o
                0x00000000c010adb0                test_part_dos
 .text.print_partition_extended
                0x00000000c010ae68      0x2fc disk/libdisk.o
 .text.print_part_dos
                0x00000000c010b164       0x60 disk/libdisk.o
                0x00000000c010b164                print_part_dos
 .text.get_partition_info_extended
                0x00000000c010b1c4      0x3c8 disk/libdisk.o
 .text.get_partition_info_dos
                0x00000000c010b58c       0x30 disk/libdisk.o
                0x00000000c010b58c                get_partition_info_dos
 .text.print_efiname
                0x00000000c010b5bc       0x74 disk/libdisk.o
 .text.test_part_efi
                0x00000000c010b630      0x150 disk/libdisk.o
                0x00000000c010b630                test_part_efi
 .text.uuid_string
                0x00000000c010b780       0xd4 disk/libdisk.o
 .text.is_gpt_valid
                0x00000000c010b854      0x618 disk/libdisk.o
 .text.is_pte_valid
                0x00000000c010be6c       0x84 disk/libdisk.o
 .text.print_part_efi
                0x00000000c010bef0      0x338 disk/libdisk.o
                0x00000000c010bef0                print_part_efi
 .text.get_partition_info_efi
                0x00000000c010c228      0x330 disk/libdisk.o
                0x00000000c010c228                get_partition_info_efi
 .text.generic_fls
                0x00000000c010c558       0x74 drivers/block/libblock.o
 .text.ata_tf_to_fis
                0x00000000c010c5cc       0xa0 drivers/block/libblock.o
                0x00000000c010c5cc                ata_tf_to_fis
 .text.ata_tf_from_fis
                0x00000000c010c66c       0x5c drivers/block/libblock.o
                0x00000000c010c66c                ata_tf_from_fis
 .text.ata_rwcmd_protocol
                0x00000000c010c6c8       0xb4 drivers/block/libblock.o
 .text.ata_dev_classify
                0x00000000c010c77c       0x38 drivers/block/libblock.o
                0x00000000c010c77c                ata_dev_classify
 .text.ata_id_string
                0x00000000c010c7b4       0x34 drivers/block/libblock.o
                0x00000000c010c7b4                ata_id_string
 .text.ata_id_n_sectors
                0x00000000c010c7e8       0x84 drivers/block/libblock.o
                0x00000000c010c7e8                ata_id_n_sectors
 .text.__sata_set_spd_needed
                0x00000000c010c86c       0xd0 drivers/block/libblock.o
 .text.sata_scr_valid
                0x00000000c010c93c       0x28 drivers/block/libblock.o
                0x00000000c010c93c                sata_scr_valid
 .text.ata_msleep
                0x00000000c010c964       0x18 drivers/block/libblock.o
                0x00000000c010c964                ata_msleep
 .text.ata_wait_register
                0x00000000c010c97c       0xfc drivers/block/libblock.o
                0x00000000c010c97c                ata_wait_register
 .text.ata_dev_init
                0x00000000c010ca78       0x98 drivers/block/libblock.o
                0x00000000c010ca78                ata_dev_init
 .text.ata_link_init
                0x00000000c010cb10       0xfc drivers/block/libblock.o
                0x00000000c010cb10                ata_link_init
 .text.ata_port_alloc
                0x00000000c010cc0c       0x88 drivers/block/libblock.o
                0x00000000c010cc0c                ata_port_alloc
 .text.ata_host_alloc
                0x00000000c010cc94       0xd0 drivers/block/libblock.o
                0x00000000c010cc94                ata_host_alloc
 .text.ata_host_alloc_pinfo
                0x00000000c010cd64       0xd8 drivers/block/libblock.o
                0x00000000c010cd64                ata_host_alloc_pinfo
 .text.sata_scr_write_flush
                0x00000000c010ce3c       0xcc drivers/block/libblock.o
                0x00000000c010ce3c                sata_scr_write_flush
 .text.sata_scr_write
                0x00000000c010cf08       0xc0 drivers/block/libblock.o
                0x00000000c010cf08                sata_scr_write
 .text.sata_scr_read
                0x00000000c010cfc8       0xc0 drivers/block/libblock.o
                0x00000000c010cfc8                sata_scr_read
 .text.sata_link_init_spd
                0x00000000c010d088       0x80 drivers/block/libblock.o
                0x00000000c010d088                sata_link_init_spd
 .text.ata_phys_link_offline
                0x00000000c010d108       0x54 drivers/block/libblock.o
                0x00000000c010d108                ata_phys_link_offline
 .text.ata_link_offline
                0x00000000c010d15c       0x8c drivers/block/libblock.o
                0x00000000c010d15c                ata_link_offline
 .text.ata_phys_link_online
                0x00000000c010d1e8       0x54 drivers/block/libblock.o
                0x00000000c010d1e8                ata_phys_link_online
 .text.ata_link_online
                0x00000000c010d23c       0x8c drivers/block/libblock.o
                0x00000000c010d23c                ata_link_online
 .text.ata_wait_ready
                0x00000000c010d2c8      0x1a0 drivers/block/libblock.o
                0x00000000c010d2c8                ata_wait_ready
 .text.ata_wait_after_reset
                0x00000000c010d468       0x68 drivers/block/libblock.o
                0x00000000c010d468                ata_wait_after_reset
 .text.ata_std_postreset
                0x00000000c010d4d0       0x60 drivers/block/libblock.o
                0x00000000c010d4d0                ata_std_postreset
 .text.sata_link_resume
                0x00000000c010d530      0x18c drivers/block/libblock.o
                0x00000000c010d530                sata_link_resume
 .text.sata_set_spd
                0x00000000c010d6bc       0x90 drivers/block/libblock.o
                0x00000000c010d6bc                sata_set_spd
 .text.sata_link_hardreset
                0x00000000c010d74c      0x260 drivers/block/libblock.o
                0x00000000c010d74c                sata_link_hardreset
 .text.sata_std_hardreset
                0x00000000c010d9ac       0x48 drivers/block/libblock.o
                0x00000000c010d9ac                sata_std_hardreset
 .text.swap_buf_le16
                0x00000000c010d9f4       0x34 drivers/block/libblock.o
                0x00000000c010d9f4                swap_buf_le16
 .text.ata_id_c_string
                0x00000000c010da28       0x80 drivers/block/libblock.o
                0x00000000c010da28                ata_id_c_string
 .text.ata_std_prereset
                0x00000000c010daa8       0x6c drivers/block/libblock.o
                0x00000000c010daa8                ata_std_prereset
 .text.ata_build_rw_tf
                0x00000000c010db14      0x23c drivers/block/libblock.o
                0x00000000c010db14                ata_build_rw_tf
 .text.ata_link_next
                0x00000000c010dd50      0x140 drivers/block/libblock.o
                0x00000000c010dd50                ata_link_next
 .text.sata_pmp_write
                0x00000000c010de90      0x114 drivers/block/libblock.o
 .text.sata_pmp_scr_write
                0x00000000c010dfa4       0xc0 drivers/block/libblock.o
                0x00000000c010dfa4                sata_pmp_scr_write
 .text.sata_pmp_read
                0x00000000c010e064      0x174 drivers/block/libblock.o
 .text.sata_pmp_configure
                0x00000000c010e1d8      0x2ac drivers/block/libblock.o
 .text.sata_pmp_read_gscr
                0x00000000c010e484      0x13c drivers/block/libblock.o
 .text.sata_pmp_scr_read
                0x00000000c010e5c0      0x114 drivers/block/libblock.o
                0x00000000c010e5c0                sata_pmp_scr_read
 .text.sata_pmp_attach
                0x00000000c010e6d4      0x594 drivers/block/libblock.o
                0x00000000c010e6d4                sata_pmp_attach
 .text.ata_internal_cmd_timeout
                0x00000000c010ec68       0x78 drivers/block/libblock.o
                0x00000000c010ec68                ata_internal_cmd_timeout
 .text.ahci_scr_offset
                0x00000000c010ece0       0x58 drivers/block/libblock.o
 .text.ahci_start_engine
                0x00000000c010ed38       0x70 drivers/block/libblock.o
                0x00000000c010ed38                ahci_start_engine
 .text.ahci_port_resume
                0x00000000c010eda8      0x188 drivers/block/libblock.o
 .text.ahci_dev_config
                0x00000000c010ef30       0x48 drivers/block/libblock.o
 .text.ahci_stop_engine
                0x00000000c010ef78       0xa4 drivers/block/libblock.o
                0x00000000c010ef78                ahci_stop_engine
 .text.ahci_kick_engine
                0x00000000c010f01c      0x11c drivers/block/libblock.o
                0x00000000c010f01c                ahci_kick_engine
 .text.ahci_port_link_status
                0x00000000c010f138       0xf0 drivers/block/libblock.o
 .text.ahci_fill_cmd_slot
                0x00000000c010f228       0xd4 drivers/block/libblock.o
 .text.ahci_exec_polled_cmd
                0x00000000c010f2fc      0x17c drivers/block/libblock.o
                0x00000000c010f2fc                ahci_exec_polled_cmd
 .text.ahci_exec_internal
                0x00000000c010f478      0x494 drivers/block/libblock.o
 .text.ahci_sata_read_write
                0x00000000c010f90c      0x1c8 drivers/block/libblock.o
 .text.__sata_write
                0x00000000c010fad4       0x2c drivers/block/libblock.o
                0x00000000c010fad4                __sata_write
                0x00000000c010fad4                sata_write
 .text.__sata_read
                0x00000000c010fb00       0x2c drivers/block/libblock.o
                0x00000000c010fb00                sata_read
                0x00000000c010fb00                __sata_read
 .text.ata_exec_internal
                0x00000000c010fb2c       0x1c drivers/block/libblock.o
                0x00000000c010fb2c                ata_exec_internal
 .text.ahci_dev_classify
                0x00000000c010fb48       0x74 drivers/block/libblock.o
 .text.ahci_do_softreset
                0x00000000c010fbbc      0x1e8 drivers/block/libblock.o
                0x00000000c010fbbc                ahci_do_softreset
 .text.ahci_softreset
                0x00000000c010fda4       0x4c drivers/block/libblock.o
                0x00000000c010fda4                ahci_softreset
 .text.ahci_scan_device
                0x00000000c010fdf0      0x5fc drivers/block/libblock.o
                0x00000000c010fdf0                ahci_scan_device
 .text.scan_sata
                0x00000000c01103ec       0x28 drivers/block/libblock.o
                0x00000000c01103ec                scan_sata
 .text.ahci_port_stop
                0x00000000c0110414      0x118 drivers/block/libblock.o
                0x00000000c0110414                ahci_port_stop
 .text.ahci_port_start
                0x00000000c011052c      0x1d0 drivers/block/libblock.o
                0x00000000c011052c                ahci_port_start
 .text.__init_sata
                0x00000000c01106fc      0x1a8 drivers/block/libblock.o
                0x00000000c01106fc                init_sata
                0x00000000c01106fc                __init_sata
 .text.ahci_scr_read
                0x00000000c01108a4       0x94 drivers/block/libblock.o
 .text.ahci_scr_write
                0x00000000c0110938       0x94 drivers/block/libblock.o
 .text.ahci_check_ready
                0x00000000c01109cc       0x70 drivers/block/libblock.o
 .text.ahci_save_initial_config
                0x00000000c0110a3c      0x360 drivers/block/libblock.o
                0x00000000c0110a3c                ahci_save_initial_config
 .text.ahci_hardreset
                0x00000000c0110d9c      0x11c drivers/block/libblock.o
                0x00000000c0110d9c                ahci_hardreset
 .text.ahci_writel
                0x00000000c0110eb8       0x2c drivers/block/libblock.o
                0x00000000c0110eb8                ata_writel
                0x00000000c0110eb8                ahci_writel
 .text.ahci_readl
                0x00000000c0110ee4       0x2c drivers/block/libblock.o
                0x00000000c0110ee4                ata_readl
                0x00000000c0110ee4                ahci_readl
 .text.ahci_octeon_config
                0x00000000c0110f10       0xdc drivers/block/libblock.o
                0x00000000c0110f10                ahci_octeon_config
 .text.ahci_init_platform
                0x00000000c0110fec     0x1390 drivers/block/libblock.o
                0x00000000c0110fec                ahci_init_platform
 .text.gpio_free
                0x00000000c011237c        0x8 drivers/gpio/libgpio.o
                0x00000000c011237c                gpio_free
 .text.gpio_in_range
                0x00000000c0112384       0xf0 drivers/gpio/libgpio.o
 .text.gpio_request
                0x00000000c0112474       0x44 drivers/gpio/libgpio.o
                0x00000000c0112474                gpio_request
 .text.gpio_set_value
                0x00000000c01124b8       0xcc drivers/gpio/libgpio.o
                0x00000000c01124b8                gpio_set_value
 .text.gpio_get_value
                0x00000000c0112584       0x80 drivers/gpio/libgpio.o
                0x00000000c0112584                gpio_get_value
 .text.gpio_direction_output
                0x00000000c0112604      0xab8 drivers/gpio/libgpio.o
                0x00000000c0112604                gpio_direction_output
 .text.gpio_direction_input
                0x00000000c01130bc      0x510 drivers/gpio/libgpio.o
                0x00000000c01130bc                gpio_direction_input
 .text.pca953x_reg_read
                0x00000000c01135cc       0x98 drivers/gpio/libgpio.o
 .text.pca953x_get_val
                0x00000000c0113664       0x54 drivers/gpio/libgpio.o
                0x00000000c0113664                pca953x_get_val
 .text.pca953x_reg_write
                0x00000000c01136b8       0xc8 drivers/gpio/libgpio.o
 .text.pca953x_set_dir
                0x00000000c0113780       0x2c drivers/gpio/libgpio.o
                0x00000000c0113780                pca953x_set_dir
 .text.pca953x_set_pol
                0x00000000c01137ac       0x2c drivers/gpio/libgpio.o
                0x00000000c01137ac                pca953x_set_pol
 .text.pca953x_set_val
                0x00000000c01137d8       0x2c drivers/gpio/libgpio.o
                0x00000000c01137d8                pca953x_set_val
 .text.do_pca953x
                0x00000000c0113804      0x5d4 drivers/gpio/libgpio.o
                0x00000000c0113804                do_pca953x
 .text.is_i2c_bus_valid
                0x00000000c0113dd8       0x78 drivers/i2c/libi2c.o
                0x00000000c0113dd8                is_i2c_bus_valid
 .text.octeon_i2c_write_int
                0x00000000c0113e50      0x2d0 drivers/i2c/libi2c.o
 .text.octeon_i2c_unblock
                0x00000000c0114120      0x154 drivers/i2c/libi2c.o
 .text.octeon_i2c_read_sw
                0x00000000c0114274      0x3b8 drivers/i2c/libi2c.o
 .text.octeon_i2c_read_status
                0x00000000c011462c       0x7c drivers/i2c/libi2c.o
 .text.octeon_i2c_wait
                0x00000000c01146a8      0x120 drivers/i2c/libi2c.o
 .text.octeon_i2c_write_sw
                0x00000000c01147c8      0x808 drivers/i2c/libi2c.o
 .text.octeon_i2c_set_bus_speed
                0x00000000c0114fd0      0x120 drivers/i2c/libi2c.o
 .text.octeon_i2c_set_slave_address
                0x00000000c01150f0       0x88 drivers/i2c/libi2c.o
                0x00000000c01150f0                octeon_i2c_set_slave_address
 .text.octeon_i2c_reset
                0x00000000c0115178      0x1f4 drivers/i2c/libi2c.o
 .text.octeon_i2c_write_ctl
                0x00000000c011536c       0x88 drivers/i2c/libi2c.o
 .text.octeon_i2c_bus_stop
                0x00000000c01153f4       0xb8 drivers/i2c/libi2c.o
 .text.octeon_i2c_start
                0x00000000c01154ac      0x204 drivers/i2c/libi2c.o
 .text.octeon_i2c_hlc_enable
                0x00000000c01156b0       0x88 drivers/i2c/libi2c.o
                0x00000000c01156b0                octeon_i2c_hlc_enable
 .text.octeon_init_i2c_bus
                0x00000000c0115738       0xf8 drivers/i2c/libi2c.o
                0x00000000c0115738                octeon_init_i2c_bus
 .text.octeon_i2c_write_data
                0x00000000c0115830       0x88 drivers/i2c/libi2c.o
 .text.octeon_i2c_bus_read
                0x00000000c01158b8      0x2ac drivers/i2c/libi2c.o
 .text.octeon_i2c_probe
                0x00000000c0115b64       0x78 drivers/i2c/libi2c.o
                0x00000000c0115b64                octeon_i2c_probe
 .text.octeon_i2c_bus_write
                0x00000000c0115bdc      0x220 drivers/i2c/libi2c.o
                0x00000000c0115bdc                octeon_i2c_bus_write
 .text.octeon_i2c_write
                0x00000000c0115dfc      0x128 drivers/i2c/libi2c.o
 .text.octeon_i2c_read
                0x00000000c0115f24      0x154 drivers/i2c/libi2c.o
 .text.octeon_i2c_process_fdt
                0x00000000c0116078      0x350 drivers/i2c/libi2c.o
                0x00000000c0116078                octeon_i2c_process_fdt
 .text.init_twsi_bus
                0x00000000c01163c8       0x38 drivers/i2c/libi2c.o
                0x00000000c01163c8                init_twsi_bus
 .text.i2c_get_bus_num
                0x00000000c0116400        0xc drivers/i2c/libi2c.o
                0x00000000c0116400                i2c_get_bus_num
 .text.i2c_get_adapter
                0x00000000c011640c       0xc0 drivers/i2c/libi2c.o
                0x00000000c011640c                i2c_get_adapter
 .text.i2c_get_bus_speed
                0x00000000c01164cc       0x3c drivers/i2c/libi2c.o
                0x00000000c01164cc                i2c_get_bus_speed
 .text.i2c_set_bus_speed
                0x00000000c0116508       0xb4 drivers/i2c/libi2c.o
                0x00000000c0116508                i2c_set_bus_speed
 .text.i2c_write
                0x00000000c01165bc       0xa8 drivers/i2c/libi2c.o
                0x00000000c01165bc                i2c_write
 .text.i2c_reg_write
                0x00000000c0116664       0x48 drivers/i2c/libi2c.o
                0x00000000c0116664                i2c_reg_write
 .text.i2c_read
                0x00000000c01166ac       0xa8 drivers/i2c/libi2c.o
                0x00000000c01166ac                i2c_read
 .text.i2c_reg_read
                0x00000000c0116754       0x48 drivers/i2c/libi2c.o
                0x00000000c0116754                i2c_reg_read
 .text.i2c_probe
                0x00000000c011679c       0x68 drivers/i2c/libi2c.o
                0x00000000c011679c                i2c_probe
 .text.i2c_init_bus
                0x00000000c0116804      0x110 drivers/i2c/libi2c.o
 .text.i2c_set_bus_num
                0x00000000c0116914      0x11c drivers/i2c/libi2c.o
                0x00000000c0116914                i2c_set_bus_num
 .text.i2c_init_all
                0x00000000c0116a30       0x3c drivers/i2c/libi2c.o
                0x00000000c0116a30                i2c_init_all
 .text.__i2c_init
                0x00000000c0116a6c       0x2c drivers/i2c/libi2c.o
                0x00000000c0116a6c                __i2c_init
                0x00000000c0116a6c                i2c_init
 .text.spi_flash_read_write
                0x00000000c0116a98       0xbc drivers/mtd/spi/libspi_flash.o
 .text.spi_flash_cmd_write
                0x00000000c0116b54       0x20 drivers/mtd/spi/libspi_flash.o
                0x00000000c0116b54                spi_flash_cmd_write
 .text.spi_flash_cmd_read
                0x00000000c0116b74       0x24 drivers/mtd/spi/libspi_flash.o
                0x00000000c0116b74                spi_flash_cmd_read
 .text.spi_flash_cmd
                0x00000000c0116b98       0x44 drivers/mtd/spi/libspi_flash.o
                0x00000000c0116b98                spi_flash_cmd
 .text.spi_flash_free
                0x00000000c0116bdc       0x4c drivers/mtd/spi/libspi_flash.o
                0x00000000c0116bdc                spi_flash_free
 .text.spi_flash_decode_fdt
                0x00000000c0116c28       0xa4 drivers/mtd/spi/libspi_flash.o
                0x00000000c0116c28                spi_flash_decode_fdt
 .text.spi_flash_probe
                0x00000000c0116ccc      0x3b8 drivers/mtd/spi/libspi_flash.o
                0x00000000c0116ccc                spi_flash_probe
 .text.spi_flash_addr
                0x00000000c0117084       0x5c drivers/mtd/spi/libspi_flash.o
 .text.spi_flash_set_4byte
                0x00000000c01170e0      0x184 drivers/mtd/spi/libspi_flash.o
                0x00000000c01170e0                spi_flash_set_4byte
 .text.spi_flash_read_common
                0x00000000c0117264       0xb4 drivers/mtd/spi/libspi_flash.o
                0x00000000c0117264                spi_flash_read_common
 .text.spi_flash_cmd_wait_ready
                0x00000000c0117318      0x170 drivers/mtd/spi/libspi_flash.o
                0x00000000c0117318                spi_flash_cmd_wait_ready
 .text.spi_flash_write_common
                0x00000000c0117488      0x10c drivers/mtd/spi/libspi_flash.o
                0x00000000c0117488                spi_flash_write_common
 .text.spi_flash_cmd_write_ops
                0x00000000c0117594      0x130 drivers/mtd/spi/libspi_flash.o
                0x00000000c0117594                spi_flash_cmd_write_ops
 .text.spi_flash_cmd_write_status
                0x00000000c01176c4       0x54 drivers/mtd/spi/libspi_flash.o
                0x00000000c01176c4                spi_flash_cmd_write_status
 .text.spi_flash_cmd_erase_ops
                0x00000000c0117718      0x100 drivers/mtd/spi/libspi_flash.o
                0x00000000c0117718                spi_flash_cmd_erase_ops
 .text.spi_flash_cmd_read_ops
                0x00000000c0117818      0x188 drivers/mtd/spi/libspi_flash.o
                0x00000000c0117818                spi_flash_cmd_read_ops
 .text.nc_timeout
                0x00000000c01179a0       0x1c drivers/net/libnet.o
 .text.drv_nc_init
                0x00000000c01179bc       0xac drivers/net/libnet.o
                0x00000000c01179bc                drv_nc_init
 .text.nc_tstc  0x00000000c0117a68       0xa8 drivers/net/libnet.o
 .text.nc_getc  0x00000000c0117b10       0xb8 drivers/net/libnet.o
 .text.nc_send_packet
                0x00000000c0117bc8      0x1bc drivers/net/libnet.o
 .text.nc_puts  0x00000000c0117d84       0xa8 drivers/net/libnet.o
 .text.nc_putc  0x00000000c0117e2c       0x64 drivers/net/libnet.o
 .text.is_broadcast
                0x00000000c0117e90       0xe4 drivers/net/libnet.o
 .text.nc_input_packet
                0x00000000c0117f74      0x128 drivers/net/libnet.o
                0x00000000c0117f74                nc_input_packet
 .text.refresh_settings_from_env
                0x00000000c011809c      0x184 drivers/net/libnet.o
 .text.nc_start
                0x00000000c0118220       0x68 drivers/net/libnet.o
 .text.NcStart  0x00000000c0118288      0x118 drivers/net/libnet.o
                0x00000000c0118288                NcStart
 .text.nc_wait_arp_handler
                0x00000000c01183a0       0x1c drivers/net/libnet.o
 .text.nc_handler
                0x00000000c01183bc       0x2c drivers/net/libnet.o
 .text.octeon_eth_board_pre_init
                0x00000000c01183e8        0x8 drivers/net/libnet.o
                0x00000000c01183e8                octeon_eth_board_pre_init
 .text.octeon_eth_rx_packet_hook
                0x00000000c01183f0        0x8 drivers/net/libnet.o
                0x00000000c01183f0                octeon_eth_rx_packet_hook
 .text.octeon_eth_tx_packet_hook
                0x00000000c01183f8        0x8 drivers/net/libnet.o
                0x00000000c01183f8                octeon_eth_tx_packet_hook
 .text.octeon_eth_board_post_init
                0x00000000c0118400        0x8 drivers/net/libnet.o
                0x00000000c0118400                octeon_eth_board_post_init
 .text.board_net_set_link
                0x00000000c0118408        0x8 drivers/net/libnet.o
                0x00000000c0118408                board_net_set_link
 .text.__octeon_phy_port_check
                0x00000000c0118410       0x20 drivers/net/libnet.o
                0x00000000c0118410                __octeon_phy_port_check
                0x00000000c0118410                octeon_phy_port_check
 .text.octeon_bgx_xcv_rgmii_enable
                0x00000000c0118430       0x40 drivers/net/libnet.o
 .text.print_mac
                0x00000000c0118470       0x38 drivers/net/libnet.o
 .text.print_packet
                0x00000000c01184a8      0x46c drivers/net/libnet.o
 .text.octeon_eth_initialize
                0x00000000c0118914      0xcf8 drivers/net/libnet.o
                0x00000000c0118914                octeon_eth_initialize
 .text.cvm_oct_set_mac_address
                0x00000000c011960c      0x598 drivers/net/libnet.o
 .text.octeon_eth_write_hwaddr
                0x00000000c0119ba4       0x34 drivers/net/libnet.o
                0x00000000c0119ba4                octeon_eth_write_hwaddr
 .text.octeon_eth_sgmii_enable
                0x00000000c0119bd8      0x400 drivers/net/libnet.o
                0x00000000c0119bd8                octeon_eth_sgmii_enable
 .text.octeon_eth_enable
                0x00000000c0119fd8      0x1c8 drivers/net/libnet.o
                0x00000000c0119fd8                octeon_eth_enable
 .text.cvm_oct_fill_hw_memory
                0x00000000c011a1a0       0x94 drivers/net/libnet.o
 .text.cvm_oct_configure_rgmii_speed
                0x00000000c011a234      0x174 drivers/net/libnet.o
                0x00000000c011a234                cvm_oct_configure_rgmii_speed
 .text.octeon_network_hw_shutdown
                0x00000000c011a3a8      0x1b0 drivers/net/libnet.o
                0x00000000c011a3a8                octeon_network_hw_shutdown
 .text.octeon_eth_halt
                0x00000000c011a558      0x4c0 drivers/net/libnet.o
                0x00000000c011a558                octeon_eth_halt
 .text.octeon_eth_send
                0x00000000c011aa18      0x5bc drivers/net/libnet.o
                0x00000000c011aa18                octeon_eth_send
 .text.octeon_eth_recv
                0x00000000c011afd4      0x52c drivers/net/libnet.o
                0x00000000c011afd4                octeon_eth_recv
 .text.octeon_eth_init
                0x00000000c011b500      0x708 drivers/net/libnet.o
                0x00000000c011b500                octeon_eth_init
 .text.octeon_phy_reset
                0x00000000c011bc08        0x8 drivers/net/libnet.o
 .text.octeon_mdio_reg_addr_to_bus
                0x00000000c011bc10       0xcc drivers/net/libnet.o
                0x00000000c011bc10                octeon_mdio_reg_addr_to_bus
 .text.switch_mdio_mux
                0x00000000c011bcdc      0x20c drivers/net/libnet.o
 .text.octeon_phy_write
                0x00000000c011bee8     0x1784 drivers/net/libnet.o
 .text.octeon_phy_read
                0x00000000c011d66c     0x160c drivers/net/libnet.o
 .text.octeon_mdio_initialize
                0x00000000c011ec78      0xd00 drivers/net/libnet.o
                0x00000000c011ec78                octeon_mdio_initialize
 .text.generic_ffs
                0x00000000c011f978       0x6c drivers/net/phy/libphy.o
 .text.genphy_restart_aneg
                0x00000000c011f9e4       0x68 drivers/net/phy/libphy.o
                0x00000000c011f9e4                genphy_restart_aneg
 .text.genphy_config_aneg
                0x00000000c011fa4c      0x270 drivers/net/phy/libphy.o
                0x00000000c011fa4c                genphy_config_aneg
 .text.genphy_parse_link
                0x00000000c011fcbc      0x1cc drivers/net/phy/libphy.o
                0x00000000c011fcbc                genphy_parse_link
 .text.genphy_shutdown
                0x00000000c011fe88        0x8 drivers/net/phy/libphy.o
                0x00000000c011fe88                genphy_shutdown
 .text.board_phy_init
                0x00000000c011fe90        0x8 drivers/net/phy/libphy.o
                0x00000000c011fe90                board_phy_init
 .text.phy_register
                0x00000000c011fe98       0x38 drivers/net/phy/libphy.o
                0x00000000c011fe98                phy_register
 .text.__get_phy_id
                0x00000000c011fed0       0xa0 drivers/net/phy/libphy.o
                0x00000000c011fed0                get_phy_id
 .text.__board_phy_config
                0x00000000c011ff70       0x20 drivers/net/phy/libphy.o
                0x00000000c011ff70                board_phy_config
 .text.phy_config
                0x00000000c011ff90       0x38 drivers/net/phy/libphy.o
                0x00000000c011ff90                phy_config
 .text.phy_connect_dev
                0x00000000c011ffc8       0x80 drivers/net/phy/libphy.o
                0x00000000c011ffc8                phy_connect_dev
 .text.phy_device_create
                0x00000000c0120048      0x160 drivers/net/phy/libphy.o
 .text.get_phy_device_by_mask
                0x00000000c01201a8      0x1ec drivers/net/phy/libphy.o
 .text.phy_find_by_mask
                0x00000000c0120394       0x7c drivers/net/phy/libphy.o
                0x00000000c0120394                phy_find_by_mask
 .text.phy_connect
                0x00000000c0120410       0xa4 drivers/net/phy/libphy.o
                0x00000000c0120410                phy_connect
 .text.phy_init
                0x00000000c01204b4       0x38 drivers/net/phy/libphy.o
                0x00000000c01204b4                phy_init
 .text.genphy_update_link
                0x00000000c01204ec      0x1fc drivers/net/phy/libphy.o
                0x00000000c01204ec                genphy_update_link
 .text.genphy_startup
                0x00000000c01206e8       0x4c drivers/net/phy/libphy.o
                0x00000000c01206e8                genphy_startup
 .text.genphy_config
                0x00000000c0120734      0x11c drivers/net/phy/libphy.o
                0x00000000c0120734                genphy_config
 .text.__phy_reset
                0x00000000c0120850      0x190 drivers/net/phy/libphy.o
                0x00000000c0120850                phy_reset
                0x00000000c0120850                __phy_reset
 .text.gen10g_shutdown
                0x00000000c01209e0        0x8 drivers/net/phy/libphy.o
                0x00000000c01209e0                gen10g_shutdown
 .text.gen10g_discover_mmds
                0x00000000c01209e8       0xc4 drivers/net/phy/libphy.o
                0x00000000c01209e8                gen10g_discover_mmds
 .text.gen10g_config
                0x00000000c0120aac       0x20 drivers/net/phy/libphy.o
                0x00000000c0120aac                gen10g_config
 .text.gen10g_startup
                0x00000000c0120acc       0xb0 drivers/net/phy/libphy.o
                0x00000000c0120acc                gen10g_startup
 .text.phy_broadcom_init
                0x00000000c0120b7c       0x6c drivers/net/phy/libphy.o
                0x00000000c0120b7c                phy_broadcom_init
 .text.bcm54xx_parse_status
                0x00000000c0120be8       0xd4 drivers/net/phy/libphy.o
 .text.bcm54xx_startup
                0x00000000c0120cbc       0x50 drivers/net/phy/libphy.o
 .text.bcm5482_startup
                0x00000000c0120d0c      0x1a8 drivers/net/phy/libphy.o
 .text.bcm5461_config
                0x00000000c0120eb4       0x5c drivers/net/phy/libphy.o
 .text.bcm5482_config
                0x00000000c0120f10      0x140 drivers/net/phy/libphy.o
 .text.pci_hose_read_config_byte
                0x00000000c0121050        0xc drivers/pci/libpci.o
                0x00000000c0121050                pci_hose_read_config_byte
 .text.pci_hose_read_config_word
                0x00000000c012105c        0xc drivers/pci/libpci.o
                0x00000000c012105c                pci_hose_read_config_word
 .text.pci_hose_read_config_dword
                0x00000000c0121068        0xc drivers/pci/libpci.o
                0x00000000c0121068                pci_hose_read_config_dword
 .text.pci_hose_write_config_byte
                0x00000000c0121074        0xc drivers/pci/libpci.o
                0x00000000c0121074                pci_hose_write_config_byte
 .text.pci_hose_write_config_word
                0x00000000c0121080        0xc drivers/pci/libpci.o
                0x00000000c0121080                pci_hose_write_config_word
 .text.pci_hose_write_config_dword
                0x00000000c012108c        0xc drivers/pci/libpci.o
                0x00000000c012108c                pci_hose_write_config_dword
 .text.pci_register_hose
                0x00000000c0121098       0x34 drivers/pci/libpci.o
                0x00000000c0121098                pci_register_hose
 .text.pci_bus_to_hose
                0x00000000c01210cc       0x4c drivers/pci/libpci.o
                0x00000000c01210cc                pci_bus_to_hose
 .text.pci_write_config_dword
                0x00000000c0121118       0x90 drivers/pci/libpci.o
                0x00000000c0121118                pci_write_config_dword
 .text.pci_write_config_word
                0x00000000c01211a8       0x90 drivers/pci/libpci.o
                0x00000000c01211a8                pci_write_config_word
 .text.pci_write_config_byte
                0x00000000c0121238       0x90 drivers/pci/libpci.o
                0x00000000c0121238                pci_write_config_byte
 .text.pci_read_config_dword
                0x00000000c01212c8       0x94 drivers/pci/libpci.o
                0x00000000c01212c8                pci_read_config_dword
 .text.pci_read_config_word
                0x00000000c012135c       0x98 drivers/pci/libpci.o
                0x00000000c012135c                pci_read_config_word
 .text.pci_read_config_byte
                0x00000000c01213f4       0x98 drivers/pci/libpci.o
                0x00000000c01213f4                pci_read_config_byte
 .text.pci_class_str
                0x00000000c012148c      0x1b0 drivers/pci/libpci.o
                0x00000000c012148c                pci_class_str
 .text.pci_init
                0x00000000c012163c       0x1c drivers/pci/libpci.o
                0x00000000c012163c                pci_init
 .text.pci_hose_scan_bus
                0x00000000c0121658      0x1bc drivers/pci/libpci.o
                0x00000000c0121658                pci_hose_scan_bus
 .text.pci_hose_scan
                0x00000000c0121814       0x60 drivers/pci/libpci.o
                0x00000000c0121814                pci_hose_scan
 .text.pciauto_region_align
                0x00000000c0121874       0x1c drivers/pci/libpci.o
                0x00000000c0121874                pciauto_region_align
 .text.pciauto_region_allocate
                0x00000000c0121890       0x5c drivers/pci/libpci.o
                0x00000000c0121890                pciauto_region_allocate
 .text.pciauto_postscan_setup_bridge
                0x00000000c01218ec      0x178 drivers/pci/libpci.o
                0x00000000c01218ec                pciauto_postscan_setup_bridge
 .text.pciauto_prescan_setup_bridge
                0x00000000c0121a64      0x240 drivers/pci/libpci.o
                0x00000000c0121a64                pciauto_prescan_setup_bridge
 .text.pciauto_setup_device
                0x00000000c0121ca4      0x2b4 drivers/pci/libpci.o
                0x00000000c0121ca4                pciauto_setup_device
 .text.pciauto_config_device
                0x00000000c0121f58      0x19c drivers/pci/libpci.o
                0x00000000c0121f58                pciauto_config_device
 .text.pciauto_config_init
                0x00000000c01220f4      0x158 drivers/pci/libpci.o
                0x00000000c01220f4                pciauto_config_init
 .text.GregorianDay
                0x00000000c012224c      0x178 drivers/rtc/librtc.o
                0x00000000c012224c                GregorianDay
 .text.to_tm    0x00000000c01223c4      0x164 drivers/rtc/librtc.o
                0x00000000c01223c4                to_tm
 .text.get_current
                0x00000000c0122528       0x64 drivers/serial/libserial.o
 .text.serial_puts
                0x00000000c012258c       0x48 drivers/serial/libserial.o
                0x00000000c012258c                serial_puts
 .text.serial_putc
                0x00000000c01225d4       0x48 drivers/serial/libserial.o
                0x00000000c01225d4                serial_putc
 .text.serial_tstc
                0x00000000c012261c       0x3c drivers/serial/libserial.o
                0x00000000c012261c                serial_tstc
 .text.serial_getc
                0x00000000c0122658       0x3c drivers/serial/libserial.o
                0x00000000c0122658                serial_getc
 .text.serial_setbrg
                0x00000000c0122694       0x3c drivers/serial/libserial.o
                0x00000000c0122694                serial_setbrg
 .text.on_baudrate
                0x00000000c01226d0      0x168 drivers/serial/libserial.o
 .text.serial_init
                0x00000000c0122838       0x3c drivers/serial/libserial.o
                0x00000000c0122838                serial_init
 .text.serial_stdio_init
                0x00000000c0122874       0xec drivers/serial/libserial.o
                0x00000000c0122874                serial_stdio_init
 .text.default_serial_console
                0x00000000c0122960       0x14 drivers/serial/libserial.o
                0x00000000c0122960                default_serial_console
 .text.octeon_board_poll
                0x00000000c0122974        0x8 drivers/serial/libserial.o
                0x00000000c0122974                octeon_board_poll
 .text.compute_divisor
                0x00000000c012297c       0x1c drivers/serial/libserial.o
 .text.octeon_serial_tstc
                0x00000000c0122998       0x94 drivers/serial/libserial.o
 .text.octeon_serial_putc
                0x00000000c0122a2c      0x1c0 drivers/serial/libserial.o
 .text.octeon_serial_puts
                0x00000000c0122bec       0x64 drivers/serial/libserial.o
 .text.octeon_serial_getc
                0x00000000c0122c50       0xf8 drivers/serial/libserial.o
 .text.octeon_set_baud
                0x00000000c0122d48      0x204 drivers/serial/libserial.o
                0x00000000c0122d48                octeon_set_baud
 .text.octeon_serial_setbrg
                0x00000000c0122f4c       0x20 drivers/serial/libserial.o
 .text.octeon_uart_setup2
                0x00000000c0122f6c      0x32c drivers/serial/libserial.o
                0x00000000c0122f6c                octeon_uart_setup2
 .text.octeon_uart_setup
                0x00000000c0123298       0x4c drivers/serial/libserial.o
                0x00000000c0123298                octeon_uart_setup
 .text.octeon_serial_init
                0x00000000c01232e4       0x84 drivers/serial/libserial.o
 .text.spi_init
                0x00000000c0123368        0x8 drivers/spi/libspi.o
                0x00000000c0123368                spi_init
 .text.octeon_spi_set_mpicfg
                0x00000000c0123370       0xa4 drivers/spi/libspi.o
 .text.octeon_spi_wait_ready
                0x00000000c0123414       0x90 drivers/spi/libspi.o
 .text.spi_free_slave
                0x00000000c01234a4       0x40 drivers/spi/libspi.o
                0x00000000c01234a4                spi_free_slave
 .text.spi_claim_bus
                0x00000000c01234e4       0x3c drivers/spi/libspi.o
                0x00000000c01234e4                spi_claim_bus
 .text.spi_release_bus
                0x00000000c0123520       0x3c drivers/spi/libspi.o
                0x00000000c0123520                spi_release_bus
 .text.spi_xfer
                0x00000000c012355c      0x388 drivers/spi/libspi.o
                0x00000000c012355c                spi_xfer
 .text.spi_setup_slave
                0x00000000c01238e4      0x15c drivers/spi/libspi.o
                0x00000000c01238e4                spi_setup_slave
 .text.tis_init
                0x00000000c0123a40       0xec drivers/tpm/libtpm.o
                0x00000000c0123a40                tis_init
 .text.tis_wait_reg
                0x00000000c0123b2c      0x114 drivers/tpm/libtpm.o
 .text.tis_close
                0x00000000c0123c40       0xa0 drivers/tpm/libtpm.o
                0x00000000c0123c40                tis_close
 .text.tis_open
                0x00000000c0123ce0       0xb4 drivers/tpm/libtpm.o
                0x00000000c0123ce0                tis_open
 .text.tis_sendrecv
                0x00000000c0123d94      0x4bc drivers/tpm/libtpm.o
                0x00000000c0123d94                tis_sendrecv
 .text.tpm_sendrecv_command
                0x00000000c0124250       0xe4 drivers/tpm/libtpm.o
 .text.tpm_physical_disable
                0x00000000c0124334       0x28 drivers/tpm/libtpm.o
                0x00000000c0124334                tpm_physical_disable
 .text.tpm_physical_enable
                0x00000000c012435c       0x28 drivers/tpm/libtpm.o
                0x00000000c012435c                tpm_physical_enable
 .text.tpm_force_clear
                0x00000000c0124384       0x28 drivers/tpm/libtpm.o
                0x00000000c0124384                tpm_force_clear
 .text.tpm_raw_transfer
                0x00000000c01243ac       0x44 drivers/tpm/libtpm.o
                0x00000000c01243ac                tpm_raw_transfer
 .text.tpm_continue_self_test
                0x00000000c01243f0       0x28 drivers/tpm/libtpm.o
                0x00000000c01243f0                tpm_continue_self_test
 .text.tpm_self_test_full
                0x00000000c0124418       0x28 drivers/tpm/libtpm.o
                0x00000000c0124418                tpm_self_test_full
 .text.tpm_init
                0x00000000c0124440       0x48 drivers/tpm/libtpm.o
                0x00000000c0124440                tpm_init
 .text.unpack_byte_string
                0x00000000c0124488      0x1ec drivers/tpm/libtpm.o
                0x00000000c0124488                unpack_byte_string
 .text.tpm_read_pubek
                0x00000000c0124674       0xf0 drivers/tpm/libtpm.o
                0x00000000c0124674                tpm_read_pubek
 .text.pack_byte_string
                0x00000000c0124764      0x1b4 drivers/tpm/libtpm.o
                0x00000000c0124764                pack_byte_string
 .text.tpm_get_capability
                0x00000000c0124918      0x128 drivers/tpm/libtpm.o
                0x00000000c0124918                tpm_get_capability
 .text.tpm_physical_set_deactivated
                0x00000000c0124a40       0x84 drivers/tpm/libtpm.o
                0x00000000c0124a40                tpm_physical_set_deactivated
 .text.tpm_tsc_physical_presence
                0x00000000c0124ac4       0x84 drivers/tpm/libtpm.o
                0x00000000c0124ac4                tpm_tsc_physical_presence
 .text.tpm_pcr_read
                0x00000000c0124b48       0xe4 drivers/tpm/libtpm.o
                0x00000000c0124b48                tpm_pcr_read
 .text.tpm_extend
                0x00000000c0124c2c       0xf0 drivers/tpm/libtpm.o
                0x00000000c0124c2c                tpm_extend
 .text.tpm_nv_write_value
                0x00000000c0124d1c       0xc0 drivers/tpm/libtpm.o
                0x00000000c0124d1c                tpm_nv_write_value
 .text.tpm_nv_read_value
                0x00000000c0124ddc      0x120 drivers/tpm/libtpm.o
                0x00000000c0124ddc                tpm_nv_read_value
 .text.tpm_nv_define_space
                0x00000000c0124efc       0xa4 drivers/tpm/libtpm.o
                0x00000000c0124efc                tpm_nv_define_space
 .text.tpm_startup
                0x00000000c0124fa0       0x80 drivers/tpm/libtpm.o
                0x00000000c0124fa0                tpm_startup
 .text.xhci_powerdown_fixup
                0x00000000c0125020      0x128 drivers/usb/host/libusb_host.o
                0x00000000c0125028                xhci_powerdown_fixup
 .text.xhci_get_ep_index
                0x00000000c0125148       0x34 drivers/usb/host/libusb_host.o
 .text.submit_int_msg
                0x00000000c012517c        0x8 drivers/usb/host/libusb_host.o
                0x00000000c012517c                submit_int_msg
 .text.xhci_check_csrtimeout
                0x00000000c0125184       0xa8 drivers/usb/host/libusb_host.o
 .text.handshake
                0x00000000c012522c       0xc4 drivers/usb/host/libusb_host.o
 .text.xhci_reset
                0x00000000c01252f0      0x138 drivers/usb/host/libusb_host.o
                0x00000000c01252f0                xhci_reset
 .text.usb_lowlevel_stop
                0x00000000c0125428       0xc8 drivers/usb/host/libusb_host.o
                0x00000000c0125428                usb_lowlevel_stop
 .text.xhci_configure_endpoints
                0x00000000c01254f0      0x160 drivers/usb/host/libusb_host.o
 .text.submit_control_msg
                0x00000000c0125650      0xd9c drivers/usb/host/libusb_host.o
                0x00000000c0125650                submit_control_msg
 .text.submit_bulk_msg
                0x00000000c01263ec       0x6c drivers/usb/host/libusb_host.o
                0x00000000c01263ec                submit_bulk_msg
 .text.usb_alloc_device
                0x00000000c0126458      0x120 drivers/usb/host/libusb_host.o
                0x00000000c0126458                usb_alloc_device
 .text.xhci_check_maxpacket
                0x00000000c0126578      0x178 drivers/usb/host/libusb_host.o
                0x00000000c0126578                xhci_check_maxpacket
 .text.usb_lowlevel_init
                0x00000000c01266f0      0x254 drivers/usb/host/libusb_host.o
                0x00000000c01266f0                usb_lowlevel_init
 .text.xhci_get_input_control_ctx
                0x00000000c0126944       0x6c drivers/usb/host/libusb_host.o
                0x00000000c0126944                xhci_get_input_control_ctx
 .text.xhci_link_segments
                0x00000000c01269b0      0x14c drivers/usb/host/libusb_host.o
 .text.xhci_get_ep_ctx
                0x00000000c0126afc       0x78 drivers/usb/host/libusb_host.o
                0x00000000c0126afc                xhci_get_ep_ctx
 .text.xhci_endpoint_copy
                0x00000000c0126b74       0x9c drivers/usb/host/libusb_host.o
                0x00000000c0126b74                xhci_endpoint_copy
 .text.xhci_get_slot_ctx
                0x00000000c0126c10       0x6c drivers/usb/host/libusb_host.o
                0x00000000c0126c10                xhci_get_slot_ctx
 .text.xhci_slot_copy
                0x00000000c0126c7c       0x84 drivers/usb/host/libusb_host.o
                0x00000000c0126c7c                xhci_slot_copy
 .text.xhci_free_container_ctx
                0x00000000c0126d00       0x4c drivers/usb/host/libusb_host.o
 .text.xhci_segment_free
                0x00000000c0126d4c       0x50 drivers/usb/host/libusb_host.o
 .text.xhci_ring_free
                0x00000000c0126d9c       0xa8 drivers/usb/host/libusb_host.o
 .text.xhci_cleanup
                0x00000000c0126e44      0x160 drivers/usb/host/libusb_host.o
                0x00000000c0126e44                xhci_cleanup
 .text.xhci_inval_cache
                0x00000000c0126fa4       0x84 drivers/usb/host/libusb_host.o
                0x00000000c0126fa4                xhci_inval_cache
 .text.xhci_flush_cache
                0x00000000c0127028       0x84 drivers/usb/host/libusb_host.o
                0x00000000c0127028                xhci_flush_cache
 .text.xhci_setup_addressable_virt_dev
                0x00000000c01270ac      0x2d4 drivers/usb/host/libusb_host.o
                0x00000000c01270ac                xhci_setup_addressable_virt_dev
 .text.xhci_malloc
                0x00000000c0127380       0xc4 drivers/usb/host/libusb_host.o
 .text.xhci_alloc_container_ctx
                0x00000000c0127444      0x13c drivers/usb/host/libusb_host.o
 .text.xhci_segment_alloc
                0x00000000c0127580       0x94 drivers/usb/host/libusb_host.o
 .text.xhci_ring_alloc
                0x00000000c0127614      0x1c4 drivers/usb/host/libusb_host.o
                0x00000000c0127614                xhci_ring_alloc
 .text.xhci_alloc_virt_device
                0x00000000c01277d8      0x1e4 drivers/usb/host/libusb_host.o
                0x00000000c01277d8                xhci_alloc_virt_device
 .text.xhci_mem_init
                0x00000000c01279bc      0x3fc drivers/usb/host/libusb_host.o
                0x00000000c01279bc                xhci_mem_init
 .text.last_trb
                0x00000000c0127db8       0x3c drivers/usb/host/libusb_host.o
 .text.last_trb_on_last_seg
                0x00000000c0127df4       0x44 drivers/usb/host/libusb_host.o
 .text.xhci_td_remainder
                0x00000000c0127e38       0x18 drivers/usb/host/libusb_host.o
 .text.queue_trb
                0x00000000c0127e50      0x1cc drivers/usb/host/libusb_host.o
 .text.record_transfer_result
                0x00000000c012801c       0xfc drivers/usb/host/libusb_host.o
 .text.prepare_ring
                0x00000000c0128118      0x1a4 drivers/usb/host/libusb_host.o
 .text.xhci_acknowledge_event
                0x00000000c01282bc      0x14c drivers/usb/host/libusb_host.o
                0x00000000c01282bc                xhci_acknowledge_event
 .text.giveback_first_trb
                0x00000000c0128408       0xc8 drivers/usb/host/libusb_host.o
 .text.xhci_queue_command
                0x00000000c01284d0      0x13c drivers/usb/host/libusb_host.o
                0x00000000c01284d0                xhci_queue_command
 .text.xhci_wait_for_event
                0x00000000c012860c      0x274 drivers/usb/host/libusb_host.o
                0x00000000c012860c                xhci_wait_for_event
 .text.abort_td
                0x00000000c0128880      0x2c8 drivers/usb/host/libusb_host.o
 .text.xhci_ctrl_tx
                0x00000000c0128b48      0x4dc drivers/usb/host/libusb_host.o
                0x00000000c0128b48                xhci_ctrl_tx
 .text.xhci_queue_address_device
                0x00000000c0129024      0x110 drivers/usb/host/libusb_host.o
                0x00000000c0129024                xhci_queue_address_device
 .text.xhci_bulk_tx
                0x00000000c0129134      0x6c0 drivers/usb/host/libusb_host.o
                0x00000000c0129134                xhci_bulk_tx
 .text.read_uahc_reg
                0x00000000c01297f4       0x48 drivers/usb/host/libusb_host.o
 .text.xhci_readl
                0x00000000c012983c       0x80 drivers/usb/host/libusb_host.o
                0x00000000c012983c                xhci_readl
 .text.octeon3_usb_set_endian_mode
                0x00000000c01298bc       0x8c drivers/usb/host/libusb_host.o
                0x00000000c01298bc                octeon3_usb_set_endian_mode
 .text.xhci_powerup_fixup
                0x00000000c0129948       0x18 drivers/usb/host/libusb_host.o
                0x00000000c0129948                xhci_powerup_fixup
 .text.xhci_hcd_stop
                0x00000000c0129960       0x90 drivers/usb/host/libusb_host.o
                0x00000000c0129960                xhci_hcd_stop
 .text.write_uahc_reg
                0x00000000c01299f0       0x4c drivers/usb/host/libusb_host.o
 .text.xhci_writel
                0x00000000c0129a3c       0xe4 drivers/usb/host/libusb_host.o
                0x00000000c0129a3c                xhci_writel
 .text.octeon_xhci_test_usb2
                0x00000000c0129b20       0xe8 drivers/usb/host/libusb_host.o
                0x00000000c0129b20                octeon_xhci_test_usb2
 .text.dwc3_set_mode
                0x00000000c0129c08       0x64 drivers/usb/host/libusb_host.o
 .text.octeon3_usb_gpio_compatible
                0x00000000c0129c6c       0x78 drivers/usb/host/libusb_host.o
 .text.dwc3_uphy_indirect_write
                0x00000000c0129ce4      0x468 drivers/usb/host/libusb_host.o
 .text.dwc3_uphy_indirect_read
                0x00000000c012a14c      0x360 drivers/usb/host/libusb_host.o
                0x00000000c012a14c                dwc3_uphy_indirect_read
 .text.dwc3_uphy_pll_reset
                0x00000000c012a4ac      0x27c drivers/usb/host/libusb_host.o
 .text.xhci_hcd_init
                0x00000000c012a728     0x2f00 drivers/usb/host/libusb_host.o
                0x00000000c012a728                xhci_hcd_init
 .text.octeon3_xhci_phy_reset
                0x00000000c012d628      0x110 drivers/usb/host/libusb_host.o
                0x00000000c012d628                octeon3_xhci_phy_reset
 .text.downcase
                0x00000000c012d738       0x4c fs/fat/libfat.o
 .text.disk_read
                0x00000000c012d784       0x48 fs/fat/libfat.o
 .text.dirdelim
                0x00000000c012d7cc       0x40 fs/fat/libfat.o
 .text.get_fatent
                0x00000000c012d80c      0x25c fs/fat/libfat.o
 .text.slot2str
                0x00000000c012da68       0xd8 fs/fat/libfat.o
 .text.mkcksum  0x00000000c012db40       0x78 fs/fat/libfat.o
 .text.fat_close
                0x00000000c012dbb8        0x8 fs/fat/libfat.o
                0x00000000c012dbb8                fat_close
 .text.is_next_clust
                0x00000000c012dbc0       0x2c fs/fat/libfat.o
 .text.disk_write
                0x00000000c012dbec       0x9c fs/fat/libfat.o
 .text.flush_fat_buffer
                0x00000000c012dc88       0xdc fs/fat/libfat.o
 .text.get_fatent_value
                0x00000000c012dd64      0x29c fs/fat/libfat.o
 .text.find_empty_cluster
                0x00000000c012e000       0x70 fs/fat/libfat.o
 .text.get_name
                0x00000000c012e070       0xfc fs/fat/libfat.o
 .text.set_fatent_value
                0x00000000c012e16c      0x1b8 fs/fat/libfat.o
 .text.read_bootsectandvi
                0x00000000c012e324      0x2bc fs/fat/libfat.o
 .text.set_cluster
                0x00000000c012e5e0      0x130 fs/fat/libfat.o
 .text.set_contents
                0x00000000c012e710      0x298 fs/fat/libfat.o
 .text.get_cluster
                0x00000000c012e9a8      0x230 fs/fat/libfat.o
 .text.get_vfatname
                0x00000000c012ebd8      0x258 fs/fat/libfat.o
 .text.do_fat_read_at
                0x00000000c012ee30      0xd14 fs/fat/libfat.o
                0x00000000c012ee30                do_fat_read_at
 .text.file_fat_read_at
                0x00000000c012fb44       0x88 fs/fat/libfat.o
                0x00000000c012fb44                file_fat_read_at
 .text.fat_read_file
                0x00000000c012fbcc       0x70 fs/fat/libfat.o
                0x00000000c012fbcc                fat_read_file
 .text.fat_exists
                0x00000000c012fc3c       0x4c fs/fat/libfat.o
                0x00000000c012fc3c                fat_exists
 .text.do_fat_read
                0x00000000c012fc88       0x2c fs/fat/libfat.o
                0x00000000c012fc88                do_fat_read
 .text.file_fat_ls
                0x00000000c012fcb4       0x20 fs/fat/libfat.o
                0x00000000c012fcb4                file_fat_ls
 .text.set_name
                0x00000000c012fcd4      0x1bc fs/fat/libfat.o
 .text.flush_dir_table
                0x00000000c012fe90      0x158 fs/fat/libfat.o
 .text.check_overflow
                0x00000000c012ffe8       0x88 fs/fat/libfat.o
 .text.file_fat_write
                0x00000000c0130070      0xc28 fs/fat/libfat.o
                0x00000000c0130070                file_fat_write
 .text.file_fat_detectfs
                0x00000000c0130c98      0x18c fs/fat/libfat.o
                0x00000000c0130c98                file_fat_detectfs
 .text.fat_set_blk_dev
                0x00000000c0130e24      0x17c fs/fat/libfat.o
                0x00000000c0130e24                fat_set_blk_dev
 .text.fs_ls_unsupported
                0x00000000c0130fa0        0x8 fs/libfs.o
 .text.fs_exists_unsupported
                0x00000000c0130fa8        0x8 fs/libfs.o
 .text.fs_read_unsupported
                0x00000000c0130fb0        0x8 fs/libfs.o
 .text.fs_write_unsupported
                0x00000000c0130fb8        0x8 fs/libfs.o
 .text.fs_close_unsupported
                0x00000000c0130fc0        0x8 fs/libfs.o
 .text.fs_get_info
                0x00000000c0130fc8       0x30 fs/libfs.o
 .text.fs_close
                0x00000000c0130ff8       0x54 fs/libfs.o
 .text.fs_ls    0x00000000c013104c       0x78 fs/libfs.o
                0x00000000c013104c                fs_ls
 .text.fs_read  0x00000000c01310c4       0xc8 fs/libfs.o
                0x00000000c01310c4                fs_read
 .text.fs_probe_unsupported
                0x00000000c013118c       0x3c fs/libfs.o
 .text.fs_set_blk_dev
                0x00000000c01311c8      0x104 fs/libfs.o
                0x00000000c01311c8                fs_set_blk_dev
 .text.do_ls    0x00000000c01312cc       0xb0 fs/libfs.o
                0x00000000c01312cc                do_ls
 .text.do_load  0x00000000c013137c      0x290 fs/libfs.o
                0x00000000c013137c                do_load
 .text.fdt_check_header
                0x00000000c013160c       0x68 lib/libfdt/libfdt.o
                0x00000000c013160c                fdt_check_header
 .text.fdt_offset_ptr
                0x00000000c0131674       0x38 lib/libfdt/libfdt.o
                0x00000000c0131674                fdt_offset_ptr
 .text.fdt_move
                0x00000000c01316ac       0x8c lib/libfdt/libfdt.o
                0x00000000c01316ac                fdt_move
 .text._fdt_find_string
                0x00000000c0131738       0xb4 lib/libfdt/libfdt.o
                0x00000000c0131738                _fdt_find_string
 .text.fdt_next_tag
                0x00000000c01317ec      0x194 lib/libfdt/libfdt.o
                0x00000000c01317ec                fdt_next_tag
 .text._fdt_check_prop_offset
                0x00000000c0131980       0x58 lib/libfdt/libfdt.o
                0x00000000c0131980                _fdt_check_prop_offset
 .text._fdt_check_node_offset
                0x00000000c01319d8       0x58 lib/libfdt/libfdt.o
                0x00000000c01319d8                _fdt_check_node_offset
 .text.fdt_next_node
                0x00000000c0131a30      0x10c lib/libfdt/libfdt.o
                0x00000000c0131a30                fdt_next_node
 .text.fdt_next_subnode
                0x00000000c0131b3c       0x88 lib/libfdt/libfdt.o
                0x00000000c0131b3c                fdt_next_subnode
 .text.fdt_first_subnode
                0x00000000c0131bc4       0x58 lib/libfdt/libfdt.o
                0x00000000c0131bc4                fdt_first_subnode
 .text.fdt_string
                0x00000000c0131c1c       0x10 lib/libfdt/libfdt.o
                0x00000000c0131c1c                fdt_string
 .text.fdt_num_mem_rsv
                0x00000000c0131c2c       0x2c lib/libfdt/libfdt.o
                0x00000000c0131c2c                fdt_num_mem_rsv
 .text.fdt_supernode_atdepth_offset
                0x00000000c0131c58      0x120 lib/libfdt/libfdt.o
                0x00000000c0131c58                fdt_supernode_atdepth_offset
 .text.fdt_node_depth
                0x00000000c0131d78       0x50 lib/libfdt/libfdt.o
                0x00000000c0131d78                fdt_node_depth
 .text.fdt_parent_offset
                0x00000000c0131dc8       0x78 lib/libfdt/libfdt.o
                0x00000000c0131dc8                fdt_parent_offset
 .text.fdt_stringlist_contains
                0x00000000c0131e40       0xf4 lib/libfdt/libfdt.o
                0x00000000c0131e40                fdt_stringlist_contains
 .text.fdt_get_property_by_offset
                0x00000000c0131f34       0x88 lib/libfdt/libfdt.o
                0x00000000c0131f34                fdt_get_property_by_offset
 .text._nextprop
                0x00000000c0131fbc       0xa0 lib/libfdt/libfdt.o
 .text.fdt_next_property_offset
                0x00000000c013205c       0x64 lib/libfdt/libfdt.o
                0x00000000c013205c                fdt_next_property_offset
 .text.fdt_first_property_offset
                0x00000000c01320c0       0x64 lib/libfdt/libfdt.o
                0x00000000c01320c0                fdt_first_property_offset
 .text.fdt_get_property_namelen
                0x00000000c0132124      0x150 lib/libfdt/libfdt.o
                0x00000000c0132124                fdt_get_property_namelen
 .text.fdt_getprop_namelen
                0x00000000c0132274       0x40 lib/libfdt/libfdt.o
                0x00000000c0132274                fdt_getprop_namelen
 .text.fdt_getprop
                0x00000000c01322b4       0x7c lib/libfdt/libfdt.o
                0x00000000c01322b4                fdt_getprop
 .text.fdt_node_check_compatible
                0x00000000c0132330       0x68 lib/libfdt/libfdt.o
                0x00000000c0132330                fdt_node_check_compatible
 .text.fdt_node_offset_by_compatible
                0x00000000c0132398       0xec lib/libfdt/libfdt.o
                0x00000000c0132398                fdt_node_offset_by_compatible
 .text.fdt_get_phandle
                0x00000000c0132484       0xac lib/libfdt/libfdt.o
                0x00000000c0132484                fdt_get_phandle
 .text.fdt_node_offset_by_phandle
                0x00000000c0132530       0xe8 lib/libfdt/libfdt.o
                0x00000000c0132530                fdt_node_offset_by_phandle
 .text.fdt_get_property
                0x00000000c0132618       0x7c lib/libfdt/libfdt.o
                0x00000000c0132618                fdt_get_property
 .text.fdt_get_name
                0x00000000c0132694       0xb0 lib/libfdt/libfdt.o
                0x00000000c0132694                fdt_get_name
 .text.fdt_subnode_offset_namelen
                0x00000000c0132744      0x16c lib/libfdt/libfdt.o
                0x00000000c0132744                fdt_subnode_offset_namelen
 .text.fdt_path_offset
                0x00000000c01328b0      0x174 lib/libfdt/libfdt.o
                0x00000000c01328b0                fdt_path_offset
 .text.fdt_get_alias_namelen
                0x00000000c0132a24       0x98 lib/libfdt/libfdt.o
                0x00000000c0132a24                fdt_get_alias_namelen
 .text.fdt_get_alias
                0x00000000c0132abc       0x5c lib/libfdt/libfdt.o
                0x00000000c0132abc                fdt_get_alias
 .text.fdt_subnode_offset
                0x00000000c0132b18       0x6c lib/libfdt/libfdt.o
                0x00000000c0132b18                fdt_subnode_offset
 .text.fdt_get_mem_rsv
                0x00000000c0132b84       0x84 lib/libfdt/libfdt.o
                0x00000000c0132b84                fdt_get_mem_rsv
 .text._fdt_blocks_misordered
                0x00000000c0132c08       0x54 lib/libfdt/libfdt.o
 .text._fdt_rw_check_header
                0x00000000c0132c5c       0xa0 lib/libfdt/libfdt.o
 .text._fdt_packblocks
                0x00000000c0132cfc       0xc4 lib/libfdt/libfdt.o
 .text.fdt_pack
                0x00000000c0132dc0       0x90 lib/libfdt/libfdt.o
                0x00000000c0132dc0                fdt_pack
 .text._fdt_splice
                0x00000000c0132e50       0x94 lib/libfdt/libfdt.o
 .text._fdt_splice_struct
                0x00000000c0132ee4       0x78 lib/libfdt/libfdt.o
 .text._fdt_splice_mem_rsv
                0x00000000c0132f5c       0x84 lib/libfdt/libfdt.o
 .text.fdt_del_mem_rsv
                0x00000000c0132fe0       0xb8 lib/libfdt/libfdt.o
                0x00000000c0132fe0                fdt_del_mem_rsv
 .text.fdt_del_node
                0x00000000c0133098       0xa4 lib/libfdt/libfdt.o
                0x00000000c0133098                fdt_del_node
 .text.fdt_add_subnode_namelen
                0x00000000c013313c      0x180 lib/libfdt/libfdt.o
                0x00000000c013313c                fdt_add_subnode_namelen
 .text.fdt_add_subnode
                0x00000000c01332bc       0x6c lib/libfdt/libfdt.o
                0x00000000c01332bc                fdt_add_subnode
 .text.fdt_delprop
                0x00000000c0133328       0xac lib/libfdt/libfdt.o
                0x00000000c0133328                fdt_delprop
 .text._fdt_add_property
                0x00000000c01333d4      0x184 lib/libfdt/libfdt.o
 .text.fdt_setprop
                0x00000000c0133558      0x140 lib/libfdt/libfdt.o
                0x00000000c0133558                fdt_setprop
 .text.fdt_set_name
                0x00000000c0133698       0xf4 lib/libfdt/libfdt.o
                0x00000000c0133698                fdt_set_name
 .text.fdt_open_into
                0x00000000c013378c      0x204 lib/libfdt/libfdt.o
                0x00000000c013378c                fdt_open_into
 .text.fdt_add_mem_rsv
                0x00000000c0133990       0xc4 lib/libfdt/libfdt.o
                0x00000000c0133990                fdt_add_mem_rsv
 .text.fdt_strerror
                0x00000000c0133a54       0x60 lib/libfdt/libfdt.o
                0x00000000c0133a54                fdt_strerror
 .text._fdt_nop_region
                0x00000000c0133ab4       0x24 lib/libfdt/libfdt.o
 .text._fdt_node_end_offset
                0x00000000c0133ad8       0x7c lib/libfdt/libfdt.o
                0x00000000c0133ad8                _fdt_node_end_offset
 .text.fdt_nop_node
                0x00000000c0133b54       0x88 lib/libfdt/libfdt.o
                0x00000000c0133b54                fdt_nop_node
 .text.fdt_nop_property
                0x00000000c0133bdc       0x58 lib/libfdt/libfdt.o
                0x00000000c0133bdc                fdt_nop_property
 .text.fdt_setprop_inplace
                0x00000000c0133c34       0x74 lib/libfdt/libfdt.o
                0x00000000c0133c34                fdt_setprop_inplace
 .text.addrmap_virt_to_phys
                0x00000000c0133ca8       0x94 lib/libgeneric.o
                0x00000000c0133ca8                addrmap_virt_to_phys
 .text.addrmap_set_entry
                0x00000000c0133d3c       0x40 lib/libgeneric.o
                0x00000000c0133d3c                addrmap_set_entry
 .text.cyg_crc16
                0x00000000c0133d7c       0x5c lib/libgeneric.o
                0x00000000c0133d7c                cyg_crc16
 .text.print_size
                0x00000000c0133dd8      0x13c lib/libgeneric.o
                0x00000000c0133dd8                print_size
 .text.print_buffer
                0x00000000c0133f14      0x27c lib/libgeneric.o
                0x00000000c0133f14                print_buffer
 .text.__div64_32
                0x00000000c0134190       0x80 lib/libgeneric.o
                0x00000000c0134190                __div64_32
 .text.fdtdec_get_bool
                0x00000000c0134210       0x38 lib/libgeneric.o
                0x00000000c0134210                fdtdec_get_bool
 .text.fdtdec_get_uint64
                0x00000000c0134248       0x60 lib/libgeneric.o
                0x00000000c0134248                fdtdec_get_uint64
 .text.fdtdec_get_int
                0x00000000c01342a8       0x64 lib/libgeneric.o
                0x00000000c01342a8                fdtdec_get_int
 .text.fdtdec_get_addr_size
                0x00000000c013430c       0x84 lib/libgeneric.o
                0x00000000c013430c                fdtdec_get_addr_size
 .text.fdtdec_get_addr
                0x00000000c0134390       0x18 lib/libgeneric.o
                0x00000000c0134390                fdtdec_get_addr
 .text.fdtdec_get_config_string
                0x00000000c01343a8       0x80 lib/libgeneric.o
                0x00000000c01343a8                fdtdec_get_config_string
 .text.fdtdec_get_config_int
                0x00000000c0134428       0x94 lib/libgeneric.o
                0x00000000c0134428                fdtdec_get_config_int
 .text.fdtdec_lookup_phandle
                0x00000000c01344bc       0x68 lib/libgeneric.o
                0x00000000c01344bc                fdtdec_lookup_phandle
 .text.fdtdec_next_compatible
                0x00000000c0134524       0x28 lib/libgeneric.o
                0x00000000c0134524                fdtdec_next_compatible
 .text.__hang   0x00000000c013454c       0x3c lib/libgeneric.o
                0x00000000c013454c                hang
                0x00000000c013454c                __hang
 .text.hwalk_r  0x00000000c0134588       0x8c lib/libgeneric.o
                0x00000000c0134588                hwalk_r
 .text._hdelete
                0x00000000c0134614       0x94 lib/libgeneric.o
 .text.hdestroy_r
                0x00000000c01346a8       0xcc lib/libgeneric.o
                0x00000000c01346a8                hdestroy_r
 .text.drop_var_from_set
                0x00000000c0134774       0xc0 lib/libgeneric.o
 .text.cmpkey   0x00000000c0134834       0x24 lib/libgeneric.o
 .text.hcreate_r
                0x00000000c0134858       0xc8 lib/libgeneric.o
                0x00000000c0134858                hcreate_r
 .text.match_string
                0x00000000c0134920       0x88 lib/libgeneric.o
 .text.hexport_r
                0x00000000c01349a8      0x3d4 lib/libgeneric.o
                0x00000000c01349a8                hexport_r
 .text.hsearch_r
                0x00000000c0134d7c      0x54c lib/libgeneric.o
                0x00000000c0134d7c                hsearch_r
 .text.hdelete_r
                0x00000000c01352c8      0x134 lib/libgeneric.o
                0x00000000c01352c8                hdelete_r
 .text.himport_r
                0x00000000c01353fc      0x3f8 lib/libgeneric.o
                0x00000000c01353fc                himport_r
 .text.hmatch_r
                0x00000000c01357f4      0x10c lib/libgeneric.o
                0x00000000c01357f4                hmatch_r
 .text.strim    0x00000000c0135900       0xa0 lib/libgeneric.o
                0x00000000c0135900                strim
 .text.lmb_addrs_adjacent
                0x00000000c01359a0       0x24 lib/libgeneric.o
 .text.lmb_remove_region
                0x00000000c01359c4       0x40 lib/libgeneric.o
 .text.lmb_init
                0x00000000c0135a04       0x28 lib/libgeneric.o
                0x00000000c0135a04                lmb_init
 .text.lmb_add_region
                0x00000000c0135a2c      0x254 lib/libgeneric.o
 .text.lmb_add  0x00000000c0135c80       0x1c lib/libgeneric.o
                0x00000000c0135c80                lmb_add
 .text.lmb_reserve
                0x00000000c0135c9c       0x1c lib/libgeneric.o
                0x00000000c0135c9c                lmb_reserve
 .text.lmb_overlaps_region
                0x00000000c0135cb8       0x54 lib/libgeneric.o
                0x00000000c0135cb8                lmb_overlaps_region
 .text.__lmb_alloc_base
                0x00000000c0135d0c      0x18c lib/libgeneric.o
                0x00000000c0135d0c                __lmb_alloc_base
 .text.__board_lmb_reserve
                0x00000000c0135e98        0x8 lib/libgeneric.o
                0x00000000c0135e98                board_lmb_reserve
                0x00000000c0135e98                __board_lmb_reserve
 .text.__arch_lmb_reserve
                0x00000000c0135ea0        0x8 lib/libgeneric.o
                0x00000000c0135ea0                arch_lmb_reserve
                0x00000000c0135ea0                __arch_lmb_reserve
 .text.lmb_alloc_base
                0x00000000c0135ea8       0x74 lib/libgeneric.o
                0x00000000c0135ea8                lmb_alloc_base
 .text.lmb_alloc
                0x00000000c0135f1c       0x18 lib/libgeneric.o
                0x00000000c0135f1c                lmb_alloc
 .text.string_to_ip
                0x00000000c0135f34       0xb4 lib/libgeneric.o
                0x00000000c0135f34                string_to_ip
 .text.qsort    0x00000000c0135fe8      0x1a8 lib/libgeneric.o
                0x00000000c0135fe8                qsort
 .text.strcmp_compar
                0x00000000c0136190       0x1c lib/libgeneric.o
                0x00000000c0136190                strcmp_compar
 .text.strncasecmp
                0x00000000c01361ac       0x98 lib/libgeneric.o
                0x00000000c01361ac                strncasecmp
 .text.strcasecmp
                0x00000000c0136244       0x18 lib/libgeneric.o
                0x00000000c0136244                strcasecmp
 .text.strcpy   0x00000000c013625c       0x20 lib/libgeneric.o
                0x00000000c013625c                strcpy
 .text.strncpy  0x00000000c013627c       0x30 lib/libgeneric.o
                0x00000000c013627c                strncpy
 .text.strcat   0x00000000c01362ac       0x30 lib/libgeneric.o
                0x00000000c01362ac                strcat
 .text.strncat  0x00000000c01362dc       0x5c lib/libgeneric.o
                0x00000000c01362dc                strncat
 .text.strcmp   0x00000000c0136338       0x30 lib/libgeneric.o
                0x00000000c0136338                strcmp
 .text.strncmp  0x00000000c0136368       0x40 lib/libgeneric.o
                0x00000000c0136368                strncmp
 .text.strchr   0x00000000c01363a8       0x34 lib/libgeneric.o
                0x00000000c01363a8                strchr
 .text.strlen   0x00000000c01363dc       0x1c lib/libgeneric.o
                0x00000000c01363dc                strlen
 .text.strrchr  0x00000000c01363f8       0x74 lib/libgeneric.o
                0x00000000c01363f8                strrchr
 .text.strnlen  0x00000000c013646c       0x2c lib/libgeneric.o
                0x00000000c013646c                strnlen
 .text.strspn   0x00000000c0136498       0x40 lib/libgeneric.o
                0x00000000c0136498                strspn
 .text.strpbrk  0x00000000c01364d8       0x38 lib/libgeneric.o
                0x00000000c01364d8                strpbrk
 .text.strtok   0x00000000c0136510       0xb8 lib/libgeneric.o
                0x00000000c0136510                strtok
 .text.strsep   0x00000000c01365c8       0x68 lib/libgeneric.o
                0x00000000c01365c8                strsep
 .text.memset   0x00000000c0136630       0x78 lib/libgeneric.o
                0x00000000c0136630                memset
 .text.memcpy   0x00000000c01366a8       0x6c lib/libgeneric.o
                0x00000000c01366a8                memcpy
 .text.memmove  0x00000000c0136714       0x74 lib/libgeneric.o
                0x00000000c0136714                memmove
 .text.memcmp   0x00000000c0136788       0x34 lib/libgeneric.o
                0x00000000c0136788                memcmp
 .text.strstr   0x00000000c01367bc       0xc8 lib/libgeneric.o
                0x00000000c01367bc                strstr
 .text.memchr   0x00000000c0136884       0x34 lib/libgeneric.o
                0x00000000c0136884                memchr
 .text.strdup   0x00000000c01368b8       0x80 lib/libgeneric.o
                0x00000000c01368b8                strdup
 .text.udelay   0x00000000c0136938       0x9c lib/libgeneric.o
                0x00000000c0136938                udelay
 .text.mdelay   0x00000000c01369d4       0x64 lib/libgeneric.o
                0x00000000c01369d4                mdelay
 .text.simple_strtoul
                0x00000000c0136a38      0x120 lib/libgeneric.o
                0x00000000c0136a38                simple_strtoul
 .text.simple_strtol
                0x00000000c0136b58       0x58 lib/libgeneric.o
                0x00000000c0136b58                simple_strtol
 .text.skip_atoi
                0x00000000c0136bb0       0x44 lib/libgeneric.o
 .text.put_dec_trunc
                0x00000000c0136bf4      0x158 lib/libgeneric.o
 .text.simple_itoa
                0x00000000c0136d4c       0x74 lib/libgeneric.o
                0x00000000c0136d4c                simple_itoa
 .text.panic    0x00000000c0136dc0       0x84 lib/libgeneric.o
                0x00000000c0136dc0                panic
 .text.string   0x00000000c0136e44       0xf0 lib/libgeneric.o
 .text.put_dec  0x00000000c0136f34      0x224 lib/libgeneric.o
 .text.number   0x00000000c0137158      0x288 lib/libgeneric.o
 .text.pointer  0x00000000c01373e0      0x338 lib/libgeneric.o
 .text.vsprintf
                0x00000000c0137718      0x500 lib/libgeneric.o
                0x00000000c0137718                vsprintf
 .text.sprintf  0x00000000c0137c18       0x54 lib/libgeneric.o
                0x00000000c0137c18                sprintf
 .text.simple_strtoull
                0x00000000c0137c6c      0x198 lib/libgeneric.o
                0x00000000c0137c6c                simple_strtoull
 .text.strict_strtoul
                0x00000000c0137e04       0xc4 lib/libgeneric.o
                0x00000000c0137e04                strict_strtoul
 .text.ArpInit  0x00000000c0137ec8       0x48 net/libnet.o
                0x00000000c0137ec8                ArpInit
 .text.arp_raw_request
                0x00000000c0137f10      0x114 net/libnet.o
                0x00000000c0137f10                arp_raw_request
 .text.ArpRequest
                0x00000000c0138024       0xa8 net/libnet.o
                0x00000000c0138024                ArpRequest
 .text.ArpTimeoutCheck
                0x00000000c01380cc       0xc4 net/libnet.o
                0x00000000c01380cc                ArpTimeoutCheck
 .text.ArpReceive
                0x00000000c0138190      0x258 net/libnet.o
                0x00000000c0138190                ArpReceive
 .text.truncate_sz
                0x00000000c01383e8       0x60 net/libnet.o
 .text.DhcpOptionsProcess
                0x00000000c0138448      0x2e0 net/libnet.o
 .text.DhcpExtended
                0x00000000c0138728      0x1e4 net/libnet.o
 .text.BootpRequest
                0x00000000c013890c      0x270 net/libnet.o
                0x00000000c013890c                BootpRequest
 .text.DhcpRequest
                0x00000000c0138b7c       0x18 net/libnet.o
                0x00000000c0138b7c                DhcpRequest
 .text.BootpTimeout
                0x00000000c0138b94       0x74 net/libnet.o
 .text.DhcpHandler
                0x00000000c0138c08      0x448 net/libnet.o
 .text.CDP_compute_csum
                0x00000000c0139050       0xbc net/libnet.o
 .text.CDPSendTrigger
                0x00000000c013910c       0xe8 net/libnet.o
 .text.CDPStart
                0x00000000c01391f4       0x88 net/libnet.o
                0x00000000c01391f4                CDPStart
 .text.CDPTimeout
                0x00000000c013927c       0x98 net/libnet.o
 .text.cdp_receive
                0x00000000c0139314      0x188 net/libnet.o
                0x00000000c0139314                cdp_receive
 .text.DnsStart
                0x00000000c013949c      0x1a0 net/libnet.o
                0x00000000c013949c                DnsStart
 .text.DnsTimeout
                0x00000000c013963c       0x44 net/libnet.o
 .text.DnsHandler
                0x00000000c0139680      0x234 net/libnet.o
 .text.__def_eth_init
                0x00000000c01398b4        0x8 net/libnet.o
                0x00000000c01398b4                board_eth_init
 .text.eth_get_dev_by_index
                0x00000000c01398bc       0x44 net/libnet.o
                0x00000000c01398bc                eth_get_dev_by_index
 .text.eth_get_dev_index
                0x00000000c0139900       0x28 net/libnet.o
                0x00000000c0139900                eth_get_dev_index
 .text.eth_halt
                0x00000000c0139928       0x58 net/libnet.o
                0x00000000c0139928                eth_halt
 .text.eth_send
                0x00000000c0139980       0x34 net/libnet.o
                0x00000000c0139980                eth_send
 .text.eth_rx   0x00000000c01399b4       0x30 net/libnet.o
                0x00000000c01399b4                eth_rx
 .text.eth_save_packet
                0x00000000c01399e4       0xa8 net/libnet.o
 .text.eth_receive
                0x00000000c0139a8c      0x150 net/libnet.o
                0x00000000c0139a8c                eth_receive
 .text.eth_get_name
                0x00000000c0139bdc       0x2c net/libnet.o
                0x00000000c0139bdc                eth_get_name
 .text.eth_current_changed
                0x00000000c0139c08       0xa4 net/libnet.o
 .text.eth_set_current
                0x00000000c0139cac      0x10c net/libnet.o
                0x00000000c0139cac                eth_set_current
 .text.eth_try_another
                0x00000000c0139db8       0xbc net/libnet.o
                0x00000000c0139db8                eth_try_another
 .text.eth_register
                0x00000000c0139e74       0xa8 net/libnet.o
                0x00000000c0139e74                eth_register
 .text.eth_setenv_enetaddr
                0x00000000c0139f1c       0x5c net/libnet.o
                0x00000000c0139f1c                eth_setenv_enetaddr
 .text.eth_parse_enetaddr
                0x00000000c0139f78       0xac net/libnet.o
                0x00000000c0139f78                eth_parse_enetaddr
 .text.eth_getenv_enetaddr
                0x00000000c013a024       0x90 net/libnet.o
                0x00000000c013a024                eth_getenv_enetaddr
 .text.eth_getenv_enetaddr_by_index
                0x00000000c013a0b4       0x70 net/libnet.o
                0x00000000c013a0b4                eth_getenv_enetaddr_by_index
 .text.eth_init
                0x00000000c013a124      0x148 net/libnet.o
                0x00000000c013a124                eth_init
 .text.eth_write_hwaddr
                0x00000000c013a26c      0x1cc net/libnet.o
                0x00000000c013a26c                eth_write_hwaddr
 .text.eth_initialize
                0x00000000c013a438      0x2a8 net/libnet.o
                0x00000000c013a438                eth_initialize
 .text.startAgainTimeout
                0x00000000c013a6e0       0x1c net/libnet.o
 .text.dummy_handler
                0x00000000c013a6fc        0x8 net/libnet.o
 .text.net_set_udp_handler
                0x00000000c013a704       0x2c net/libnet.o
                0x00000000c013a704                net_set_udp_handler
 .text.net_get_arp_handler
                0x00000000c013a730       0x18 net/libnet.o
                0x00000000c013a730                net_get_arp_handler
 .text.net_set_arp_handler
                0x00000000c013a748       0x2c net/libnet.o
                0x00000000c013a748                net_set_arp_handler
 .text.net_set_icmp_handler
                0x00000000c013a774       0x18 net/libnet.o
                0x00000000c013a774                net_set_icmp_handler
 .text.NetCksum
                0x00000000c013a78c       0x38 net/libnet.o
                0x00000000c013a78c                NetCksum
 .text.NetCksumOk
                0x00000000c013a7c4       0x40 net/libnet.o
                0x00000000c013a7c4                NetCksumOk
 .text.NetEthHdrSize
                0x00000000c013a804       0x38 net/libnet.o
                0x00000000c013a804                NetEthHdrSize
 .text.copy_filename
                0x00000000c013a83c       0x50 net/libnet.o
                0x00000000c013a83c                copy_filename
 .text.on_bootfile
                0x00000000c013a88c       0x4c net/libnet.o
 .text.string_to_VLAN
                0x00000000c013a8d8       0x60 net/libnet.o
                0x00000000c013a8d8                string_to_VLAN
 .text.getenv_VLAN
                0x00000000c013a938       0x40 net/libnet.o
                0x00000000c013a938                getenv_VLAN
 .text.VLAN_to_string
                0x00000000c013a978       0x48 net/libnet.o
                0x00000000c013a978                VLAN_to_string
 .text.ip_to_string
                0x00000000c013a9c0       0x34 net/libnet.o
                0x00000000c013a9c0                ip_to_string
 .text.random_port
                0x00000000c013a9f4       0x3c net/libnet.o
                0x00000000c013a9f4                random_port
 .text.NetSetTimeout
                0x00000000c013aa30       0xac net/libnet.o
                0x00000000c013aa30                NetSetTimeout
 .text.net_clear_handlers
                0x00000000c013aadc       0x34 net/libnet.o
 .text.net_cleanup_loop
                0x00000000c013ab10       0x1c net/libnet.o
 .text.net_set_ip_header
                0x00000000c013ab2c       0xa0 net/libnet.o
                0x00000000c013ab2c                net_set_ip_header
 .text.net_set_udp_header
                0x00000000c013abcc       0xb4 net/libnet.o
                0x00000000c013abcc                net_set_udp_header
 .text.net_update_ether
                0x00000000c013ac80       0x94 net/libnet.o
                0x00000000c013ac80                net_update_ether
 .text.NetSetEther
                0x00000000c013ad14       0xbc net/libnet.o
                0x00000000c013ad14                NetSetEther
 .text.NetSendUDPPacket
                0x00000000c013add0      0x150 net/libnet.o
                0x00000000c013add0                NetSendUDPPacket
 .text.NetStartAgain
                0x00000000c013af20      0x178 net/libnet.o
                0x00000000c013af20                NetStartAgain
 .text.NetInitLoop
                0x00000000c013b098      0x16c net/libnet.o
 .text.net_init
                0x00000000c013b204       0x94 net/libnet.o
                0x00000000c013b204                net_init
 .text.net_auto_load
                0x00000000c013b298       0xa0 net/libnet.o
                0x00000000c013b298                net_auto_load
 .text.NetReceive
                0x00000000c013b338      0x72c net/libnet.o
                0x00000000c013b338                NetReceive
 .text.NetLoop  0x00000000c013ba64      0x538 net/libnet.o
                0x00000000c013ba64                NetLoop
 .text.basename
                0x00000000c013bf9c       0x70 net/libnet.o
 .text.dirname  0x00000000c013c00c       0x48 net/libnet.o
 .text.rpc_lookup_reply
                0x00000000c013c054       0xbc net/libnet.o
 .text.rpc_add_credentials
                0x00000000c013c110       0xf4 net/libnet.o
 .text.rpc_req  0x00000000c013c204      0x108 net/libnet.o
 .text.rpc_lookup_req
                0x00000000c013c30c       0x6c net/libnet.o
 .text.NfsSend  0x00000000c013c378      0x2f8 net/libnet.o
 .text.NfsStart
                0x00000000c013c670      0x2a4 net/libnet.o
                0x00000000c013c670                NfsStart
 .text.NfsTimeout
                0x00000000c013c914       0xb0 net/libnet.o
 .text.NfsHandler
                0x00000000c013c9c4      0x598 net/libnet.o
 .text.ping_start
                0x00000000c013cf5c      0x158 net/libnet.o
                0x00000000c013cf5c                ping_start
 .text.ping_timeout
                0x00000000c013d0b4       0x40 net/libnet.o
 .text.ping_receive
                0x00000000c013d0f4      0x14c net/libnet.o
                0x00000000c013d0f4                ping_receive
 .text.TftpStartServer
                0x00000000c013d240      0x118 net/libnet.o
                0x00000000c013d240                TftpStartServer
 .text.restart  0x00000000c013d358       0x40 net/libnet.o
 .text.icmp_handler
                0x00000000c013d398       0x34 net/libnet.o
 .text.update_block_number
                0x00000000c013d3cc      0x1c8 net/libnet.o
 .text.TftpSend
                0x00000000c013d594      0x2a0 net/libnet.o
 .text.TftpTimeout
                0x00000000c013d834       0xb8 net/libnet.o
 .text.tftp_complete
                0x00000000c013d8ec      0x108 net/libnet.o
 .text.TftpHandler
                0x00000000c013d9f4      0x4d8 net/libnet.o
 .text.TftpStart
                0x00000000c013decc      0x47c net/libnet.o
                0x00000000c013decc                TftpStart
 .text.board_type_2_memory_type
                0x00000000c013e348       0x18 board/juniper/srx_siege/libsrx_siege.o
                0x00000000c013e348                board_type_2_memory_type
 .text.is_valid_board_type
                0x00000000c013e360       0xc4 board/juniper/srx_siege/libsrx_siege.o
                0x00000000c013e360                is_valid_board_type
 .text.board_early_init_f
                0x00000000c013e424        0x8 board/juniper/srx_siege/libsrx_siege.o
                0x00000000c013e424                board_early_init_f
 .text.checkboard
                0x00000000c013e42c        0x8 board/juniper/srx_siege/libsrx_siege.o
                0x00000000c013e42c                checkboard
 .text.__cvmx_helper_board_interface_probe
                0x00000000c013e434       0x74 board/juniper/srx_siege/libsrx_siege.o
                0x00000000c013e434                __cvmx_helper_board_interface_probe
 .text.board_configure_qlms_airbus
                0x00000000c013e4a8      0xad8 board/juniper/srx_siege/libsrx_siege.o
                0x00000000c013e4a8                board_configure_qlms_airbus
 .text.airbus_fixup_xcv
                0x00000000c013ef80       0xf0 board/juniper/srx_siege/libsrx_siege.o
                0x00000000c013ef80                airbus_fixup_xcv
 .text.get_uboot_version
                0x00000000c013f070       0xec board/juniper/srx_siege/libsrx_siege.o
                0x00000000c013f070                get_uboot_version
 .text.early_board_init_r
                0x00000000c013f15c      0x12c board/juniper/srx_siege/libsrx_siege.o
                0x00000000c013f15c                early_board_init_r
 .text.late_ethsetup
                0x00000000c013f288     0x2940 board/juniper/srx_siege/libsrx_siege.o
                0x00000000c013f288                late_ethsetup
 .text.boot_variables_setup
                0x00000000c0141bc8      0x374 board/juniper/srx_siege/libsrx_siege.o
                0x00000000c0141bc8                boot_variables_setup
 .text.board_get_spi_flash
                0x00000000c0141f3c       0x84 board/juniper/srx_siege/libsrx_siege.o
 .text.board_spi_flash_update
                0x00000000c0141fc0       0xbc board/juniper/srx_siege/libsrx_siege.o
                0x00000000c0141fc0                board_spi_flash_update
 .text.board_spi_flash_erase
                0x00000000c014207c       0xac board/juniper/srx_siege/libsrx_siege.o
                0x00000000c014207c                board_spi_flash_erase
 .text.board_spi_flash_write
                0x00000000c0142128       0xbc board/juniper/srx_siege/libsrx_siege.o
                0x00000000c0142128                board_spi_flash_write
 .text.board_spi_flash_read
                0x00000000c01421e4       0xbc board/juniper/srx_siege/libsrx_siege.o
                0x00000000c01421e4                board_spi_flash_read
 .text.recover_primary
                0x00000000c01422a0       0x7c board/juniper/srx_siege/libsrx_siege.o
                0x00000000c01422a0                recover_primary
 .text.late_board_init
                0x00000000c014231c      0x128 board/juniper/srx_siege/libsrx_siege.o
                0x00000000c014231c                late_board_init
 .text.board_net_postinit
                0x00000000c0142444       0x1c board/juniper/srx_siege/libsrx_siege.o
                0x00000000c0142444                board_net_postinit
 .text.early_board_init
                0x00000000c0142460      0x264 board/juniper/srx_siege/libsrx_siege.o
                0x00000000c0142460                early_board_init
 .text.board_configure_qlms
                0x00000000c01426c4      0x1a4 board/juniper/srx_siege/libsrx_siege.o
                0x00000000c01426c4                board_configure_qlms
 .text.board_net_preinit
                0x00000000c0142868       0x18 board/juniper/srx_siege/libsrx_siege.o
                0x00000000c0142868                board_net_preinit
 .text.get_lmac_fdt_node
                0x00000000c0142880      0x184 board/juniper/srx_siege/libsrx_siege.o
 .text.airbus_fixup_fdt
                0x00000000c0142a04      0x29c board/juniper/srx_siege/libsrx_siege.o
                0x00000000c0142a04                airbus_fixup_fdt
 .text.kill_fdt_phy
                0x00000000c0142ca0       0xb8 board/juniper/srx_siege/libsrx_siege.o
 .text.siege_board_fixup_fdt
                0x00000000c0142d58      0x184 board/juniper/srx_siege/libsrx_siege.o
                0x00000000c0142d58                siege_board_fixup_fdt
 .text.board_fixup_fdt
                0x00000000c0142edc      0x458 board/juniper/srx_siege/libsrx_siege.o
                0x00000000c0142edc                board_fixup_fdt
 .text.srx_airbus_boot_bus_init
                0x00000000c0143334      0x1b0 board/juniper/srx_siege/libsrx_siege.o
                0x00000000c0143334                srx_airbus_boot_bus_init
 .text.srx_siege_boot_bus_init
                0x00000000c01434e4       0x48 board/juniper/srx_siege/libsrx_siege.o
                0x00000000c01434e4                srx_siege_boot_bus_init
 .text.cpld_is_boot_from_backup
                0x00000000c014352c       0x18 board/juniper/srx_siege/libsrx_siege.o
                0x00000000c014352c                cpld_is_boot_from_backup
 .text.cpld_read
                0x00000000c0143544       0x18 board/juniper/srx_siege/libsrx_siege.o
                0x00000000c0143544                cpld_read
 .text.cpld_write
                0x00000000c014355c       0x1c board/juniper/srx_siege/libsrx_siege.o
                0x00000000c014355c                cpld_write
 .text.cpld_set_lpc_dout
                0x00000000c0143578       0x18 board/juniper/srx_siege/libsrx_siege.o
                0x00000000c0143578                cpld_set_lpc_dout
 .text.cpld_set_lpc_addr_byte2
                0x00000000c0143590       0x18 board/juniper/srx_siege/libsrx_siege.o
                0x00000000c0143590                cpld_set_lpc_addr_byte2
 .text.cpld_set_lpc_addr_byte1
                0x00000000c01435a8       0x18 board/juniper/srx_siege/libsrx_siege.o
                0x00000000c01435a8                cpld_set_lpc_addr_byte1
 .text.cpld_get_lpc_din
                0x00000000c01435c0       0x14 board/juniper/srx_siege/libsrx_siege.o
                0x00000000c01435c0                cpld_get_lpc_din
 .text.cpld_set_bootfinish
                0x00000000c01435d4       0x20 board/juniper/srx_siege/libsrx_siege.o
                0x00000000c01435d4                cpld_set_bootfinish
 .text.cpld_switch_spi
                0x00000000c01435f4      0x108 board/juniper/srx_siege/libsrx_siege.o
                0x00000000c01435f4                cpld_switch_spi
 .text.cpld_set_led_status_amber
                0x00000000c01436fc       0x20 board/juniper/srx_siege/libsrx_siege.o
                0x00000000c01436fc                cpld_set_led_status_amber
 .text.cpld_usb_enable
                0x00000000c014371c       0x20 board/juniper/srx_siege/libsrx_siege.o
                0x00000000c014371c                cpld_usb_enable
 .text.cpld_board_reset_all
                0x00000000c014373c       0x1c board/juniper/srx_siege/libsrx_siege.o
                0x00000000c014373c                cpld_board_reset_all
 .text.cpld_board_reset
                0x00000000c0143758       0x6c board/juniper/srx_siege/libsrx_siege.o
                0x00000000c0143758                cpld_board_reset
 .text.cpld_get_trans_result
                0x00000000c01437c4       0x18 board/juniper/srx_siege/libsrx_siege.o
                0x00000000c01437c4                cpld_get_trans_result
 .text.cpld_start_lpc_mem_write_trans
                0x00000000c01437dc       0x20 board/juniper/srx_siege/libsrx_siege.o
                0x00000000c01437dc                cpld_start_lpc_mem_write_trans
 .text.cpld_start_lpc_mem_read_trans
                0x00000000c01437fc       0x20 board/juniper/srx_siege/libsrx_siege.o
                0x00000000c01437fc                cpld_start_lpc_mem_read_trans
 .text.cpld_chk_tpm_busy
                0x00000000c014381c       0x14 board/juniper/srx_siege/libsrx_siege.o
                0x00000000c014381c                cpld_chk_tpm_busy
 .text.cpld_set_fan_speed
                0x00000000c0143830       0x6c board/juniper/srx_siege/libsrx_siege.o
                0x00000000c0143830                cpld_set_fan_speed
 .text.disable_srx_siege_watchdog
                0x00000000c014389c       0x1c board/juniper/srx_siege/libsrx_siege.o
                0x00000000c014389c                disable_srx_siege_watchdog
 .text.flush_console_input
                0x00000000c01438b8       0x68 board/juniper/srx_siege/libsrx_siege.o
                0x00000000c01438b8                flush_console_input
 .text.is_valid_image_mem
                0x00000000c0143920      0x114 board/juniper/srx_siege/libsrx_siege.o
                0x00000000c0143920                is_valid_image_mem
 .text.is_valid_loader_image_spi
                0x00000000c0143a34       0xd8 board/juniper/srx_siege/libsrx_siege.o
                0x00000000c0143a34                is_valid_loader_image_spi
 .text.is_valid_uboot_image_spi
                0x00000000c0143b0c       0x7c board/juniper/srx_siege/libsrx_siege.o
                0x00000000c0143b0c                is_valid_uboot_image_spi
 .text.do_bootloader
                0x00000000c0143b88      0x7c4 board/juniper/srx_siege/libsrx_siege.o
                0x00000000c0143b88                do_bootloader
 .text.do_fanspd
                0x00000000c014434c       0xb4 board/juniper/srx_siege/libsrx_siege.o
                0x00000000c014434c                do_fanspd
 .text.do_cpld  0x00000000c0144400      0x14c board/juniper/srx_siege/libsrx_siege.o
                0x00000000c0144400                do_cpld
 .text.do_eeprom_at24c
                0x00000000c014454c      0x2e8 board/juniper/srx_siege/libsrx_siege.o
 .text.do_nextboot
                0x00000000c0144834      0x13c board/juniper/srx_siege/libsrx_siege.o
 .text.run_mdk  0x00000000c0144970       0x50 board/juniper/srx_siege/libsrx_siege.o
 .text.check_ushell_magic_key
                0x00000000c01449c0       0x20 board/juniper/srx_siege/libsrx_siege.o
                0x00000000c01449c0                check_ushell_magic_key
 .text.do_test_mdk_mem
                0x00000000c01449e0      0x1c4 board/juniper/srx_siege/libsrx_siege.o
                0x00000000c01449e0                do_test_mdk_mem
 .text.copy_mdk
                0x00000000c0144ba4      0x134 board/juniper/srx_siege/libsrx_siege.o
                0x00000000c0144ba4                copy_mdk
 .text.do_link_update
                0x00000000c0144cd8      0x130 board/juniper/srx_siege/libsrx_siege.o
                0x00000000c0144cd8                do_link_update
 .text.mdk_init
                0x00000000c0144e08       0xd8 board/juniper/srx_siege/libsrx_siege.o
                0x00000000c0144e08                mdk_init
 .text.do_mdk_init
                0x00000000c0144ee0       0x18 board/juniper/srx_siege/libsrx_siege.o
                0x00000000c0144ee0                do_mdk_init
 .text.do_speed
                0x00000000c0144ef8     0x56e0 board/juniper/srx_siege/libsrx_siege.o
                0x00000000c0144ef8                do_speed
 .text.do_tpm_test
                0x00000000c014a5d8      0x5bc board/juniper/srx_siege/libsrx_siege.o
                0x00000000c014a5d8                do_tpm_test
 .text.srx_siege_is_device_enabled
                0x00000000c014ab94       0x4c board/juniper/srx_siege/libsrx_siege.o
                0x00000000c014ab94                srx_siege_is_device_enabled
 .text.read_device_mbr
                0x00000000c014abe0       0xbc board/juniper/srx_siege/libsrx_siege.o
 .text.get_active_slice
                0x00000000c014ac9c       0x80 board/juniper/srx_siege/libsrx_siege.o
                0x00000000c014ac9c                get_active_slice
 .text.get_num_bsd_slices
                0x00000000c014ad1c       0x68 board/juniper/srx_siege/libsrx_siege.o
                0x00000000c014ad1c                get_num_bsd_slices
 .text.get_devname_by_disk_id
                0x00000000c014ad84       0x44 board/juniper/srx_siege/libsrx_siege.o
                0x00000000c014ad84                get_devname_by_disk_id
 .text.srx_siege_support_boot_sata
                0x00000000c014adc8       0x14 board/juniper/srx_siege/libsrx_siege.o
                0x00000000c014adc8                srx_siege_support_boot_sata
 .text.show_bootdev_list
                0x00000000c014addc       0xbc board/juniper/srx_siege/libsrx_siege.o
                0x00000000c014addc                show_bootdev_list
 .text.is_bsd_slice
                0x00000000c014ae98       0x80 board/juniper/srx_siege/libsrx_siege.o
                0x00000000c014ae98                is_bsd_slice
 .text.read_last_booseq_record
                0x00000000c014af18      0x168 board/juniper/srx_siege/libsrx_siege.o
 .text.save_booseq_record
                0x00000000c014b080      0x168 board/juniper/srx_siege/libsrx_siege.o
 .text.set_last_booseq_record_finish
                0x00000000c014b1e8       0x9c board/juniper/srx_siege/libsrx_siege.o
                0x00000000c014b1e8                set_last_booseq_record_finish
 .text.get_next_slice_for_device
                0x00000000c014b284      0x150 board/juniper/srx_siege/libsrx_siege.o
                0x00000000c014b284                get_next_slice_for_device
 .text.reload_watchdog
                0x00000000c014b3d4       0xe4 board/juniper/srx_siege/libsrx_siege.o
                0x00000000c014b3d4                reload_watchdog
 .text.board_disk_write
                0x00000000c014b4b8       0x88 board/juniper/srx_siege/libsrx_siege.o
                0x00000000c014b4b8                board_disk_write
 .text.board_disk_read
                0x00000000c014b540       0x88 board/juniper/srx_siege/libsrx_siege.o
                0x00000000c014b540                board_disk_read
 .text.disk_scan
                0x00000000c014b5c8       0x94 board/juniper/srx_siege/libsrx_siege.o
                0x00000000c014b5c8                disk_scan
 .text.set_next_bootdev
                0x00000000c014b65c      0x1b4 board/juniper/srx_siege/libsrx_siege.o
                0x00000000c014b65c                set_next_bootdev
 .text.srx_siege_is_valid_devname
                0x00000000c014b810       0xac board/juniper/srx_siege/libsrx_siege.o
                0x00000000c014b810                srx_siege_is_valid_devname
 .text.get_default_dev
                0x00000000c014b8bc      0x120 board/juniper/srx_siege/libsrx_siege.o
 .text.srx_siege_reset_bootseq
                0x00000000c014b9dc       0x90 board/juniper/srx_siege/libsrx_siege.o
                0x00000000c014b9dc                srx_siege_reset_bootseq
 .text.get_devid_from_device
                0x00000000c014ba6c       0x78 board/juniper/srx_siege/libsrx_siege.o
                0x00000000c014ba6c                get_devid_from_device
 .text.get_next_bootdev
                0x00000000c014bae4      0xa8c board/juniper/srx_siege/libsrx_siege.o
                0x00000000c014bae4                get_next_bootdev
 .text.update_loaderdev
                0x00000000c014c570       0x60 board/juniper/srx_siege/libsrx_siege.o
                0x00000000c014c570                update_loaderdev
 .text.get_next_bootdev_jt
                0x00000000c014c5d0       0x18 board/juniper/srx_siege/libsrx_siege.o
                0x00000000c014c5d0                get_next_bootdev_jt
 .text.srx_siege_bootseq_init
                0x00000000c014c5e8      0x348 board/juniper/srx_siege/libsrx_siege.o
                0x00000000c014c5e8                srx_siege_bootseq_init
 .text.siege_tpm_chk_deactivated
                0x00000000c014c930       0xe4 board/juniper/srx_siege/libsrx_siege.o
                0x00000000c014c930                siege_tpm_chk_deactivated
 .text.siege_tpm_init
                0x00000000c014ca14       0xc0 board/juniper/srx_siege/libsrx_siege.o
                0x00000000c014ca14                siege_tpm_init
 .text.cpld_tpm_chk_ready
                0x00000000c014cad4       0x9c board/juniper/srx_siege/libsrx_siege.o
 .text.tpm_write_byte
                0x00000000c014cb70       0x9c board/juniper/srx_siege/libsrx_siege.o
                0x00000000c014cb70                tpm_write_byte
 .text.tpm_write_word
                0x00000000c014cc0c       0x78 board/juniper/srx_siege/libsrx_siege.o
                0x00000000c014cc0c                tpm_write_word
 .text.tpm_read_byte
                0x00000000c014cc84       0xb4 board/juniper/srx_siege/libsrx_siege.o
                0x00000000c014cc84                tpm_read_byte
 .text.tpm_read_word
                0x00000000c014cd38       0x9c board/juniper/srx_siege/libsrx_siege.o
                0x00000000c014cd38                tpm_read_word
 *(.data_in_text.*)
                0x00000000c0000000                uboot_start = _start
                0x00000000c014cde0                _gp = ALIGN (0x10)
                0x00000000c014cde0                . = ALIGN (0x10)
                0x00000000c014cde0                __got_start = .

.got            0x00000000c014cde0     0x26f4
 *(.got)
 .got           0x00000000c014cde0     0x26f4 arch/mips/cpu/octeon/start.o
                0x00000000c014cde0                _GLOBAL_OFFSET_TABLE_
                0x00000000c014f4d4                __got_end = .
                0x00000000c014f4d8                . = ALIGN (0x8)

.rodata         0x00000000c014f4e0    0x33d38
 *(.rodata)
 .rodata        0x00000000c014f4e0       0x80 arch/mips/cpu/octeon/cvmx/libcvmx.o
 .rodata        0x00000000c014f560      0x110 common/libcommon.o
 .rodata        0x00000000c014f670       0x40 drivers/usb/host/libusb_host.o
 .rodata        0x00000000c014f6b0       0x20 net/libnet.o
 .rodata        0x00000000c014f6d0     0x2d58 board/juniper/srx_siege/libsrx_siege.o
                0x00000000c0152424                __dtb_end
                0x00000000c014f6d0                __dtb_begin
 *fill*         0x00000000c0152428        0x8 00
 .rodata        0x00000000c0152430      0x100 /homes/markli/u-boot-siege-git/u-boot/gcc_depends/n32/libgcc.a(_clz.o)
                0x00000000c0152430                __clz_tab
 *(.rodata.str*)
 .rodata.str1.8
                0x00000000c0152530       0xea api/libapi.o
                                        0x100 (size before relaxing)
 *fill*         0x00000000c015261a        0x6 00
 .rodata.str1.8
                0x00000000c0152620     0xa49b arch/mips/cpu/octeon/cvmx/libcvmx.o
                                       0xac50 (size before relaxing)
 *fill*         0x00000000c015cabb        0x5 00
 .rodata.str1.8
                0x00000000c015cac0     0xd1d5 arch/mips/cpu/octeon/libocteon.o
                                       0xe4e0 (size before relaxing)
 *fill*         0x00000000c0169c95        0x3 00
 .rodata.str1.8
                0x00000000c0169c98      0x9a7 arch/mips/lib/libmips.o
                                       0x1a40 (size before relaxing)
 *fill*         0x00000000c016a63f        0x1 00
 .rodata.str1.8
                0x00000000c016a640      0xdcb board/octeon/common/libocteon.o
                                       0x1df8 (size before relaxing)
 *fill*         0x00000000c016b40b        0x5 00
 .rodata.str1.8
                0x00000000c016b410     0x93e1 common/libcommon.o
                                       0x9fa8 (size before relaxing)
 *fill*         0x00000000c01747f1        0x7 00
 .rodata.str1.8
                0x00000000c01747f8      0x8b8 disk/libdisk.o
                                        0x938 (size before relaxing)
 .rodata.str1.8
                0x00000000c01750b0     0x1c03 drivers/block/libblock.o
                                       0x1cc8 (size before relaxing)
 *fill*         0x00000000c0176cb3        0x5 00
 .rodata.str1.8
                0x00000000c0176cb8      0x244 drivers/gpio/libgpio.o
                                        0x2b8 (size before relaxing)
 *fill*         0x00000000c0176efc        0x4 00
 .rodata.str1.8
                0x00000000c0176f00      0x16d drivers/i2c/libi2c.o
                                        0x248 (size before relaxing)
 *fill*         0x00000000c017706d        0x3 00
 .rodata.str1.8
                0x00000000c0177070      0x4ba drivers/mtd/spi/libspi_flash.o
                                        0x4d8 (size before relaxing)
 *fill*         0x00000000c017752a        0x6 00
 .rodata.str1.8
                0x00000000c0177530      0xb6d drivers/net/libnet.o
                                        0xf68 (size before relaxing)
 *fill*         0x00000000c017809d        0x3 00
 .rodata.str1.8
                0x00000000c01780a0      0x1eb drivers/net/phy/libphy.o
                                        0x200 (size before relaxing)
 *fill*         0x00000000c017828b        0x5 00
 .rodata.str1.8
                0x00000000c0178290      0x200 drivers/pci/libpci.o
                                        0x238 (size before relaxing)
 .rodata.str1.8
                0x00000000c0178490       0x60 drivers/serial/libserial.o
                                         0xb8 (size before relaxing)
 .rodata.str1.8
                0x00000000c01784f0       0x5c drivers/spi/libspi.o
                                         0x60 (size before relaxing)
 *fill*         0x00000000c017854c        0x4 00
 .rodata.str1.8
                0x00000000c0178550      0x275 drivers/tpm/libtpm.o
                                        0x290 (size before relaxing)
 *fill*         0x00000000c01787c5        0x3 00
 .rodata.str1.8
                0x00000000c01787c8      0xe10 drivers/usb/host/libusb_host.o
                                        0xf40 (size before relaxing)
 .rodata.str1.8
                0x00000000c01795d8      0x358 fs/fat/libfat.o
                                        0x3b8 (size before relaxing)
 .rodata.str1.8
                0x00000000c0179930       0xf8 fs/libfs.o
                                        0x170 (size before relaxing)
 .rodata.str1.8
                0x00000000c0179a28      0x122 lib/libfdt/libfdt.o
                                        0x168 (size before relaxing)
 *fill*         0x00000000c0179b4a        0x6 00
 .rodata.str1.8
                0x00000000c0179b50      0x666 lib/libgeneric.o
                                        0x720 (size before relaxing)
 *fill*         0x00000000c017a1b6        0x2 00
 .rodata.str1.8
                0x00000000c017a1b8      0xb23 net/libnet.o
                                        0xd58 (size before relaxing)
 *fill*         0x00000000c017acdb        0x5 00
 .rodata.str1.8
                0x00000000c017ace0     0x2058 board/juniper/srx_siege/libsrx_siege.o
                                       0x2348 (size before relaxing)
 *(.rodata.*)
 .rodata.__func__.7437
                0x00000000c017cd38       0x10 api/libapi.o
 .rodata.__func__.7353
                0x00000000c017cd48       0x10 api/libapi.o
 .rodata.__func__.139249
                0x00000000c017cd58       0x20 arch/mips/cpu/octeon/cvmx/libcvmx.o
 .rodata.__func__.138873
                0x00000000c017cd78       0x18 arch/mips/cpu/octeon/cvmx/libcvmx.o
 .rodata._cvmx_bootvector_data
                0x00000000c017cd90       0x80 arch/mips/cpu/octeon/cvmx/libcvmx.o
 .rodata.emsg.138982
                0x00000000c017ce10       0x30 arch/mips/cpu/octeon/cvmx/libcvmx.o
 .rodata.__func__.138980
                0x00000000c017ce40       0x20 arch/mips/cpu/octeon/cvmx/libcvmx.o
 .rodata.__func__.137624
                0x00000000c017ce60       0xa8 arch/mips/cpu/octeon/cvmx/libcvmx.o
 .rodata.__func__.138950
                0x00000000c017cf08       0x20 arch/mips/cpu/octeon/cvmx/libcvmx.o
 .rodata.__func__.138701
                0x00000000c017cf28       0x18 arch/mips/cpu/octeon/cvmx/libcvmx.o
 .rodata.__func__.141987
                0x00000000c017cf40       0x18 arch/mips/cpu/octeon/cvmx/libcvmx.o
 .rodata.__func__.141974
                0x00000000c017cf58       0x28 arch/mips/cpu/octeon/cvmx/libcvmx.o
 .rodata.__func__.141893
                0x00000000c017cf80       0x18 arch/mips/cpu/octeon/cvmx/libcvmx.o
 .rodata.__func__.141348
                0x00000000c017cf98       0x18 arch/mips/cpu/octeon/cvmx/libcvmx.o
 .rodata.__func__.141616
                0x00000000c017cfb0       0x18 arch/mips/cpu/octeon/cvmx/libcvmx.o
 .rodata.__func__.141853
                0x00000000c017cfc8       0x18 arch/mips/cpu/octeon/cvmx/libcvmx.o
 .rodata.__func__.141837
                0x00000000c017cfe0       0x18 arch/mips/cpu/octeon/cvmx/libcvmx.o
 .rodata.__func__.141819
                0x00000000c017cff8       0x18 arch/mips/cpu/octeon/cvmx/libcvmx.o
 .rodata.__func__.141570
                0x00000000c017d010       0x18 arch/mips/cpu/octeon/cvmx/libcvmx.o
 .rodata.__func__.141783
                0x00000000c017d028       0x20 arch/mips/cpu/octeon/cvmx/libcvmx.o
 .rodata.__func__.141653
                0x00000000c017d048       0x20 arch/mips/cpu/octeon/cvmx/libcvmx.o
 .rodata.__func__.141434
                0x00000000c017d068       0x18 arch/mips/cpu/octeon/cvmx/libcvmx.o
 .rodata.__func__.141737
                0x00000000c017d080       0x20 arch/mips/cpu/octeon/cvmx/libcvmx.o
 .rodata.__func__.141704
                0x00000000c017d0a0       0x20 arch/mips/cpu/octeon/cvmx/libcvmx.o
 .rodata.__func__.137616
                0x00000000c017d0c0       0x48 arch/mips/cpu/octeon/cvmx/libcvmx.o
 .rodata.__func__.138691
                0x00000000c017d108       0x18 arch/mips/cpu/octeon/cvmx/libcvmx.o
 .rodata.__func__.138674
                0x00000000c017d120       0x18 arch/mips/cpu/octeon/cvmx/libcvmx.o
 .rodata.__func__.138658
                0x00000000c017d138       0x18 arch/mips/cpu/octeon/cvmx/libcvmx.o
 .rodata.__func__.138627
                0x00000000c017d150       0x18 arch/mips/cpu/octeon/cvmx/libcvmx.o
 .rodata.__func__.140689
                0x00000000c017d168       0x20 arch/mips/cpu/octeon/cvmx/libcvmx.o
 .rodata.__func__.140860
                0x00000000c017d188       0x18 arch/mips/cpu/octeon/cvmx/libcvmx.o
 .rodata.__func__.140775
                0x00000000c017d1a0       0x28 arch/mips/cpu/octeon/cvmx/libcvmx.o
 .rodata.__func__.140739
                0x00000000c017d1c8       0x20 arch/mips/cpu/octeon/cvmx/libcvmx.o
 .rodata.cvmx_helper_interface_get_mode
                0x00000000c017d1e8       0xc0 arch/mips/cpu/octeon/cvmx/libcvmx.o
 .rodata.cvmx_helper_interface_probe
                0x00000000c017d2a8       0x50 arch/mips/cpu/octeon/cvmx/libcvmx.o
 .rodata.__func__.148391
                0x00000000c017d2f8       0x18 arch/mips/cpu/octeon/cvmx/libcvmx.o
 .rodata.__func__.147973
                0x00000000c017d310       0x28 arch/mips/cpu/octeon/cvmx/libcvmx.o
 .rodata.__func__.143160
                0x00000000c017d338       0x18 arch/mips/cpu/octeon/cvmx/libcvmx.o
 .rodata.__func__.143174
                0x00000000c017d350       0x28 arch/mips/cpu/octeon/cvmx/libcvmx.o
 .rodata.__func__.147899
                0x00000000c017d378       0x30 arch/mips/cpu/octeon/cvmx/libcvmx.o
 .rodata.iface_ops_dis
                0x00000000c017d3a8       0x20 arch/mips/cpu/octeon/cvmx/libcvmx.o
 .rodata.__func__.142419
                0x00000000c017d3c8       0x18 arch/mips/cpu/octeon/cvmx/libcvmx.o
 .rodata.__func__.142359
                0x00000000c017d3e0       0x20 arch/mips/cpu/octeon/cvmx/libcvmx.o
 .rodata.__func__.142334
                0x00000000c017d400       0x20 arch/mips/cpu/octeon/cvmx/libcvmx.o
 .rodata.__func__.142313
                0x00000000c017d420       0x18 arch/mips/cpu/octeon/cvmx/libcvmx.o
 .rodata.__func__.142259
                0x00000000c017d438       0x20 arch/mips/cpu/octeon/cvmx/libcvmx.o
 .rodata.__func__.142224
                0x00000000c017d458       0x20 arch/mips/cpu/octeon/cvmx/libcvmx.o
 .rodata.__func__.142148
                0x00000000c017d478       0x20 arch/mips/cpu/octeon/cvmx/libcvmx.o
 .rodata.__func__.142008
                0x00000000c017d498       0x18 arch/mips/cpu/octeon/cvmx/libcvmx.o
 .rodata.__func__.140982
                0x00000000c017d4b0       0x10 arch/mips/cpu/octeon/cvmx/libcvmx.o
 .rodata.__func__.141908
                0x00000000c017d4c0       0x18 arch/mips/cpu/octeon/cvmx/libcvmx.o
 .rodata.__func__.141866
                0x00000000c017d4d8       0x20 arch/mips/cpu/octeon/cvmx/libcvmx.o
 .rodata.__func__.141605
                0x00000000c017d4f8       0x18 arch/mips/cpu/octeon/cvmx/libcvmx.o
 .rodata.__func__.141576
                0x00000000c017d510       0x20 arch/mips/cpu/octeon/cvmx/libcvmx.o
 .rodata.__func__.140102
                0x00000000c017d530       0x18 arch/mips/cpu/octeon/cvmx/libcvmx.o
 .rodata.__func__.140060
                0x00000000c017d548       0x18 arch/mips/cpu/octeon/cvmx/libcvmx.o
 .rodata.__func__.139611
                0x00000000c017d560       0x18 arch/mips/cpu/octeon/cvmx/libcvmx.o
 .rodata.__cvmx_pcie_rc_initialize_gen2_v3
                0x00000000c017d578       0x90 arch/mips/cpu/octeon/cvmx/libcvmx.o
 .rodata.__func__.138740
                0x00000000c017d608       0x20 arch/mips/cpu/octeon/cvmx/libcvmx.o
 .rodata.__func__.138690
                0x00000000c017d628       0x20 arch/mips/cpu/octeon/cvmx/libcvmx.o
 .rodata.__func__.138643
                0x00000000c017d648       0x18 arch/mips/cpu/octeon/cvmx/libcvmx.o
 .rodata.octeon_model_get_string_buffer
                0x00000000c017d660       0xc0 arch/mips/cpu/octeon/cvmx/libcvmx.o
 .rodata.cvmx_qlm_get_mode_cn78xx
                0x00000000c017d720       0x28 arch/mips/cpu/octeon/cvmx/libcvmx.o
 .rodata.cvmx_qlm_get_gbaud_mhz_node
                0x00000000c017d748       0x44 arch/mips/cpu/octeon/cvmx/libcvmx.o
 .rodata.__cvmx_qlm_get_mode_cn73xx
                0x00000000c017d78c       0x1c arch/mips/cpu/octeon/cvmx/libcvmx.o
 .rodata.cvmx_qlm_get_gbaud_mhz
                0x00000000c017d7a8       0x80 arch/mips/cpu/octeon/cvmx/libcvmx.o
 .rodata.cvmx_qlm_get_mode
                0x00000000c017d828       0x50 arch/mips/cpu/octeon/cvmx/libcvmx.o
 .rodata.__func__.141199
                0x00000000c017d878       0x20 arch/mips/cpu/octeon/cvmx/libcvmx.o
 .rodata.C.157.141052
                0x00000000c017d898       0x20 arch/mips/cpu/octeon/cvmx/libcvmx.o
 .rodata.__cvmx_helper_bgx_interface_enable_delay
                0x00000000c017d8b8       0x38 arch/mips/cpu/octeon/cvmx/libcvmx.o
 .rodata.cvmx_helper_bgx_get_mode
                0x00000000c017d8f0       0x18 arch/mips/cpu/octeon/cvmx/libcvmx.o
 .rodata.__func__.142388
                0x00000000c017d908       0x20 arch/mips/cpu/octeon/cvmx/libcvmx.o
 .rodata.__get_broadcom_phy_link_state
                0x00000000c017d928       0x20 arch/mips/cpu/octeon/cvmx/libcvmx.o
 .rodata.cs4343_off.143348
                0x00000000c017d948       0x10 arch/mips/cpu/octeon/cvmx/libcvmx.o
 .rodata.__func__.143806
                0x00000000c017d958       0x28 arch/mips/cpu/octeon/cvmx/libcvmx.o
 .rodata.__func__.143663
                0x00000000c017d980       0x10 arch/mips/cpu/octeon/cvmx/libcvmx.o
 .rodata.__func__.141588
                0x00000000c017d990       0x10 arch/mips/cpu/octeon/cvmx/libcvmx.o
 .rodata.__func__.141625
                0x00000000c017d9a0       0x18 arch/mips/cpu/octeon/cvmx/libcvmx.o
 .rodata.__func__.143269
                0x00000000c017d9b8       0x28 arch/mips/cpu/octeon/cvmx/libcvmx.o
 .rodata.speeds.143449
                0x00000000c017d9e0       0x10 arch/mips/cpu/octeon/cvmx/libcvmx.o
 .rodata.__func__.143100
                0x00000000c017d9f0       0x28 arch/mips/cpu/octeon/cvmx/libcvmx.o
 .rodata.__func__.143060
                0x00000000c017da18       0x28 arch/mips/cpu/octeon/cvmx/libcvmx.o
 .rodata.__func__.142394
                0x00000000c017da40       0x20 arch/mips/cpu/octeon/cvmx/libcvmx.o
 .rodata.__func__.142997
                0x00000000c017da60       0x20 arch/mips/cpu/octeon/cvmx/libcvmx.o
 .rodata.__func__.142922
                0x00000000c017da80       0x20 arch/mips/cpu/octeon/cvmx/libcvmx.o
 .rodata.__func__.142872
                0x00000000c017daa0       0x10 arch/mips/cpu/octeon/cvmx/libcvmx.o
 .rodata.__func__.142889
                0x00000000c017dab0       0x10 arch/mips/cpu/octeon/cvmx/libcvmx.o
 .rodata.__func__.141758
                0x00000000c017dac0       0x18 arch/mips/cpu/octeon/cvmx/libcvmx.o
 .rodata.__func__.142811
                0x00000000c017dad8       0x20 arch/mips/cpu/octeon/cvmx/libcvmx.o
 .rodata.__func__.142415
                0x00000000c017daf8       0x20 arch/mips/cpu/octeon/cvmx/libcvmx.o
 .rodata.__func__.142784
                0x00000000c017db18       0x30 arch/mips/cpu/octeon/cvmx/libcvmx.o
 .rodata.__func__.142737
                0x00000000c017db48       0x20 arch/mips/cpu/octeon/cvmx/libcvmx.o
 .rodata.__func__.142589
                0x00000000c017db68       0x28 arch/mips/cpu/octeon/cvmx/libcvmx.o
 .rodata.__func__.142528
                0x00000000c017db90       0x28 arch/mips/cpu/octeon/cvmx/libcvmx.o
 .rodata.__func__.143864
                0x00000000c017dbb8       0x40 arch/mips/cpu/octeon/cvmx/libcvmx.o
 .rodata.__func__.143529
                0x00000000c017dbf8       0x18 arch/mips/cpu/octeon/cvmx/libcvmx.o
 .rodata.__func__.144174
                0x00000000c017dc10       0x20 arch/mips/cpu/octeon/cvmx/libcvmx.o
 .rodata.__FUNCTION__.143546
                0x00000000c017dc30       0x18 arch/mips/cpu/octeon/cvmx/libcvmx.o
 .rodata.__func__.143517
                0x00000000c017dc48       0x18 arch/mips/cpu/octeon/cvmx/libcvmx.o
 .rodata.__func__.143481
                0x00000000c017dc60       0x20 arch/mips/cpu/octeon/cvmx/libcvmx.o
 .rodata.__func__.143013
                0x00000000c017dc80       0x18 arch/mips/cpu/octeon/cvmx/libcvmx.o
 .rodata.__func__.143027
                0x00000000c017dc98       0x28 arch/mips/cpu/octeon/cvmx/libcvmx.o
 .rodata.__cvmx_helper_loop_enable
                0x00000000c017dcc0       0x20 arch/mips/cpu/octeon/cvmx/libcvmx.o
 .rodata.__func__.143081
                0x00000000c017dce0       0x28 arch/mips/cpu/octeon/cvmx/libcvmx.o
 .rodata.pki_dflt_clgrp
                0x00000000c017dd08       0x40 arch/mips/cpu/octeon/cvmx/libcvmx.o
 .rodata.C.185.144848
                0x00000000c017dd48       0x10 arch/mips/cpu/octeon/cvmx/libcvmx.o
 .rodata.__func__.144800
                0x00000000c017dd58       0x20 arch/mips/cpu/octeon/cvmx/libcvmx.o
 .rodata.__FUNCTION__.143586
                0x00000000c017dd78       0x20 arch/mips/cpu/octeon/cvmx/libcvmx.o
 .rodata.__func__.143556
                0x00000000c017dd98       0x20 arch/mips/cpu/octeon/cvmx/libcvmx.o
 .rodata.__FUNCTION__.143555
                0x00000000c017ddb8       0x20 arch/mips/cpu/octeon/cvmx/libcvmx.o
 .rodata.__func__.143132
                0x00000000c017ddd8       0x20 arch/mips/cpu/octeon/cvmx/libcvmx.o
 .rodata.__FUNCTION__.143542
                0x00000000c017ddf8       0x20 arch/mips/cpu/octeon/cvmx/libcvmx.o
 .rodata.__func__.143385
                0x00000000c017de18       0x28 arch/mips/cpu/octeon/cvmx/libcvmx.o
 .rodata.__FUNCTION__.143384
                0x00000000c017de40       0x28 arch/mips/cpu/octeon/cvmx/libcvmx.o
 .rodata.__FUNCTION__.143470
                0x00000000c017de68       0x20 arch/mips/cpu/octeon/cvmx/libcvmx.o
 .rodata.__func__.143176
                0x00000000c017de88       0x28 arch/mips/cpu/octeon/cvmx/libcvmx.o
 .rodata.__FUNCTION__.143175
                0x00000000c017deb0       0x28 arch/mips/cpu/octeon/cvmx/libcvmx.o
 .rodata.__func__.143253
                0x00000000c017ded8       0x28 arch/mips/cpu/octeon/cvmx/libcvmx.o
 .rodata.__func__.143432
                0x00000000c017df00       0x20 arch/mips/cpu/octeon/cvmx/libcvmx.o
 .rodata.__FUNCTION__.143431
                0x00000000c017df20       0x20 arch/mips/cpu/octeon/cvmx/libcvmx.o
 .rodata.__func__.143331
                0x00000000c017df40       0x28 arch/mips/cpu/octeon/cvmx/libcvmx.o
 .rodata.__func__.144264
                0x00000000c017df68       0x20 arch/mips/cpu/octeon/cvmx/libcvmx.o
 .rodata.cvmx_sfp_read_i2c_eeprom
                0x00000000c017df88       0xd0 arch/mips/cpu/octeon/cvmx/libcvmx.o
 .rodata.__func__.141374
                0x00000000c017e058       0x18 arch/mips/cpu/octeon/cvmx/libcvmx.o
 .rodata.__func__.141330
                0x00000000c017e070       0x20 arch/mips/cpu/octeon/cvmx/libcvmx.o
 .rodata.__cvmx_helper_srio_link_get
                0x00000000c017e090       0x14 arch/mips/cpu/octeon/cvmx/libcvmx.o
 *fill*         0x00000000c017e0a4        0x4 00
 .rodata.__func__.141141
                0x00000000c017e0a8       0x20 arch/mips/cpu/octeon/cvmx/libcvmx.o
 .rodata.cvmx_helper_interface_mode_to_string
                0x00000000c017e0c8       0x50 arch/mips/cpu/octeon/cvmx/libcvmx.o
 .rodata.cvmx_helper_get_ipd_port
                0x00000000c017e118       0x20 arch/mips/cpu/octeon/cvmx/libcvmx.o
 .rodata.ipd_port_map_68xx
                0x00000000c017e138       0xb0 arch/mips/cpu/octeon/cvmx/libcvmx.o
 .rodata.ipd_port_map_78xx
                0x00000000c017e1e8       0xb0 arch/mips/cpu/octeon/cvmx/libcvmx.o
 .rodata.ipd_port_map_73xx
                0x00000000c017e298       0xb0 arch/mips/cpu/octeon/cvmx/libcvmx.o
 .rodata.ipd_port_map_75xx
                0x00000000c017e348       0xb0 arch/mips/cpu/octeon/cvmx/libcvmx.o
 .rodata.__func__.146573
                0x00000000c017e3f8       0x28 arch/mips/cpu/octeon/cvmx/libcvmx.o
 .rodata.__func__.146432
                0x00000000c017e420       0x20 arch/mips/cpu/octeon/cvmx/libcvmx.o
 .rodata.__func__.143845
                0x00000000c017e440       0x20 arch/mips/cpu/octeon/cvmx/libcvmx.o
 .rodata.cvmx_pki_cluster_code_default
                0x00000000c017e460     0x1f48 arch/mips/cpu/octeon/cvmx/libcvmx.o
                0x00000000c017e460                cvmx_pki_cluster_code_default
 .rodata.cvmx_pko_hw_init
                0x00000000c01803a8       0x24 arch/mips/cpu/octeon/cvmx/libcvmx.o
 .rodata.cvmx_pko_config_port
                0x00000000c01803cc       0x50 arch/mips/cpu/octeon/cvmx/libcvmx.o
 *fill*         0x00000000c018041c        0x4 00
 .rodata.__func__.144171
                0x00000000c0180420       0x18 arch/mips/cpu/octeon/cvmx/libcvmx.o
 .rodata.__func__.144298
                0x00000000c0180438       0x18 arch/mips/cpu/octeon/cvmx/libcvmx.o
 .rodata.cvmx_pko_dq_open
                0x00000000c0180450       0x40 arch/mips/cpu/octeon/cvmx/libcvmx.o
 .rodata.cvmx_pko3_dq_query
                0x00000000c0180490       0x40 arch/mips/cpu/octeon/cvmx/libcvmx.o
 .rodata.cvmx_pko3_dq_close
                0x00000000c01804d0       0x40 arch/mips/cpu/octeon/cvmx/libcvmx.o
 .rodata.__func__.140381
                0x00000000c0180510       0x18 arch/mips/cpu/octeon/cvmx/libcvmx.o
 .rodata.__func__.144358
                0x00000000c0180528       0x20 arch/mips/cpu/octeon/cvmx/libcvmx.o
 .rodata.__FUNCTION__.144066
                0x00000000c0180548       0x18 arch/mips/cpu/octeon/cvmx/libcvmx.o
 .rodata.__FUNCTION__.144038
                0x00000000c0180560       0x18 arch/mips/cpu/octeon/cvmx/libcvmx.o
 .rodata.__FUNCTION__.144017
                0x00000000c0180578       0x18 arch/mips/cpu/octeon/cvmx/libcvmx.o
 .rodata.__FUNCTION__.143943
                0x00000000c0180590       0x18 arch/mips/cpu/octeon/cvmx/libcvmx.o
 .rodata.__func__.143921
                0x00000000c01805a8       0x18 arch/mips/cpu/octeon/cvmx/libcvmx.o
 .rodata.__func__.143866
                0x00000000c01805c0       0x20 arch/mips/cpu/octeon/cvmx/libcvmx.o
 .rodata.__func__.144109
                0x00000000c01805e0       0x18 arch/mips/cpu/octeon/cvmx/libcvmx.o
 .rodata.__func__.144202
                0x00000000c01805f8       0x18 arch/mips/cpu/octeon/cvmx/libcvmx.o
 .rodata.__func__.144088
                0x00000000c0180610       0x20 arch/mips/cpu/octeon/cvmx/libcvmx.o
 .rodata.__func__.144116
                0x00000000c0180630       0x18 arch/mips/cpu/octeon/cvmx/libcvmx.o
 .rodata.__FUNCTION__.142678
                0x00000000c0180648       0x18 arch/mips/cpu/octeon/cvmx/libcvmx.o
 .rodata.__func__.140382
                0x00000000c0180660       0x18 arch/mips/cpu/octeon/cvmx/libcvmx.o
 .rodata.__func__.143339
                0x00000000c0180678       0x20 arch/mips/cpu/octeon/cvmx/libcvmx.o
 .rodata.__func__.143029
                0x00000000c0180698       0x18 arch/mips/cpu/octeon/cvmx/libcvmx.o
 .rodata.xchan_base_cn75xx.143001
                0x00000000c01806b0       0x10 arch/mips/cpu/octeon/cvmx/libcvmx.o
 .rodata.xchan_base_cn73xx.143000
                0x00000000c01806c0       0x10 arch/mips/cpu/octeon/cvmx/libcvmx.o
 .rodata.xchan_base_cn78xx.142999
                0x00000000c01806d0       0x10 arch/mips/cpu/octeon/cvmx/libcvmx.o
 .rodata.__func__.142972
                0x00000000c01806e0       0x20 arch/mips/cpu/octeon/cvmx/libcvmx.o
 .rodata.__func__.142941
                0x00000000c0180700       0x20 arch/mips/cpu/octeon/cvmx/libcvmx.o
 .rodata.__func__.143017
                0x00000000c0180720       0x28 arch/mips/cpu/octeon/cvmx/libcvmx.o
 .rodata.cvmx_pko_num_queues_78XX
                0x00000000c0180748      0x200 arch/mips/cpu/octeon/cvmx/libcvmx.o
 .rodata.cvmx_pko_num_queues_73XX
                0x00000000c0180948      0x200 arch/mips/cpu/octeon/cvmx/libcvmx.o
 .rodata.__func__.143001
                0x00000000c0180b48       0x20 arch/mips/cpu/octeon/cvmx/libcvmx.o
 .rodata.__func__.140567
                0x00000000c0180b68       0x18 arch/mips/cpu/octeon/cvmx/libcvmx.o
 .rodata.octeon_ddr_initialize
                0x00000000c0180b80       0x24 arch/mips/cpu/octeon/libocteon.o
 *fill*         0x00000000c0180ba4        0x4 00
 .rodata.disable_odt_config
                0x00000000c0180ba8       0xe0 arch/mips/cpu/octeon/libocteon.o
                0x00000000c0180ba8                disable_odt_config
 .rodata.__func__.140741
                0x00000000c0180c88       0x20 arch/mips/cpu/octeon/libocteon.o
 .rodata.ddr_speed_filter
                0x00000000c0180ca8       0x20 arch/mips/cpu/octeon/libocteon.o
 .rodata.lfsr_patterns
                0x00000000c0180cc8       0x10 arch/mips/cpu/octeon/libocteon.o
 .rodata._en.151612
                0x00000000c0180cd8       0x28 arch/mips/cpu/octeon/libocteon.o
 .rodata._en.151562
                0x00000000c0180d00       0x28 arch/mips/cpu/octeon/libocteon.o
 .rodata._en.151523
                0x00000000c0180d28       0x20 arch/mips/cpu/octeon/libocteon.o
 .rodata._en.151488
                0x00000000c0180d48       0x20 arch/mips/cpu/octeon/libocteon.o
 .rodata.dic_ohms.149943
                0x00000000c0180d68        0x8 arch/mips/cpu/octeon/libocteon.o
 .rodata.rtt_wr_ohms.149942
                0x00000000c0180d70        0x8 arch/mips/cpu/octeon/libocteon.o
 .rodata.rtt_nom_table.149941
                0x00000000c0180d78        0x8 arch/mips/cpu/octeon/libocteon.o
 .rodata.rtt_nom_ohms.149940
                0x00000000c0180d80        0x8 arch/mips/cpu/octeon/libocteon.o
 .rodata.rodt_ohms.149939
                0x00000000c0180d88        0x8 arch/mips/cpu/octeon/libocteon.o
 .rodata.dic_ohms.149854
                0x00000000c0180d90        0x8 arch/mips/cpu/octeon/libocteon.o
 .rodata.rtt_wr_ohms.149853
                0x00000000c0180d98        0x8 arch/mips/cpu/octeon/libocteon.o
 .rodata.rtt_nom_ohms.149852
                0x00000000c0180da0        0x8 arch/mips/cpu/octeon/libocteon.o
 .rodata.__func__.149661
                0x00000000c0180da8       0x20 arch/mips/cpu/octeon/libocteon.o
 .rodata.test_pattern
                0x00000000c0180dc8      0x100 arch/mips/cpu/octeon/libocteon.o
 .rodata.__func__.149636
                0x00000000c0180ec8       0x20 arch/mips/cpu/octeon/libocteon.o
 .rodata.manu_ids.145796
                0x00000000c0180ee8        0x8 arch/mips/cpu/octeon/libocteon.o
 .rodata.C.470.148501
                0x00000000c0180ef0        0x8 arch/mips/cpu/octeon/libocteon.o
 .rodata.C.469.148500
                0x00000000c0180ef8        0x8 arch/mips/cpu/octeon/libocteon.o
 .rodata.C.468.148499
                0x00000000c0180f00        0x8 arch/mips/cpu/octeon/libocteon.o
 .rodata.C.467.148498
                0x00000000c0180f08        0x8 arch/mips/cpu/octeon/libocteon.o
 .rodata.dsk_bit_seq_p2
                0x00000000c0180f10        0x8 arch/mips/cpu/octeon/libocteon.o
 .rodata.dsk_bit_seq_p1
                0x00000000c0180f18        0x8 arch/mips/cpu/octeon/libocteon.o
 .rodata.C.269.144215
                0x00000000c0180f20       0x18 arch/mips/cpu/octeon/libocteon.o
 .rodata.C.268.144214
                0x00000000c0180f38       0x28 arch/mips/cpu/octeon/libocteon.o
 .rodata.C.267.144213
                0x00000000c0180f60       0x18 arch/mips/cpu/octeon/libocteon.o
 .rodata.C.266.144212
                0x00000000c0180f78       0x18 arch/mips/cpu/octeon/libocteon.o
 .rodata.C.265.144211
                0x00000000c0180f90       0x28 arch/mips/cpu/octeon/libocteon.o
 .rodata.__func__.144674
                0x00000000c0180fb8       0x18 arch/mips/cpu/octeon/libocteon.o
 .rodata.__func__.141081
                0x00000000c0180fd0       0x10 arch/mips/cpu/octeon/libocteon.o
 .rodata.__func__.141047
                0x00000000c0180fe0       0x20 arch/mips/cpu/octeon/libocteon.o
 .rodata.__func__.140310
                0x00000000c0181000       0x18 arch/mips/cpu/octeon/libocteon.o
 .rodata.byte_pattern_0
                0x00000000c0181018       0x18 arch/mips/cpu/octeon/libocteon.o
 .rodata.byte_pattern_1
                0x00000000c0181030       0x18 arch/mips/cpu/octeon/libocteon.o
 .rodata.byte_pattern_2
                0x00000000c0181048       0x18 arch/mips/cpu/octeon/libocteon.o
 .rodata.byte_pattern_3
                0x00000000c0181060       0x18 arch/mips/cpu/octeon/libocteon.o
 .rodata.__func__.139440
                0x00000000c0181078       0x18 arch/mips/cpu/octeon/libocteon.o
 .rodata.C.229.141898
                0x00000000c0181090       0x80 arch/mips/cpu/octeon/libocteon.o
 .rodata.C.219.141703
                0x00000000c0181110       0x80 arch/mips/cpu/octeon/libocteon.o
 .rodata.__func__.141668
                0x00000000c0181190       0x20 arch/mips/cpu/octeon/libocteon.o
 .rodata.__func__.141625
                0x00000000c01811b0       0x20 arch/mips/cpu/octeon/libocteon.o
 .rodata.__func__.141609
                0x00000000c01811d0       0x18 arch/mips/cpu/octeon/libocteon.o
 .rodata.__func__.141506
                0x00000000c01811e8       0x10 arch/mips/cpu/octeon/libocteon.o
 .rodata.__func__.141063
                0x00000000c01811f8       0x20 arch/mips/cpu/octeon/libocteon.o
 .rodata.C.137.140855
                0x00000000c0181218        0x8 arch/mips/cpu/octeon/libocteon.o
 .rodata.C.133.140838
                0x00000000c0181220       0x10 arch/mips/cpu/octeon/libocteon.o
 .rodata.__func__.140514
                0x00000000c0181230       0x20 arch/mips/cpu/octeon/libocteon.o
 .rodata.__func__.140229
                0x00000000c0181250       0x28 arch/mips/cpu/octeon/libocteon.o
 .rodata.__func__.139287
                0x00000000c0181278       0x28 arch/mips/cpu/octeon/libocteon.o
 .rodata.C.134.139305
                0x00000000c01812a0       0x10 arch/mips/cpu/octeon/libocteon.o
 .rodata.__func__.141603
                0x00000000c01812b0       0x20 arch/mips/cpu/octeon/libocteon.o
 .rodata.__func__.141419
                0x00000000c01812d0       0x20 arch/mips/cpu/octeon/libocteon.o
 .rodata.speeds.139455
                0x00000000c01812f0       0x18 arch/mips/cpu/octeon/libocteon.o
 .rodata.octeon_pcie_region_info
                0x00000000c0181308       0x40 arch/mips/cpu/octeon/libocteon.o
 .rodata.__func__.139765
                0x00000000c0181348       0x10 arch/mips/cpu/octeon/libocteon.o
 .rodata.__func__.140272
                0x00000000c0181358       0x10 arch/mips/cpu/octeon/libocteon.o
 .rodata.__func__.140801
                0x00000000c0181368       0x10 arch/mips/cpu/octeon/libocteon.o
 .rodata.sha1_padding
                0x00000000c0181378       0x40 arch/mips/cpu/octeon/libocteon.o
 .rodata.__cvmx_qlm_pcie_errata_cn78xx
                0x00000000c01813b8       0x14 arch/mips/cpu/octeon/libocteon.o
 .rodata.octeon_configure_qlm_cn70xx
                0x00000000c01813cc       0x48 arch/mips/cpu/octeon/libocteon.o
 .rodata.octeon_configure_qlm_cn78xx
                0x00000000c0181414       0x88 arch/mips/cpu/octeon/libocteon.o
 .rodata.octeon_configure_qlm
                0x00000000c018149c       0xc4 arch/mips/cpu/octeon/libocteon.o
 .rodata.__func__.139628
                0x00000000c0181560       0x18 arch/mips/cpu/octeon/libocteon.o
 .rodata.__func__.139696
                0x00000000c0181578       0x18 arch/mips/cpu/octeon/libocteon.o
 .rodata.__func__.139830
                0x00000000c0181590       0x18 arch/mips/cpu/octeon/libocteon.o
 .rodata.__func__.139931
                0x00000000c01815a8       0x18 arch/mips/cpu/octeon/libocteon.o
 .rodata.__func__.140383
                0x00000000c01815c0       0x20 arch/mips/cpu/octeon/libocteon.o
 .rodata.ref_clk_mult.140382
                0x00000000c01815e0        0x8 arch/mips/cpu/octeon/libocteon.o
 .rodata.__func__.141736
                0x00000000c01815e8       0x20 arch/mips/cpu/octeon/libocteon.o
 .rodata.refclk_settings_cn78xx
                0x00000000c0181608      0x780 arch/mips/cpu/octeon/libocteon.o
 .rodata.__func__.141076
                0x00000000c0181d88       0x18 arch/mips/cpu/octeon/libocteon.o
 .rodata.__func__.142029
                0x00000000c0181da0       0x20 arch/mips/cpu/octeon/libocteon.o
 .rodata.def_ref_clk_cn78xx
                0x00000000c0181dc0       0x10 arch/mips/cpu/octeon/libocteon.o
 .rodata.__func__.141474
                0x00000000c0181dd0       0x20 arch/mips/cpu/octeon/libocteon.o
 .rodata.version_string
                0x00000000c0181df0       0x40 arch/mips/lib/libmips.o
                0x00000000c0181df0                version_string
 .rodata.__func__.143367
                0x00000000c0181e30       0x18 arch/mips/lib/libmips.o
 .rodata._en.138770
                0x00000000c0181e48       0x20 board/octeon/common/libocteon.o
 .rodata.__octeon_boot_bus_get_fdt_info
                0x00000000c0181e68       0x44 board/octeon/common/libocteon.o
 *fill*         0x00000000c0181eac        0x4 00
 .rodata.__func__.139934
                0x00000000c0181eb0       0x20 board/octeon/common/libocteon.o
 .rodata.__func__.141682
                0x00000000c0181ed0       0x18 board/octeon/common/libocteon.o
 .rodata.__func__.141568
                0x00000000c0181ee8       0x20 board/octeon/common/libocteon.o
 .rodata.do_fdt
                0x00000000c0181f08       0x24 common/libcommon.o
 *fill*         0x00000000c0181f2c        0x4 00
 .rodata.__func__.6198
                0x00000000c0181f30       0x10 common/libcommon.o
 .rodata.__func__.6144
                0x00000000c0181f40       0x10 common/libcommon.o
 .rodata.C.195.139195
                0x00000000c0181f50       0x10 common/libcommon.o
 .rodata.usb_display_class_sub
                0x00000000c0181f60       0x18 common/libcommon.o
 .rodata.delims.5636
                0x00000000c0181f78        0x8 common/libcommon.o
 .rodata.default_environment
                0x00000000c0181f80       0x28 common/libcommon.o
                0x00000000c0181f80                default_environment
 .rodata.__func__.5804
                0x00000000c0181fa8       0x10 common/libcommon.o
 .rodata.__func__.5782
                0x00000000c0181fb8       0x10 common/libcommon.o
 .rodata.env_flags_validate
                0x00000000c0181fc8       0x18 common/libcommon.o
 .rodata.env_flags_varaccess_mask
                0x00000000c0181fe0       0x10 common/libcommon.o
 .rodata.env_flags_vartype_rep
                0x00000000c0181ff0        0x8 common/libcommon.o
 .rodata.env_flags_varaccess_rep
                0x00000000c0181ff8        0x8 common/libcommon.o
 .rodata.__func__.5847
                0x00000000c0182000        0x8 common/libcommon.o
 .rodata.__FUNCTION__.6225
                0x00000000c0182008       0x18 common/libcommon.o
 .rodata.__FUNCTION__.5913
                0x00000000c0182020       0x18 common/libcommon.o
 .rodata.readline_into_buffer
                0x00000000c0182038       0x20 common/libcommon.o
 .rodata.erase_seq
                0x00000000c0182058        0x8 common/libcommon.o
 .rodata.tab_seq
                0x00000000c0182060       0x10 common/libcommon.o
 .rodata.srec_decode
                0x00000000c0182070       0x28 common/libcommon.o
 .rodata.__func__.6822
                0x00000000c0182098       0x20 common/libcommon.o
 .rodata.us_direction
                0x00000000c01820b8       0x20 common/libcommon.o
 .rodata.xyzModem_error
                0x00000000c01820d8       0x20 common/libcommon.o
 .rodata.print_part_header
                0x00000000c01820f8       0x20 disk/libdisk.o
 .rodata.dev_print
                0x00000000c0182118       0x24 disk/libdisk.o
 .rodata.get_partition_info_extended
                0x00000000c018213c       0x20 disk/libdisk.o
 *fill*         0x00000000c018215c        0x4 00
 .rodata.__func__.5972
                0x00000000c0182160       0x18 disk/libdisk.o
 .rodata.__func__.6638
                0x00000000c0182178       0x10 disk/libdisk.o
 .rodata.__func__.6835
                0x00000000c0182188       0x18 disk/libdisk.o
 .rodata.__func__.6909
                0x00000000c01821a0       0x10 disk/libdisk.o
 .rodata.le.5824
                0x00000000c01821b0       0x10 disk/libdisk.o
 .rodata.__func__.5864
                0x00000000c01821c0       0x10 disk/libdisk.o
 .rodata.sata_deb_timing_normal
                0x00000000c01821d0       0x10 drivers/block/libblock.o
                0x00000000c01821d0                sata_deb_timing_normal
 .rodata.__func__.141420
                0x00000000c01821e0       0x18 drivers/block/libblock.o
 .rodata.__func__.141406
                0x00000000c01821f8       0x10 drivers/block/libblock.o
 .rodata.__func__.140587
                0x00000000c0182208       0x10 drivers/block/libblock.o
 .rodata.ata_rw_cmds
                0x00000000c0182218       0x18 drivers/block/libblock.o
 .rodata.__FUNCTION__.140299
                0x00000000c0182230       0x10 drivers/block/libblock.o
 .rodata.__func__.7024
                0x00000000c0182240       0x18 drivers/block/libblock.o
 .rodata.gscr_to_read.7022
                0x00000000c0182258       0x20 drivers/block/libblock.o
 .rodata.__func__.7061
                0x00000000c0182278       0x18 drivers/block/libblock.o
 .rodata.__func__.6979
                0x00000000c0182290       0x10 drivers/block/libblock.o
 .rodata.__func__.6946
                0x00000000c01822a0       0x10 drivers/block/libblock.o
 .rodata.__func__.7131
                0x00000000c01822b0       0x10 drivers/block/libblock.o
 .rodata.__func__.7104
                0x00000000c01822c0       0x18 drivers/block/libblock.o
 .rodata.__func__.7013
                0x00000000c01822d8       0x18 drivers/block/libblock.o
 .rodata.__func__.7001
                0x00000000c01822f0       0x18 drivers/block/libblock.o
 .rodata.offset.141202
                0x00000000c0182308       0x18 drivers/block/libblock.o
 .rodata.timing.142009
                0x00000000c0182320       0x10 drivers/block/libblock.o
 .rodata.__func__.141966
                0x00000000c0182330       0x18 drivers/block/libblock.o
 .rodata.__func__.141431
                0x00000000c0182348       0x10 drivers/block/libblock.o
 .rodata.__func__.141940
                0x00000000c0182358       0x18 drivers/block/libblock.o
 .rodata.__func__.141601
                0x00000000c0182370       0x18 drivers/block/libblock.o
 .rodata.__func__.141100
                0x00000000c0182388       0x20 drivers/block/libblock.o
 .rodata.__func__.141081
                0x00000000c01823a8       0x18 drivers/block/libblock.o
 .rodata.ata_eh_identify_timeouts
                0x00000000c01823c0       0x10 drivers/block/libblock.o
 .rodata.ata_eh_other_timeouts
                0x00000000c01823d0       0x10 drivers/block/libblock.o
 .rodata.ata_eh_flush_timeouts
                0x00000000c01823e0       0x10 drivers/block/libblock.o
 .rodata.__func__.141822
                0x00000000c01823f0       0x20 drivers/block/libblock.o
 .rodata.__func__.141546
                0x00000000c0182410       0x18 drivers/block/libblock.o
 .rodata.__func__.138500
                0x00000000c0182428       0x10 drivers/gpio/libgpio.o
 .rodata.__func__.138537
                0x00000000c0182438       0x18 drivers/gpio/libgpio.o
 .rodata.do_pca953x
                0x00000000c0182450       0x14 drivers/gpio/libgpio.o
 *fill*         0x00000000c0182464        0x4 00
 .rodata.__func__.139096
                0x00000000c0182468       0x18 drivers/i2c/libi2c.o
 .rodata.__func__.139481
                0x00000000c0182480       0x18 drivers/i2c/libi2c.o
 .rodata.__func__.139451
                0x00000000c0182498       0x10 drivers/i2c/libi2c.o
 .rodata.__func__.139404
                0x00000000c01824a8       0x18 drivers/i2c/libi2c.o
 .rodata.__func__.139294
                0x00000000c01824c0       0x18 drivers/i2c/libi2c.o
 .rodata.__func__.139220
                0x00000000c01824d8       0x18 drivers/i2c/libi2c.o
 .rodata.__func__.139248
                0x00000000c01824f0       0x10 drivers/i2c/libi2c.o
 .rodata.__func__.139618
                0x00000000c0182500       0x18 drivers/i2c/libi2c.o
 .rodata.octeon_eth_initialize
                0x00000000c0182518       0x4c drivers/net/libnet.o
 *fill*         0x00000000c0182564        0x4 00
 .rodata.__func__.149919
                0x00000000c0182568       0x18 drivers/net/libnet.o
 .rodata.__func__.149899
                0x00000000c0182580       0x20 drivers/net/libnet.o
 .rodata.__func__.149728
                0x00000000c01825a0       0x18 drivers/net/libnet.o
 .rodata.__func__.149655
                0x00000000c01825b8       0x10 drivers/net/libnet.o
 .rodata.__func__.142711
                0x00000000c01825c8       0x18 drivers/net/libnet.o
 .rodata.__func__.142725
                0x00000000c01825e0       0x28 drivers/net/libnet.o
 .rodata.__func__.140002
                0x00000000c0182608       0x20 drivers/net/libnet.o
 .rodata.__func__.139906
                0x00000000c0182628       0x18 drivers/net/libnet.o
 .rodata.__func__.139819
                0x00000000c0182640       0x20 drivers/net/libnet.o
 .rodata.__func__.139743
                0x00000000c0182660       0x10 drivers/net/libnet.o
 .rodata.__func__.139710
                0x00000000c0182670       0x10 drivers/net/libnet.o
 .rodata.bcm54xx_parse_status
                0x00000000c0182680       0x1c drivers/net/phy/libphy.o
 *fill*         0x00000000c018269c        0x4 00
 .rodata.C.50.5551
                0x00000000c01826a0       0x30 drivers/rtc/librtc.o
 .rodata.baudrate_table
                0x00000000c01826d0       0x48 drivers/serial/libserial.o
 .rodata.__func__.139155
                0x00000000c0182718       0x10 drivers/spi/libspi.o
 .rodata.__func__.139247
                0x00000000c0182728       0x10 drivers/tpm/libtpm.o
 .rodata.command.6306
                0x00000000c0182738       0x18 drivers/tpm/libtpm.o
 .rodata.command.6293
                0x00000000c0182750       0x10 drivers/tpm/libtpm.o
 .rodata.command.6287
                0x00000000c0182760       0x10 drivers/tpm/libtpm.o
 .rodata.command.6281
                0x00000000c0182770       0x10 drivers/tpm/libtpm.o
 .rodata.command.6275
                0x00000000c0182780       0x10 drivers/tpm/libtpm.o
 .rodata.command.6250
                0x00000000c0182790       0x20 drivers/tpm/libtpm.o
 .rodata.command.6239
                0x00000000c01827b0       0x10 drivers/tpm/libtpm.o
 .rodata.command.6224
                0x00000000c01827c0       0x10 drivers/tpm/libtpm.o
 .rodata.command.6206
                0x00000000c01827d0       0x28 drivers/tpm/libtpm.o
 .rodata.command.6187
                0x00000000c01827f8      0x100 drivers/tpm/libtpm.o
 .rodata.command.6165
                0x00000000c01828f8       0x18 drivers/tpm/libtpm.o
 .rodata.command.6152
                0x00000000c0182910       0x68 drivers/tpm/libtpm.o
 .rodata.command.6143
                0x00000000c0182978       0x10 drivers/tpm/libtpm.o
 .rodata.command.6136
                0x00000000c0182988       0x10 drivers/tpm/libtpm.o
 .rodata.command.6127
                0x00000000c0182998       0x10 drivers/tpm/libtpm.o
 .rodata.submit_control_msg
                0x00000000c01829a8       0x14 drivers/usb/host/libusb_host.o
 *fill*         0x00000000c01829bc        0x4 00
 .rodata.__FUNCTION__.140281
                0x00000000c01829c0       0x18 drivers/usb/host/libusb_host.o
 .rodata.__FUNCTION__.140110
                0x00000000c01829d8       0x20 drivers/usb/host/libusb_host.o
 .rodata.__FUNCTION__.140342
                0x00000000c01829f8       0x18 drivers/usb/host/libusb_host.o
 .rodata.__FUNCTION__.140431
                0x00000000c0182a10       0x20 drivers/usb/host/libusb_host.o
 .rodata.__FUNCTION__.140354
                0x00000000c0182a30       0x20 drivers/usb/host/libusb_host.o
 .rodata.__FUNCTION__.140083
                0x00000000c0182a50       0x10 drivers/usb/host/libusb_host.o
 .rodata.__FUNCTION__.140195
                0x00000000c0182a60       0x20 drivers/usb/host/libusb_host.o
 .rodata.__FUNCTION__.140169
                0x00000000c0182a80       0x10 drivers/usb/host/libusb_host.o
 .rodata.__FUNCTION__.140156
                0x00000000c0182a90       0x18 drivers/usb/host/libusb_host.o
 .rodata.__FUNCTION__.140017
                0x00000000c0182aa8       0x18 drivers/usb/host/libusb_host.o
 .rodata.__FUNCTION__.140001
                0x00000000c0182ac0       0x18 drivers/usb/host/libusb_host.o
 .rodata.record_transfer_result
                0x00000000c0182ad8       0x34 drivers/usb/host/libusb_host.o
 .rodata.prepare_ring
                0x00000000c0182b0c       0x14 drivers/usb/host/libusb_host.o
 .rodata.__FUNCTION__.140672
                0x00000000c0182b20       0x10 drivers/usb/host/libusb_host.o
 .rodata.__FUNCTION__.140394
                0x00000000c0182b30       0x18 drivers/usb/host/libusb_host.o
 .rodata.__FUNCTION__.140310
                0x00000000c0182b48       0x10 drivers/usb/host/libusb_host.o
 .rodata.__FUNCTION__.140462
                0x00000000c0182b58       0x10 drivers/usb/host/libusb_host.o
 .rodata.__func__.140452
                0x00000000c0182b68       0x10 drivers/usb/host/libusb_host.o
 .rodata.__FUNCTION__.140276
                0x00000000c0182b78       0x18 drivers/usb/host/libusb_host.o
 .rodata.__FUNCTION__.140137
                0x00000000c0182b90       0x20 drivers/usb/host/libusb_host.o
 .rodata.__FUNCTION__.140108
                0x00000000c0182bb0       0x18 drivers/usb/host/libusb_host.o
 .rodata.__func__.142025
                0x00000000c0182bc8       0x10 drivers/usb/host/libusb_host.o
 .rodata.clk_div
                0x00000000c0182bd8        0x8 drivers/usb/host/libusb_host.o
 .rodata.__func__.141807
                0x00000000c0182be0       0x20 drivers/usb/host/libusb_host.o
 .rodata.__func__.141603
                0x00000000c0182c00       0x20 drivers/usb/host/libusb_host.o
 .rodata.__func__.140399
                0x00000000c0182c20       0x18 drivers/usb/host/libusb_host.o
 .rodata.__func__.140362
                0x00000000c0182c38       0x10 drivers/usb/host/libusb_host.o
 .rodata.__func__.141717
                0x00000000c0182c48       0x20 drivers/usb/host/libusb_host.o
 .rodata.__func__.141951
                0x00000000c0182c68       0x18 drivers/usb/host/libusb_host.o
 .rodata.__func__.141676
                0x00000000c0182c80       0x18 drivers/usb/host/libusb_host.o
 .rodata.file_fat_detectfs
                0x00000000c0182c98       0x20 fs/fat/libfat.o
 .rodata.fdt_next_tag
                0x00000000c0182cb8       0x24 lib/libfdt/libfdt.o
 *fill*         0x00000000c0182cdc        0x4 00
 .rodata.crc16_tab
                0x00000000c0182ce0      0x200 lib/libgeneric.o
 .rodata._ctype
                0x00000000c0182ee0      0x100 lib/libgeneric.o
                0x00000000c0182ee0                _ctype
 .rodata.names.138933
                0x00000000c0182fe0        0x8 lib/libgeneric.o
 .rodata.hex_asc
                0x00000000c0182fe8       0x18 lib/libgeneric.o
 .rodata.digits.5813
                0x00000000c0183000       0x10 lib/libgeneric.o
 .rodata.NetCDPAddr
                0x00000000c0183010        0x8 net/libnet.o
                0x00000000c0183010                NetCDPAddr
 .rodata.CDP_SNAP_hdr
                0x00000000c0183018        0x8 net/libnet.o
 .rodata.NetLoop
                0x00000000c0183020       0x6c net/libnet.o
 .rodata.NfsSend
                0x00000000c018308c       0x1c net/libnet.o
 .rodata.NfsHandler
                0x00000000c01830a8       0x1c net/libnet.o
 .rodata.TftpSend
                0x00000000c01830c4       0x1c net/libnet.o
 .rodata.TftpHandler
                0x00000000c01830e0       0x14 net/libnet.o
 .rodata.airbus_fixup_fdt
                0x00000000c01830f4       0xbc board/juniper/srx_siege/libsrx_siege.o
 .rodata.C.183.143062
                0x00000000c01831b0       0x20 board/juniper/srx_siege/libsrx_siege.o
 .rodata.do_eeprom_at24c
                0x00000000c01831d0       0x14 board/juniper/srx_siege/libsrx_siege.o
 .rodata.do_speed
                0x00000000c01831e4       0x1c board/juniper/srx_siege/libsrx_siege.o
 .rodata.C.50.5814
                0x00000000c0183200       0x18 board/juniper/srx_siege/libsrx_siege.o
                0x00000000c0183218                . = ALIGN (0x8)

.data           0x00000000c0183220     0xea08
 *(.data)
 *(.data.*)
 .data.rel.local.specs
                0x00000000c0183220       0x78 api/libapi.o
 .data.cvmx_rgmii_backpressure_dis
                0x00000000c0183298        0x8 arch/mips/cpu/octeon/cvmx/libcvmx.o
                0x00000000c0183298                cvmx_rgmii_backpressure_dis
 .data.rel.ro.iface_ops_npi
                0x00000000c01832a0       0x20 arch/mips/cpu/octeon/cvmx/libcvmx.o
 .data.rel.ro.iface_ops_loop
                0x00000000c01832c0       0x20 arch/mips/cpu/octeon/cvmx/libcvmx.o
 .data.rel.ro.iface_ops_gmii
                0x00000000c01832e0       0x20 arch/mips/cpu/octeon/cvmx/libcvmx.o
 .data.rel.ro.iface_ops_xaui
                0x00000000c0183300       0x20 arch/mips/cpu/octeon/cvmx/libcvmx.o
 .data.rel.ro.iface_ops_sgmii
                0x00000000c0183320       0x20 arch/mips/cpu/octeon/cvmx/libcvmx.o
 .data.rel.ro.iface_ops_picmg
                0x00000000c0183340       0x20 arch/mips/cpu/octeon/cvmx/libcvmx.o
 .data.rel.ro.iface_ops_spi
                0x00000000c0183360       0x20 arch/mips/cpu/octeon/cvmx/libcvmx.o
 .data.rel.ro.iface_ops_rgmii
                0x00000000c0183380       0x20 arch/mips/cpu/octeon/cvmx/libcvmx.o
 .data.rel.ro.iface_ops_qsgmii
                0x00000000c01833a0       0x20 arch/mips/cpu/octeon/cvmx/libcvmx.o
 .data.rel.ro.iface_ops_rxaui
                0x00000000c01833c0       0x20 arch/mips/cpu/octeon/cvmx/libcvmx.o
 .data.rel.ro.iface_ops_agl
                0x00000000c01833e0       0x20 arch/mips/cpu/octeon/cvmx/libcvmx.o
 .data.rel.ro.iface_ops_bgx_sgmii
                0x00000000c0183400       0x20 arch/mips/cpu/octeon/cvmx/libcvmx.o
 .data.rel.ro.iface_ops_bgx_xfi
                0x00000000c0183420       0x20 arch/mips/cpu/octeon/cvmx/libcvmx.o
 .data.rel.ro.iface_ops_bgx_10G_KR
                0x00000000c0183440       0x20 arch/mips/cpu/octeon/cvmx/libcvmx.o
 .data.rel.ro.iface_ops_bgx_mixed
                0x00000000c0183460       0x20 arch/mips/cpu/octeon/cvmx/libcvmx.o
 .data.rel.ro.iface_ops_srio
                0x00000000c0183480       0x20 arch/mips/cpu/octeon/cvmx/libcvmx.o
 .data.rel.ro.iface_ops_bgx_xaui
                0x00000000c01834a0       0x20 arch/mips/cpu/octeon/cvmx/libcvmx.o
 .data.rel.ro.iface_ops_bgx_rxaui
                0x00000000c01834c0       0x20 arch/mips/cpu/octeon/cvmx/libcvmx.o
 .data.rel.ro.iface_ops_bgx_xlaui
                0x00000000c01834e0       0x20 arch/mips/cpu/octeon/cvmx/libcvmx.o
 .data.rel.ro.iface_ops_bgx_40G_KR4
                0x00000000c0183500       0x20 arch/mips/cpu/octeon/cvmx/libcvmx.o
 .data.rel.ro.iface_ops_ilk
                0x00000000c0183520       0x20 arch/mips/cpu/octeon/cvmx/libcvmx.o
 .data.rel.ro.local.mux_compat_list
                0x00000000c0183540       0x80 arch/mips/cpu/octeon/cvmx/libcvmx.o
 .data.rel.ro.local.gpio_compat_list
                0x00000000c01835c0      0x288 arch/mips/cpu/octeon/cvmx/libcvmx.o
 .data.cvmx_primary_pcie_bus_number
                0x00000000c0183848        0x4 arch/mips/cpu/octeon/cvmx/libcvmx.o
                0x00000000c0183848                cvmx_primary_pcie_bus_number
 .data.cfg_ticks.141043
                0x00000000c018384c        0x4 arch/mips/cpu/octeon/cvmx/libcvmx.o
 .data.rel.ro.local.__cvmx_qlm_jtag_field_cn56xx
                0x00000000c0183850      0x358 arch/mips/cpu/octeon/cvmx/libcvmx.o
                0x00000000c0183850                __cvmx_qlm_jtag_field_cn56xx
 .data.rel.ro.local.__cvmx_qlm_jtag_field_cn52xx
                0x00000000c0183ba8      0x358 arch/mips/cpu/octeon/cvmx/libcvmx.o
                0x00000000c0183ba8                __cvmx_qlm_jtag_field_cn52xx
 .data.rel.ro.local.__cvmx_qlm_jtag_field_cn63xx
                0x00000000c0183f00      0x420 arch/mips/cpu/octeon/cvmx/libcvmx.o
                0x00000000c0183f00                __cvmx_qlm_jtag_field_cn63xx
 .data.rel.ro.local.__cvmx_qlm_jtag_field_cn66xx
                0x00000000c0184320      0x448 arch/mips/cpu/octeon/cvmx/libcvmx.o
                0x00000000c0184320                __cvmx_qlm_jtag_field_cn66xx
 .data.rel.ro.local.__cvmx_qlm_jtag_field_cn68xx
                0x00000000c0184768      0x430 arch/mips/cpu/octeon/cvmx/libcvmx.o
                0x00000000c0184768                __cvmx_qlm_jtag_field_cn68xx
 .data.rel.local.cortina_compat_list_1
                0x00000000c0184b98       0x18 arch/mips/cpu/octeon/cvmx/libcvmx.o
 .data.rel.local.cortina_compat_list_2
                0x00000000c0184bb0       0x18 arch/mips/cpu/octeon/cvmx/libcvmx.o
 .data.cvmx_pko_queue_table
                0x00000000c0184bc8      0x200 arch/mips/cpu/octeon/cvmx/libcvmx.o
                0x00000000c0184bc8                cvmx_pko_queue_table
 .data.cvmx_cfg_pko_port_map
                0x00000000c0184dc8      0x300 arch/mips/cpu/octeon/cvmx/libcvmx.o
                0x00000000c0184dc8                cvmx_cfg_pko_port_map
 .data.ipd2pko_port_cache
                0x00000000c01850c8     0x2000 arch/mips/cpu/octeon/cvmx/libcvmx.o
 .data.cvmx_cfg_opts
                0x00000000c01870c8        0x8 arch/mips/cpu/octeon/cvmx/libcvmx.o
 .data.cvmx_npi_num_pipes
                0x00000000c01870d0        0x4 arch/mips/cpu/octeon/cvmx/libcvmx.o
                0x00000000c01870d0                cvmx_npi_num_pipes
 *fill*         0x00000000c01870d4        0x4 00
 .data.cvmx_pki_dflt_init
                0x00000000c01870d8        0x8 arch/mips/cpu/octeon/cvmx/libcvmx.o
                0x00000000c01870d8                cvmx_pki_dflt_init
 .data.pki_dflt_pool
                0x00000000c01870e0       0x60 arch/mips/cpu/octeon/cvmx/libcvmx.o
                0x00000000c01870e0                pki_dflt_pool
 .data.pki_dflt_aura
                0x00000000c0187140       0x60 arch/mips/cpu/octeon/cvmx/libcvmx.o
                0x00000000c0187140                pki_dflt_aura
 .data.pki_dflt_style
                0x00000000c01871a0      0x2c0 arch/mips/cpu/octeon/cvmx/libcvmx.o
                0x00000000c01871a0                pki_dflt_style
 .data.pkind_style_map
                0x00000000c0187460      0x800 arch/mips/cpu/octeon/cvmx/libcvmx.o
                0x00000000c0187460                pkind_style_map
 .data.cvmx_pki_dflt_bp_en
                0x00000000c0187c60        0x8 arch/mips/cpu/octeon/cvmx/libcvmx.o
 .data.pko_fpa_config_size
                0x00000000c0187c68        0x8 arch/mips/cpu/octeon/cvmx/libcvmx.o
 .data.pko_fpa_config_pool
                0x00000000c0187c70        0x8 arch/mips/cpu/octeon/cvmx/libcvmx.o
 .data.cvmx_spi_timeout
                0x00000000c0187c78        0x4 arch/mips/cpu/octeon/cvmx/libcvmx.o
 .data.__cvmx_wqe_pool
                0x00000000c0187c7c        0x1 arch/mips/cpu/octeon/cvmx/libcvmx.o
 *fill*         0x00000000c0187c7d        0x3 00
 .data.cvmx_ilk_lane_mask
                0x00000000c0187c80       0x10 arch/mips/cpu/octeon/cvmx/libcvmx.o
                0x00000000c0187c80                cvmx_ilk_lane_mask
 .data.cvmx_ilk_chans
                0x00000000c0187c90       0x20 arch/mips/cpu/octeon/cvmx/libcvmx.o
                0x00000000c0187c90                cvmx_ilk_chans
 .data.cvmx_ipd_cfg
                0x00000000c0187cb0       0x78 arch/mips/cpu/octeon/cvmx/libcvmx.o
                0x00000000c0187cb0                cvmx_ipd_cfg
 .data.aura.142831
                0x00000000c0187d28        0x2 arch/mips/cpu/octeon/cvmx/libcvmx.o
 *fill*         0x00000000c0187d2a        0x6 00
 .data.rel.ro.local.pko3_cn78xx_cfg
                0x00000000c0187d30      0x800 arch/mips/cpu/octeon/cvmx/libcvmx.o
 .data.rel.ro.local.pko3_cn73xx_cfg
                0x00000000c0188530      0x800 arch/mips/cpu/octeon/cvmx/libcvmx.o
 .data.rel.cvmx_spi_callbacks
                0x00000000c0188d30       0x18 arch/mips/cpu/octeon/cvmx/libcvmx.o
 .data.last_value.138687
                0x00000000c0188d48        0x4 arch/mips/cpu/octeon/cvmx/libcvmx.o
 *fill*         0x00000000c0188d4c        0x4 00
 .data.rel.local.ddr4_impedence_values
                0x00000000c0188d50       0x20 arch/mips/cpu/octeon/libocteon.o
                0x00000000c0188d50                ddr4_impedence_values
 .data.rel.ro.local.octeon_board_ddr_config_table
                0x00000000c0188d70     0x4cb0 arch/mips/cpu/octeon/libocteon.o
                0x00000000c0188d70                octeon_board_ddr_config_table
 .data.rel.ro.local.byte_patterns
                0x00000000c018da20       0x10 arch/mips/cpu/octeon/libocteon.o
 .data.rel.ro.local.wl_status_strings.150062
                0x00000000c018da30       0x10 arch/mips/cpu/octeon/libocteon.o
 .data.rel.ro.local.strength_str.149878
                0x00000000c018da40       0x20 arch/mips/cpu/octeon/libocteon.o
 .data.rel.local.ddr3_dimm_types
                0x00000000c018da60       0x40 arch/mips/cpu/octeon/libocteon.o
 .data.rel.local.ddr4_dimm_types
                0x00000000c018daa0       0x40 arch/mips/cpu/octeon/libocteon.o
 .data.rel.local.ddr3_impedence_values
                0x00000000c018dae0       0x20 arch/mips/cpu/octeon/libocteon.o
 .data.rel.ro.local.wl_status_strings.146379
                0x00000000c018db00       0x10 arch/mips/cpu/octeon/libocteon.o
 .data.rel.ro.local.manu_names.145797
                0x00000000c018db10       0x10 arch/mips/cpu/octeon/libocteon.o
 .data.rel.ro.local.C.356.146616
                0x00000000c018db20       0x10 arch/mips/cpu/octeon/libocteon.o
 .data.rel.ro.local.C.346.146534
                0x00000000c018db30       0x10 arch/mips/cpu/octeon/libocteon.o
 .data.rel.ro.local.with_rodt_canned_msgs
                0x00000000c018db40       0x10 arch/mips/cpu/octeon/libocteon.o
 .data.rel.local._70xx_ddr4_impedence_values
                0x00000000c018db50       0x18 arch/mips/cpu/octeon/libocteon.o
 .data.rel.local._70xx_ddr3_impedence_values
                0x00000000c018db68       0x18 arch/mips/cpu/octeon/libocteon.o
 .data.rel.ro.local.wl_status_strings.141771
                0x00000000c018db80       0x10 arch/mips/cpu/octeon/libocteon.o
 .data.ddr4_rodt_ohms
                0x00000000c018db90        0x8 arch/mips/cpu/octeon/libocteon.o
 .data.ddr4_rtt_nom_ohms
                0x00000000c018db98        0x8 arch/mips/cpu/octeon/libocteon.o
 .data.ddr4_rtt_nom_table
                0x00000000c018dba0        0x8 arch/mips/cpu/octeon/libocteon.o
 .data.ddr4_rtt_wr_ohms
                0x00000000c018dba8        0x8 arch/mips/cpu/octeon/libocteon.o
 .data.ddr4_dic_ohms
                0x00000000c018dbb0        0x8 arch/mips/cpu/octeon/libocteon.o
 .data.ddr4_drive_strength
                0x00000000c018dbb8       0x20 arch/mips/cpu/octeon/libocteon.o
 .data.ddr4_dqx_strength
                0x00000000c018dbd8       0x20 arch/mips/cpu/octeon/libocteon.o
 .data.juniper_srx_siege_4gb_spd_values
                0x00000000c018dbf8      0x100 arch/mips/cpu/octeon/libocteon.o
 .data.ddr3_rodt_ohms
                0x00000000c018dcf8        0x8 arch/mips/cpu/octeon/libocteon.o
 .data.ddr3_rtt_nom_ohms
                0x00000000c018dd00        0x8 arch/mips/cpu/octeon/libocteon.o
 .data.ddr3_rtt_nom_table
                0x00000000c018dd08        0x8 arch/mips/cpu/octeon/libocteon.o
 .data.ddr3_rtt_wr_ohms
                0x00000000c018dd10        0x8 arch/mips/cpu/octeon/libocteon.o
 .data.ddr3_dic_ohms
                0x00000000c018dd18        0x8 arch/mips/cpu/octeon/libocteon.o
 .data.ddr3_drive_strength
                0x00000000c018dd20       0x20 arch/mips/cpu/octeon/libocteon.o
 .data._70xx_ddr4_rodt_ohms
                0x00000000c018dd40        0x8 arch/mips/cpu/octeon/libocteon.o
 .data._70xx_ddr4_rtt_nom_ohms
                0x00000000c018dd48        0x8 arch/mips/cpu/octeon/libocteon.o
 .data._70xx_ddr4_rtt_nom_table
                0x00000000c018dd50        0x8 arch/mips/cpu/octeon/libocteon.o
 .data._70xx_ddr4_rtt_wr_ohms
                0x00000000c018dd58        0x8 arch/mips/cpu/octeon/libocteon.o
 .data._70xx_ddr4_dic_ohms
                0x00000000c018dd60        0x8 arch/mips/cpu/octeon/libocteon.o
 .data._70xx_ddr4_drive_strength
                0x00000000c018dd68       0x20 arch/mips/cpu/octeon/libocteon.o
 .data._70xx_ddr3_rodt_ohms
                0x00000000c018dd88        0x8 arch/mips/cpu/octeon/libocteon.o
 .data._70xx_ddr3_rtt_nom_ohms
                0x00000000c018dd90        0x8 arch/mips/cpu/octeon/libocteon.o
 .data._70xx_ddr3_rtt_nom_table
                0x00000000c018dd98        0x8 arch/mips/cpu/octeon/libocteon.o
 .data._70xx_ddr3_rtt_wr_ohms
                0x00000000c018dda0        0x8 arch/mips/cpu/octeon/libocteon.o
 .data._70xx_ddr3_dic_ohms
                0x00000000c018dda8        0x8 arch/mips/cpu/octeon/libocteon.o
 .data._70xx_ddr3_drive_strength
                0x00000000c018ddb0       0x20 arch/mips/cpu/octeon/libocteon.o
 .data.cur_exception_base
                0x00000000c018ddd0        0x4 arch/mips/cpu/octeon/libocteon.o
                0x00000000c018ddd0                cur_exception_base
 *fill*         0x00000000c018ddd4        0x4 00
 .data.pci_mem1_base
                0x00000000c018ddd8        0x8 arch/mips/cpu/octeon/libocteon.o
                0x00000000c018ddd8                pci_mem1_base
 .data.pci_mem2_base
                0x00000000c018dde0        0x8 arch/mips/cpu/octeon/libocteon.o
                0x00000000c018dde0                pci_mem2_base
 .data.pci_mem3_base
                0x00000000c018dde8        0x8 arch/mips/cpu/octeon/libocteon.o
                0x00000000c018dde8                pci_mem3_base
 .data.pci_mem4_base
                0x00000000c018ddf0        0x8 arch/mips/cpu/octeon/libocteon.o
                0x00000000c018ddf0                pci_mem4_base
 .data.rel.local.le_elf_accessors
                0x00000000c018ddf8       0x10 arch/mips/cpu/octeon/libocteon.o
 .data.rel.local.be_elf_accessors
                0x00000000c018de08       0x10 arch/mips/cpu/octeon/libocteon.o
 .data.base_address64
                0x00000000c018de18        0x8 arch/mips/cpu/octeon/libocteon.o
                0x00000000c018de18                base_address64
 .data.dp_last_length
                0x00000000c018de20        0x8 arch/mips/cpu/octeon/libocteon.o
 .data.ref_clk_cn78xx
                0x00000000c018de28      0x180 arch/mips/cpu/octeon/libocteon.o
 .data.rel.init_sequence
                0x00000000c018dfa8       0x68 arch/mips/lib/libmips.o
                0x00000000c018dfa8                init_sequence
 .data.rel.local.fdt_prop_to_str
                0x00000000c018e010       0xd0 board/octeon/common/libocteon.o
                0x00000000c018e010                fdt_prop_to_str
 .data.rel.local.psram_compat.140058
                0x00000000c018e0e0       0x10 board/octeon/common/libocteon.o
 .data.rel.local.pal_compat.139986
                0x00000000c018e0f0        0x8 board/octeon/common/libocteon.o
 .data.rel.local.broadcom_devices
                0x00000000c018e0f8       0x30 board/octeon/common/libocteon.o
                0x00000000c018e0f8                broadcom_devices
 *fill*         0x00000000c018e128       0x18 00
 .data.rel.local.cmd_bootm_sub
                0x00000000c018e140      0x100 common/libcommon.o
 .data.rel.ro.boot_os
                0x00000000c018e240       0x60 common/libcommon.o
 .data.bootm_help_text
                0x00000000c018e2a0      0x498 common/libcommon.o
 .data.root.139023
                0x00000000c018e738        0x8 common/libcommon.o
 .data.tabs.139311
                0x00000000c018e740       0x28 common/libcommon.o
 .data.fdt_help_text
                0x00000000c018e768      0x5e8 common/libcommon.o
 *fill*         0x00000000c018ed50       0x10 00
 .data.rel.cmd_i2c_sub
                0x00000000c018ed60      0x1a0 common/libcommon.o
 .data.i2c_dp_last_length
                0x00000000c018ef00        0x4 common/libcommon.o
 *fill*         0x00000000c018ef04        0x4 00
 .data.i2c_help_text
                0x00000000c018ef08      0x338 common/libcommon.o
 .data.do_echo  0x00000000c018f240        0x4 common/libcommon.o
 .data.dp_last_length
                0x00000000c018f244        0x4 common/libcommon.o
 .data.rel.ro.local.reg_0_5_desc_tbl
                0x00000000c018f248       0x30 common/libcommon.o
 .data.rel.ro.local.desc_and_len_tbl
                0x00000000c018f278       0x30 common/libcommon.o
 .data.rel.ro.local.reg_0_desc_tbl
                0x00000000c018f2a8       0x78 common/libcommon.o
 .data.rel.ro.local.reg_1_desc_tbl
                0x00000000c018f320       0xc0 common/libcommon.o
 .data.rel.ro.local.reg_2_desc_tbl
                0x00000000c018f3e0       0x10 common/libcommon.o
 .data.rel.ro.local.reg_3_desc_tbl
                0x00000000c018f3f0       0x28 common/libcommon.o
 .data.rel.ro.local.reg_4_desc_tbl
                0x00000000c018f418       0x90 common/libcommon.o
 .data.rel.ro.local.reg_5_desc_tbl
                0x00000000c018f4a8       0x90 common/libcommon.o
 .data.env_id   0x00000000c018f538        0x4 common/libcommon.o
 *fill*         0x00000000c018f53c        0x4 00
 .data.rel.cmd_env_sub
                0x00000000c018f540      0x140 common/libcommon.o
 .data.env_help_text
                0x00000000c018f680      0x268 common/libcommon.o
 .data.pci_help_text
                0x00000000c018f8e8      0x1d0 common/libcommon.o
 .data.sata_curr_device
                0x00000000c018fab8        0x4 common/libcommon.o
 *fill*         0x00000000c018fabc        0x4 00
 .data.rel.local.tpm_commands
                0x00000000c018fac0      0x280 common/libcommon.o
 .data.usb_stor_curr_dev
                0x00000000c018fd40        0x4 common/libcommon.o
 .data.trim_threshold
                0x00000000c018fd44        0x4 common/libcommon.o
 .data.rel.local.av_
                0x00000000c018fd48      0x408 common/libcommon.o
 .data.sbrk_base
                0x00000000c0190150        0x4 common/libcommon.o
 *fill*         0x00000000c0190154        0x4 00
 .data.rel.env_htab
                0x00000000c0190158       0x10 common/libcommon.o
                0x00000000c0190158                env_htab
 .data.rel.ro.local.env_flags_varaccess_names
                0x00000000c0190168       0x10 common/libcommon.o
 .data.rel.ro.local.env_flags_vartype_names
                0x00000000c0190178       0x18 common/libcommon.o
 .data.rel.local.env_name_spec
                0x00000000c0190190        0x4 common/libcommon.o
                0x00000000c0190190                env_name_spec
 *fill*         0x00000000c0190194        0x4 00
 .data.rel.local.of_busses
                0x00000000c0190198       0x18 common/libcommon.o
 .data.rel.hash_algo
                0x00000000c01901b0       0x20 common/libcommon.o
 .data.load_addr
                0x00000000c01901d0        0x4 common/libcommon.o
                0x00000000c01901d0                load_addr
 *fill*         0x00000000c01901d4        0x4 00
 .data.rel.ro.local.uimage_comp
                0x00000000c01901d8       0x48 common/libcommon.o
 .data.rel.ro.local.uimage_type
                0x00000000c0190220       0xd0 common/libcommon.o
 .data.rel.ro.local.uimage_arch
                0x00000000c01902f0      0x108 common/libcommon.o
 .data.rel.ro.local.uimage_os
                0x00000000c01903f8       0x60 common/libcommon.o
 .data.hist_cur
                0x00000000c0190458        0x4 common/libcommon.o
 *fill*         0x00000000c019045c        0x4 00
 .data.rel.local.stdio_names
                0x00000000c0190460       0x10 common/libcommon.o
                0x00000000c0190460                stdio_names
 .data.rel.ro   0x00000000c0190470        0x4 common/libcommon.o
 *fill*         0x00000000c0190474        0x4 00
 .data.rel.ro.block_drvr
                0x00000000c0190478       0x18 disk/libdisk.o
 .data.system_guid
                0x00000000c0190490       0x10 disk/libdisk.o
 .data.rel.ro.ata_base_port_ops
                0x00000000c01904a0       0x58 drivers/block/libblock.o
                0x00000000c01904a0                ata_base_port_ops
 .data.rel.ro.sata_port_ops
                0x00000000c01904f8       0x58 drivers/block/libblock.o
                0x00000000c01904f8                sata_port_ops
 .data.rel.ro.sata_pmp_port_ops
                0x00000000c0190550       0x58 drivers/block/libblock.o
                0x00000000c0190550                sata_pmp_port_ops
 .data.rel.ahci_ops
                0x00000000c01905a8       0x58 drivers/block/libblock.o
                0x00000000c01905a8                ahci_ops
 .data.rel.ro.local.ata_eh_cmd_timeout_table
                0x00000000c0190600       0x30 drivers/block/libblock.o
 .data.__compound_literal.0
                0x00000000c0190630        0x8 drivers/block/libblock.o
 .data.__compound_literal.1
                0x00000000c0190638        0x8 drivers/block/libblock.o
 .data.__compound_literal.2
                0x00000000c0190640        0x8 drivers/block/libblock.o
 .data.__compound_literal.3
                0x00000000c0190648        0x8 drivers/block/libblock.o
 .data.__compound_literal.4
                0x00000000c0190650        0x8 drivers/block/libblock.o
 .data.__compound_literal.5
                0x00000000c0190658        0x8 drivers/block/libblock.o
 .data.rel.ro.octeon_ahci_port_info
                0x00000000c0190660       0x20 drivers/block/libblock.o
 .data.rel.local.cmd_pca953x
                0x00000000c0190680       0xa0 drivers/gpio/libgpio.o
                0x00000000c0190680                cmd_pca953x
 .data.chip.5826
                0x00000000c0190720        0x1 drivers/gpio/libgpio.o
 *fill*         0x00000000c0190721        0x7 00
 .data.rel.local.i2c_bus_list
                0x00000000c0190728        0x8 drivers/i2c/libi2c.o
 .data.rel.ro.local.spi_flash_params_table
                0x00000000c0190730      0x5b8 drivers/mtd/spi/libspi_flash.o
 .data.available_mac_count
                0x00000000c0190ce8        0x4 drivers/net/libnet.o
 *fill*         0x00000000c0190cec        0x4 00
 .data.rel.ro.local.rx_error_codes
                0x00000000c0190cf0       0x50 drivers/net/libnet.o
 .data.rx_sync_count.149543
                0x00000000c0190d40        0x4 drivers/net/libnet.o
 .data.current_muxed_bus
                0x00000000c0190d44        0x4 drivers/net/libnet.o
 .data.rel.local.phy_drivers
                0x00000000c0190d48        0x8 drivers/net/phy/libphy.o
 .data.rel.genphy_driver
                0x00000000c0190d50       0x38 drivers/net/phy/libphy.o
 .data.rel.gen10g_driver
                0x00000000c0190d88       0x38 drivers/net/phy/libphy.o
                0x00000000c0190d88                gen10g_driver
 .data.rel.BCM5482S_driver
                0x00000000c0190dc0       0x38 drivers/net/phy/libphy.o
 .data.rel.BCM5464S_driver
                0x00000000c0190df8       0x38 drivers/net/phy/libphy.o
 .data.rel.BCM5461S_driver
                0x00000000c0190e30       0x38 drivers/net/phy/libphy.o
 .data.rel.BCM54616S_driver
                0x00000000c0190e68       0x38 drivers/net/phy/libphy.o
 .data.month_days
                0x00000000c0190ea0       0x30 drivers/rtc/librtc.o
 .data.rel.local.octeon_serial0_device
                0x00000000c0190ed0       0x30 drivers/serial/libserial.o
                0x00000000c0190ed0                octeon_serial0_device
 .data.rel.ro.local.vendor_names
                0x00000000c0190f00       0x10 drivers/tpm/libtpm.o
 .data.rel.ro.local.infineon_devices
                0x00000000c0190f10       0x18 drivers/tpm/libtpm.o
 .data.descriptor
                0x00000000c0190f28       0x40 drivers/usb/host/libusb_host.o
 .data.rel.fstypes
                0x00000000c0190f68       0x40 fs/libfs.o
 .data.rel.ro.local.fdt_errtable
                0x00000000c0190fa8       0x38 lib/libfdt/libfdt.o
 .data.rel.ro.local.compat_names
                0x00000000c0190fe0       0xc0 lib/libgeneric.o
 .data.NetBcastAddr
                0x00000000c01910a0        0x8 net/libnet.o
                0x00000000c01910a0                NetBcastAddr
 .data.NetOurVLAN
                0x00000000c01910a8        0x2 net/libnet.o
                0x00000000c01910a8                NetOurVLAN
 .data.NetOurNativeVLAN
                0x00000000c01910aa        0x2 net/libnet.o
                0x00000000c01910aa                NetOurNativeVLAN
 .data.first_call.5846
                0x00000000c01910ac        0x4 net/libnet.o
 .data.nfs_offset
                0x00000000c01910b0        0x4 net/libnet.o
 .data.TftpRRQTimeoutCountMax
                0x00000000c01910b4        0x4 net/libnet.o
                0x00000000c01910b4                TftpRRQTimeoutCountMax
 .data.TftpTimeoutCountMax
                0x00000000c01910b8        0x4 net/libnet.o
 .data.TftpTimeoutMSecs
                0x00000000c01910bc        0x4 net/libnet.o
 .data.TftpBlkSize
                0x00000000c01910c0        0x2 net/libnet.o
 .data.TftpBlkSizeOption
                0x00000000c01910c2        0x2 net/libnet.o
 .data.first_check.5599
                0x00000000c01910c4        0x4 board/juniper/srx_siege/libsrx_siege.o
 .data.jnpr_intermediate_cert_10_year
                0x00000000c01910c8      0x598 board/juniper/srx_siege/libsrx_siege.o
                0x00000000c01910c8                jnpr_intermediate_cert_10_year
 .data.jnpr_intermediate_cert_23_year
                0x00000000c0191660      0x598 board/juniper/srx_siege/libsrx_siege.o
                0x00000000c0191660                jnpr_intermediate_cert_23_year
 .data.rel.local.srx_airbus_dev_map
                0x00000000c0191bf8       0x18 board/juniper/srx_siege/libsrx_siege.o
 .data.rel.local.srx_siege_dev_map
                0x00000000c0191c10       0x18 board/juniper/srx_siege/libsrx_siege.o
                0x00000000c0191c28                . = ALIGN (0x8)

.sdata
 *(.sdata)
 *(.sdata.*)
                0x00000000c0191c28                . = ALIGN (0x8)

.u_boot_list    0x00000000c0191c28      0xc88
 *(SORT(.u_boot_list*))
 .u_boot_list_2_cmd_1
                0x00000000c0191c28        0x0 common/libcommon.o
 .u_boot_list_2_cmd_2_base
                0x00000000c0191c28       0x20 common/libcommon.o
                0x00000000c0191c28                _u_boot_list_2_cmd_2_base
 .u_boot_list_2_cmd_2_base64
                0x00000000c0191c48       0x20 arch/mips/cpu/octeon/libocteon.o
                0x00000000c0191c48                _u_boot_list_2_cmd_2_base64
 .u_boot_list_2_cmd_2_boot
                0x00000000c0191c68       0x20 common/libcommon.o
                0x00000000c0191c68                _u_boot_list_2_cmd_2_boot
 .u_boot_list_2_cmd_2_bootd
                0x00000000c0191c88       0x20 common/libcommon.o
                0x00000000c0191c88                _u_boot_list_2_cmd_2_bootd
 .u_boot_list_2_cmd_2_bootelf
                0x00000000c0191ca8       0x20 arch/mips/cpu/octeon/libocteon.o
                0x00000000c0191ca8                _u_boot_list_2_cmd_2_bootelf
 .u_boot_list_2_cmd_2_bootloader
                0x00000000c0191cc8       0x20 board/juniper/srx_siege/libsrx_siege.o
                0x00000000c0191cc8                _u_boot_list_2_cmd_2_bootloader
 .u_boot_list_2_cmd_2_bootm
                0x00000000c0191ce8       0x20 common/libcommon.o
                0x00000000c0191ce8                _u_boot_list_2_cmd_2_bootm
 .u_boot_list_2_cmd_2_bootoct
                0x00000000c0191d08       0x20 arch/mips/cpu/octeon/libocteon.o
                0x00000000c0191d08                _u_boot_list_2_cmd_2_bootoct
 .u_boot_list_2_cmd_2_bootp
                0x00000000c0191d28       0x20 common/libcommon.o
                0x00000000c0191d28                _u_boot_list_2_cmd_2_bootp
 .u_boot_list_2_cmd_2_cdp
                0x00000000c0191d48       0x20 common/libcommon.o
                0x00000000c0191d48                _u_boot_list_2_cmd_2_cdp
 .u_boot_list_2_cmd_2_cmp
                0x00000000c0191d68       0x20 common/libcommon.o
                0x00000000c0191d68                _u_boot_list_2_cmd_2_cmp
 .u_boot_list_2_cmd_2_cmp64
                0x00000000c0191d88       0x20 arch/mips/cpu/octeon/libocteon.o
                0x00000000c0191d88                _u_boot_list_2_cmd_2_cmp64
 .u_boot_list_2_cmd_2_cp
                0x00000000c0191da8       0x20 common/libcommon.o
                0x00000000c0191da8                _u_boot_list_2_cmd_2_cp
 .u_boot_list_2_cmd_2_cp64
                0x00000000c0191dc8       0x20 arch/mips/cpu/octeon/libocteon.o
                0x00000000c0191dc8                _u_boot_list_2_cmd_2_cp64
 .u_boot_list_2_cmd_2_cpld
                0x00000000c0191de8       0x20 board/juniper/srx_siege/libsrx_siege.o
                0x00000000c0191de8                _u_boot_list_2_cmd_2_cpld
 .u_boot_list_2_cmd_2_crc32
                0x00000000c0191e08       0x20 common/libcommon.o
                0x00000000c0191e08                _u_boot_list_2_cmd_2_crc32
 .u_boot_list_2_cmd_2_dhcp
                0x00000000c0191e28       0x20 common/libcommon.o
                0x00000000c0191e28                _u_boot_list_2_cmd_2_dhcp
 .u_boot_list_2_cmd_2_dns
                0x00000000c0191e48       0x20 common/libcommon.o
                0x00000000c0191e48                _u_boot_list_2_cmd_2_dns
 .u_boot_list_2_cmd_2_echo
                0x00000000c0191e68       0x20 common/libcommon.o
                0x00000000c0191e68                _u_boot_list_2_cmd_2_echo
 .u_boot_list_2_cmd_2_eeprom
                0x00000000c0191e88       0x20 common/libcommon.o
                0x00000000c0191e88                _u_boot_list_2_cmd_2_eeprom
 .u_boot_list_2_cmd_2_env
                0x00000000c0191ea8       0x20 common/libcommon.o
                0x00000000c0191ea8                _u_boot_list_2_cmd_2_env
 .u_boot_list_2_cmd_2_fanspd
                0x00000000c0191ec8       0x20 board/juniper/srx_siege/libsrx_siege.o
                0x00000000c0191ec8                _u_boot_list_2_cmd_2_fanspd
 .u_boot_list_2_cmd_2_fatinfo
                0x00000000c0191ee8       0x20 common/libcommon.o
                0x00000000c0191ee8                _u_boot_list_2_cmd_2_fatinfo
 .u_boot_list_2_cmd_2_fatload
                0x00000000c0191f08       0x20 common/libcommon.o
                0x00000000c0191f08                _u_boot_list_2_cmd_2_fatload
 .u_boot_list_2_cmd_2_fatls
                0x00000000c0191f28       0x20 common/libcommon.o
                0x00000000c0191f28                _u_boot_list_2_cmd_2_fatls
 .u_boot_list_2_cmd_2_fatwrite
                0x00000000c0191f48       0x20 common/libcommon.o
                0x00000000c0191f48                _u_boot_list_2_cmd_2_fatwrite
 .u_boot_list_2_cmd_2_fdt
                0x00000000c0191f68       0x20 common/libcommon.o
                0x00000000c0191f68                _u_boot_list_2_cmd_2_fdt
 .u_boot_list_2_cmd_2_flush_dcache
                0x00000000c0191f88       0x20 arch/mips/cpu/octeon/libocteon.o
                0x00000000c0191f88                _u_boot_list_2_cmd_2_flush_dcache
 .u_boot_list_2_cmd_2_flush_l2c
                0x00000000c0191fa8       0x20 arch/mips/cpu/octeon/libocteon.o
                0x00000000c0191fa8                _u_boot_list_2_cmd_2_flush_l2c
 .u_boot_list_2_cmd_2_freeprint
                0x00000000c0191fc8       0x20 arch/mips/cpu/octeon/libocteon.o
                0x00000000c0191fc8                _u_boot_list_2_cmd_2_freeprint
 .u_boot_list_2_cmd_2_go
                0x00000000c0191fe8       0x20 common/libcommon.o
                0x00000000c0191fe8                _u_boot_list_2_cmd_2_go
 .u_boot_list_2_cmd_2_gpio
                0x00000000c0192008       0x20 common/libcommon.o
                0x00000000c0192008                _u_boot_list_2_cmd_2_gpio
 .u_boot_list_2_cmd_2_help
                0x00000000c0192028       0x20 common/libcommon.o
                0x00000000c0192028                _u_boot_list_2_cmd_2_help
 .u_boot_list_2_cmd_2_i2c
                0x00000000c0192048       0x20 common/libcommon.o
                0x00000000c0192048                _u_boot_list_2_cmd_2_i2c
 .u_boot_list_2_cmd_2_id_eeprom
                0x00000000c0192068       0x20 board/juniper/srx_siege/libsrx_siege.o
                0x00000000c0192068                _u_boot_list_2_cmd_2_id_eeprom
 .u_boot_list_2_cmd_2_inv_icache
                0x00000000c0192088       0x20 arch/mips/cpu/octeon/libocteon.o
                0x00000000c0192088                _u_boot_list_2_cmd_2_inv_icache
 .u_boot_list_2_cmd_2_loadb
                0x00000000c01920a8       0x20 common/libcommon.o
                0x00000000c01920a8                _u_boot_list_2_cmd_2_loadb
 .u_boot_list_2_cmd_2_loads
                0x00000000c01920c8       0x20 common/libcommon.o
                0x00000000c01920c8                _u_boot_list_2_cmd_2_loads
 .u_boot_list_2_cmd_2_loadx
                0x00000000c01920e8       0x20 common/libcommon.o
                0x00000000c01920e8                _u_boot_list_2_cmd_2_loadx
 .u_boot_list_2_cmd_2_loady
                0x00000000c0192108       0x20 common/libcommon.o
                0x00000000c0192108                _u_boot_list_2_cmd_2_loady
 .u_boot_list_2_cmd_2_loop
                0x00000000c0192128       0x20 common/libcommon.o
                0x00000000c0192128                _u_boot_list_2_cmd_2_loop
 .u_boot_list_2_cmd_2_loop64
                0x00000000c0192148       0x20 arch/mips/cpu/octeon/libocteon.o
                0x00000000c0192148                _u_boot_list_2_cmd_2_loop64
 .u_boot_list_2_cmd_2_md
                0x00000000c0192168       0x20 common/libcommon.o
                0x00000000c0192168                _u_boot_list_2_cmd_2_md
 .u_boot_list_2_cmd_2_md5sum
                0x00000000c0192188       0x20 common/libcommon.o
                0x00000000c0192188                _u_boot_list_2_cmd_2_md5sum
 .u_boot_list_2_cmd_2_md64
                0x00000000c01921a8       0x20 arch/mips/cpu/octeon/libocteon.o
                0x00000000c01921a8                _u_boot_list_2_cmd_2_md64
 .u_boot_list_2_cmd_2_mdio
                0x00000000c01921c8       0x20 common/libcommon.o
                0x00000000c01921c8                _u_boot_list_2_cmd_2_mdio
 .u_boot_list_2_cmd_2_mdkinit
                0x00000000c01921e8       0x20 board/juniper/srx_siege/libsrx_siege.o
                0x00000000c01921e8                _u_boot_list_2_cmd_2_mdkinit
 .u_boot_list_2_cmd_2_meminfo
                0x00000000c0192208       0x20 common/libcommon.o
                0x00000000c0192208                _u_boot_list_2_cmd_2_meminfo
 .u_boot_list_2_cmd_2_mii
                0x00000000c0192228       0x20 common/libcommon.o
                0x00000000c0192228                _u_boot_list_2_cmd_2_mii
 .u_boot_list_2_cmd_2_mm
                0x00000000c0192248       0x20 common/libcommon.o
                0x00000000c0192248                _u_boot_list_2_cmd_2_mm
 .u_boot_list_2_cmd_2_mm64
                0x00000000c0192268       0x20 arch/mips/cpu/octeon/libocteon.o
                0x00000000c0192268                _u_boot_list_2_cmd_2_mm64
 .u_boot_list_2_cmd_2_mw
                0x00000000c0192288       0x20 common/libcommon.o
                0x00000000c0192288                _u_boot_list_2_cmd_2_mw
 .u_boot_list_2_cmd_2_mw64
                0x00000000c01922a8       0x20 arch/mips/cpu/octeon/libocteon.o
                0x00000000c01922a8                _u_boot_list_2_cmd_2_mw64
 .u_boot_list_2_cmd_2_namedalloc
                0x00000000c01922c8       0x20 arch/mips/cpu/octeon/libocteon.o
                0x00000000c01922c8                _u_boot_list_2_cmd_2_namedalloc
 .u_boot_list_2_cmd_2_namedfree
                0x00000000c01922e8       0x20 arch/mips/cpu/octeon/libocteon.o
                0x00000000c01922e8                _u_boot_list_2_cmd_2_namedfree
 .u_boot_list_2_cmd_2_namedprint
                0x00000000c0192308       0x20 arch/mips/cpu/octeon/libocteon.o
                0x00000000c0192308                _u_boot_list_2_cmd_2_namedprint
 .u_boot_list_2_cmd_2_nextboot
                0x00000000c0192328       0x20 board/juniper/srx_siege/libsrx_siege.o
                0x00000000c0192328                _u_boot_list_2_cmd_2_nextboot
 .u_boot_list_2_cmd_2_nfs
                0x00000000c0192348       0x20 common/libcommon.o
                0x00000000c0192348                _u_boot_list_2_cmd_2_nfs
 .u_boot_list_2_cmd_2_nm
                0x00000000c0192368       0x20 common/libcommon.o
                0x00000000c0192368                _u_boot_list_2_cmd_2_nm
 .u_boot_list_2_cmd_2_nm64
                0x00000000c0192388       0x20 arch/mips/cpu/octeon/libocteon.o
                0x00000000c0192388                _u_boot_list_2_cmd_2_nm64
 .u_boot_list_2_cmd_2_octwd
                0x00000000c01923a8       0x20 arch/mips/cpu/octeon/libocteon.o
                0x00000000c01923a8                _u_boot_list_2_cmd_2_octwd
 .u_boot_list_2_cmd_2_pca953x
                0x00000000c01923c8       0x20 drivers/gpio/libgpio.o
                0x00000000c01923c8                _u_boot_list_2_cmd_2_pca953x
 .u_boot_list_2_cmd_2_pci
                0x00000000c01923e8       0x20 common/libcommon.o
                0x00000000c01923e8                _u_boot_list_2_cmd_2_pci
 .u_boot_list_2_cmd_2_ping
                0x00000000c0192408       0x20 common/libcommon.o
                0x00000000c0192408                _u_boot_list_2_cmd_2_ping
 .u_boot_list_2_cmd_2_printenv
                0x00000000c0192428       0x20 common/libcommon.o
                0x00000000c0192428                _u_boot_list_2_cmd_2_printenv
 .u_boot_list_2_cmd_2_question_mark
                0x00000000c0192448       0x20 common/libcommon.o
                0x00000000c0192448                _u_boot_list_2_cmd_2_question_mark
 .u_boot_list_2_cmd_2_read64
                0x00000000c0192468       0x20 arch/mips/cpu/octeon/libocteon.o
                0x00000000c0192468                _u_boot_list_2_cmd_2_read64
 .u_boot_list_2_cmd_2_read64b
                0x00000000c0192488       0x20 arch/mips/cpu/octeon/libocteon.o
                0x00000000c0192488                _u_boot_list_2_cmd_2_read64b
 .u_boot_list_2_cmd_2_read64l
                0x00000000c01924a8       0x20 arch/mips/cpu/octeon/libocteon.o
                0x00000000c01924a8                _u_boot_list_2_cmd_2_read64l
 .u_boot_list_2_cmd_2_read64s
                0x00000000c01924c8       0x20 arch/mips/cpu/octeon/libocteon.o
                0x00000000c01924c8                _u_boot_list_2_cmd_2_read64s
 .u_boot_list_2_cmd_2_reset
                0x00000000c01924e8       0x20 common/libcommon.o
                0x00000000c01924e8                _u_boot_list_2_cmd_2_reset
 .u_boot_list_2_cmd_2_run
                0x00000000c0192508       0x20 common/libcommon.o
                0x00000000c0192508                _u_boot_list_2_cmd_2_run
 .u_boot_list_2_cmd_2_sata
                0x00000000c0192528       0x20 common/libcommon.o
                0x00000000c0192528                _u_boot_list_2_cmd_2_sata
 .u_boot_list_2_cmd_2_saveenv
                0x00000000c0192548       0x20 common/libcommon.o
                0x00000000c0192548                _u_boot_list_2_cmd_2_saveenv
 .u_boot_list_2_cmd_2_saves
                0x00000000c0192568       0x20 common/libcommon.o
                0x00000000c0192568                _u_boot_list_2_cmd_2_saves
 .u_boot_list_2_cmd_2_setenv
                0x00000000c0192588       0x20 common/libcommon.o
                0x00000000c0192588                _u_boot_list_2_cmd_2_setenv
 .u_boot_list_2_cmd_2_sf
                0x00000000c01925a8       0x20 common/libcommon.o
                0x00000000c01925a8                _u_boot_list_2_cmd_2_sf
 .u_boot_list_2_cmd_2_sha1sum
                0x00000000c01925c8       0x20 common/libcommon.o
                0x00000000c01925c8                _u_boot_list_2_cmd_2_sha1sum
 .u_boot_list_2_cmd_2_sleep
                0x00000000c01925e8       0x20 common/libcommon.o
                0x00000000c01925e8                _u_boot_list_2_cmd_2_sleep
 .u_boot_list_2_cmd_2_speed
                0x00000000c0192608       0x20 board/juniper/srx_siege/libsrx_siege.o
                0x00000000c0192608                _u_boot_list_2_cmd_2_speed
 .u_boot_list_2_cmd_2_sspi
                0x00000000c0192628       0x20 common/libcommon.o
                0x00000000c0192628                _u_boot_list_2_cmd_2_sspi
 .u_boot_list_2_cmd_2_test_mdk_mem
                0x00000000c0192648       0x20 board/juniper/srx_siege/libsrx_siege.o
                0x00000000c0192648                _u_boot_list_2_cmd_2_test_mdk_mem
 .u_boot_list_2_cmd_2_tftp
                0x00000000c0192668       0x20 arch/mips/cpu/octeon/libocteon.o
                0x00000000c0192668                _u_boot_list_2_cmd_2_tftp
 .u_boot_list_2_cmd_2_tftpboot
                0x00000000c0192688       0x20 common/libcommon.o
                0x00000000c0192688                _u_boot_list_2_cmd_2_tftpboot
 .u_boot_list_2_cmd_2_tftpput
                0x00000000c01926a8       0x20 common/libcommon.o
                0x00000000c01926a8                _u_boot_list_2_cmd_2_tftpput
 .u_boot_list_2_cmd_2_tftpsrv
                0x00000000c01926c8       0x20 common/libcommon.o
                0x00000000c01926c8                _u_boot_list_2_cmd_2_tftpsrv
 .u_boot_list_2_cmd_2_tpm
                0x00000000c01926e8       0x20 common/libcommon.o
                0x00000000c01926e8                _u_boot_list_2_cmd_2_tpm
 .u_boot_list_2_cmd_2_tpm_test
                0x00000000c0192708       0x20 board/juniper/srx_siege/libsrx_siege.o
                0x00000000c0192708                _u_boot_list_2_cmd_2_tpm_test
 .u_boot_list_2_cmd_2_usb
                0x00000000c0192728       0x20 common/libcommon.o
                0x00000000c0192728                _u_boot_list_2_cmd_2_usb
 .u_boot_list_2_cmd_2_usbboot
                0x00000000c0192748       0x20 common/libcommon.o
                0x00000000c0192748                _u_boot_list_2_cmd_2_usbboot
 .u_boot_list_2_cmd_2_version
                0x00000000c0192768       0x20 common/libcommon.o
                0x00000000c0192768                _u_boot_list_2_cmd_2_version
 .u_boot_list_2_cmd_2_write64
                0x00000000c0192788       0x20 arch/mips/cpu/octeon/libocteon.o
                0x00000000c0192788                _u_boot_list_2_cmd_2_write64
 .u_boot_list_2_cmd_2_write64b
                0x00000000c01927a8       0x20 arch/mips/cpu/octeon/libocteon.o
                0x00000000c01927a8                _u_boot_list_2_cmd_2_write64b
 .u_boot_list_2_cmd_2_write64l
                0x00000000c01927c8       0x20 arch/mips/cpu/octeon/libocteon.o
                0x00000000c01927c8                _u_boot_list_2_cmd_2_write64l
 .u_boot_list_2_cmd_2_write64s
                0x00000000c01927e8       0x20 arch/mips/cpu/octeon/libocteon.o
                0x00000000c01927e8                _u_boot_list_2_cmd_2_write64s
 .u_boot_list_2_cmd_3
                0x00000000c0192808        0x0 common/libcommon.o
 .u_boot_list_2_env_clbk_1
                0x00000000c0192808        0x0 common/libcommon.o
 .u_boot_list_2_env_clbk_2_baudrate
                0x00000000c0192808        0x8 drivers/serial/libserial.o
                0x00000000c0192808                _u_boot_list_2_env_clbk_2_baudrate
 .u_boot_list_2_env_clbk_2_bootfile
                0x00000000c0192810        0x8 net/libnet.o
                0x00000000c0192810                _u_boot_list_2_env_clbk_2_bootfile
 .u_boot_list_2_env_clbk_2_callbacks
                0x00000000c0192818        0x8 common/libcommon.o
                0x00000000c0192818                _u_boot_list_2_env_clbk_2_callbacks
 .u_boot_list_2_env_clbk_2_console
                0x00000000c0192820        0x8 common/libcommon.o
                0x00000000c0192820                _u_boot_list_2_env_clbk_2_console
 .u_boot_list_2_env_clbk_2_console_uart
                0x00000000c0192828        0x8 arch/mips/cpu/octeon/libocteon.o
                0x00000000c0192828                _u_boot_list_2_env_clbk_2_console_uart
 .u_boot_list_2_env_clbk_2_flags
                0x00000000c0192830        0x8 common/libcommon.o
                0x00000000c0192830                _u_boot_list_2_env_clbk_2_flags
 .u_boot_list_2_env_clbk_2_loadaddr
                0x00000000c0192838        0x8 common/libcommon.o
                0x00000000c0192838                _u_boot_list_2_env_clbk_2_loadaddr
 .u_boot_list_2_env_clbk_2_pci_console_active
                0x00000000c0192840        0x8 arch/mips/cpu/octeon/libocteon.o
                0x00000000c0192840                _u_boot_list_2_env_clbk_2_pci_console_active
 .u_boot_list_2_env_clbk_2_silent
                0x00000000c0192848        0x8 common/libcommon.o
                0x00000000c0192848                _u_boot_list_2_env_clbk_2_silent
 .u_boot_list_2_env_clbk_2_watchdog_enable
                0x00000000c0192850        0x8 arch/mips/cpu/octeon/libocteon.o
                0x00000000c0192850                _u_boot_list_2_env_clbk_2_watchdog_enable
 .u_boot_list_2_env_clbk_2_watchdog_timeout
                0x00000000c0192858        0x8 arch/mips/cpu/octeon/libocteon.o
                0x00000000c0192858                _u_boot_list_2_env_clbk_2_watchdog_timeout
 .u_boot_list_2_env_clbk_3
                0x00000000c0192860        0x0 common/libcommon.o
 .u_boot_list_2_i2c_1
                0x00000000c0192860        0x0 common/libcommon.o
 .u_boot_list_2_i2c_1
                0x00000000c0192860        0x0 drivers/i2c/libi2c.o
 .u_boot_list_2_i2c_2_octeon0
                0x00000000c0192860       0x28 drivers/i2c/libi2c.o
                0x00000000c0192860                _u_boot_list_2_i2c_2_octeon0
 .u_boot_list_2_i2c_2_octeon1
                0x00000000c0192888       0x28 drivers/i2c/libi2c.o
                0x00000000c0192888                _u_boot_list_2_i2c_2_octeon1
 .u_boot_list_2_i2c_3
                0x00000000c01928b0        0x0 common/libcommon.o
 .u_boot_list_2_i2c_3
                0x00000000c01928b0        0x0 drivers/i2c/libi2c.o
                0x00000000c01928b0                . = ALIGN (0x8)
                0x00000000c01928b0                uboot_end_data = .
                0x00000000000009bd                num_got_entries = ((__got_end - __got_start) >> 0x2)
                0x00000000c01928b0                . = ALIGN (0x8)

.sbss
 *(.sbss)
 *(.sbss.*)

.bss            0x00000000c0192900   0x1a14a0
 *(.bss)
 *(.bss.*)
 .bss.calls_table
                0x00000000c0192900       0x50 api/libapi.o
 .bss.api_caller_stack
                0x00000000c0192950        0x4 api/libapi.o
 .bss.boot_record_updated
                0x00000000c0192954        0x4 api/libapi.o
 .bss.calls_no  0x00000000c0192958        0x4 api/libapi.o
 *fill*         0x00000000c019295c        0x4 00
 .bss.cvmx_bootmem_desc_addr
                0x00000000c0192960        0x8 arch/mips/cpu/octeon/cvmx/libcvmx.o
 .bss.block_num.139245
                0x00000000c0192968        0x4 arch/mips/cpu/octeon/cvmx/libcvmx.o
 *fill*         0x00000000c019296c        0x4 00
 .bss.desc.138823
                0x00000000c0192970       0x90 arch/mips/cpu/octeon/cvmx/libcvmx.o
 .bss.boot_vector_inited.139607
                0x00000000c0192a00        0x4 arch/mips/cpu/octeon/cvmx/libcvmx.o
 *fill*         0x00000000c0192a04        0x4 00
 .bss.state     0x00000000c0192a08     0x15c0 arch/mips/cpu/octeon/cvmx/libcvmx.o
 .bss.cvmx_fpa1_pool_info
                0x00000000c0193fc8        0x4 arch/mips/cpu/octeon/cvmx/libcvmx.o
 *fill*         0x00000000c0193fcc        0x4 00
 .bss.cvmx_fpa3_pool_info
                0x00000000c0193fd0       0x10 arch/mips/cpu/octeon/cvmx/libcvmx.o
 .bss.cvmx_fpa3_aura_info
                0x00000000c0193fe0       0x10 arch/mips/cpu/octeon/cvmx/libcvmx.o
 .bss.__cvmx_global_resources_addr
                0x00000000c0193ff0        0x8 arch/mips/cpu/octeon/cvmx/libcvmx.o
 .bss.cvmx_override_ipd_port_setup
                0x00000000c0193ff8        0x4 arch/mips/cpu/octeon/cvmx/libcvmx.o
                0x00000000c0193ff8                cvmx_override_ipd_port_setup
 *fill*         0x00000000c0193ffc        0x4 00
 .bss.cvmx_interfaces
                0x00000000c0194000      0x2c0 arch/mips/cpu/octeon/cvmx/libcvmx.o
 .bss.parsed.142253
                0x00000000c01942c0        0x1 arch/mips/cpu/octeon/cvmx/libcvmx.o
 .bss.parsed.142223
                0x00000000c01942c1        0x1 arch/mips/cpu/octeon/cvmx/libcvmx.o
 *fill*         0x00000000c01942c2        0x6 00
 .bss.qlm_base.140313
                0x00000000c01942c8        0x8 arch/mips/cpu/octeon/cvmx/libcvmx.o
 .bss.cvmx_helper_bgx_override_autoneg
                0x00000000c01942d0        0x4 arch/mips/cpu/octeon/cvmx/libcvmx.o
                0x00000000c01942d0                cvmx_helper_bgx_override_autoneg
 .bss.cvmx_helper_bgx_override_fec
                0x00000000c01942d4        0x4 arch/mips/cpu/octeon/cvmx/libcvmx.o
                0x00000000c01942d4                cvmx_helper_bgx_override_fec
 .bss.count.142063
                0x00000000c01942d8     0xb000 arch/mips/cpu/octeon/cvmx/libcvmx.o
 .bss.restart_auto_neg.141649
                0x00000000c019f2d8      0x180 arch/mips/cpu/octeon/cvmx/libcvmx.o
 .bss.count.141874
                0x00000000c019f458     0xb000 arch/mips/cpu/octeon/cvmx/libcvmx.o
 .bss.cvmx_override_board_link_get
                0x00000000c01aa458        0x4 arch/mips/cpu/octeon/cvmx/libcvmx.o
                0x00000000c01aa458                cvmx_override_board_link_get
 *fill*         0x00000000c01aa45c        0x4 00
 .bss.tm_interval.143729
                0x00000000c01aa460        0x8 arch/mips/cpu/octeon/cvmx/libcvmx.o
 .bss.qlm_switch_addr.143294
                0x00000000c01aa468        0x1 arch/mips/cpu/octeon/cvmx/libcvmx.o
 *fill*         0x00000000c01aa469        0x3 00
 .bss.fdt_addr.143152
                0x00000000c01aa46c        0x4 arch/mips/cpu/octeon/cvmx/libcvmx.o
 .bss.fdt_addr.142329
                0x00000000c01aa470        0x4 arch/mips/cpu/octeon/cvmx/libcvmx.o
 .bss.fdt_ports_initialized.143101
                0x00000000c01aa474        0x4 arch/mips/cpu/octeon/cvmx/libcvmx.o
 .bss.parsed.142994
                0x00000000c01aa478        0x1 arch/mips/cpu/octeon/cvmx/libcvmx.o
 *fill*         0x00000000c01aa479        0x3 00
 .bss.fdt_addr.142798
                0x00000000c01aa47c        0x4 arch/mips/cpu/octeon/cvmx/libcvmx.o
 .bss.fdt_addr.142766
                0x00000000c01aa480        0x4 arch/mips/cpu/octeon/cvmx/libcvmx.o
 .bss.port_cfg_data_initialized
                0x00000000c01aa484        0x1 arch/mips/cpu/octeon/cvmx/libcvmx.o
 *fill*         0x00000000c01aa485        0x3 00
 .bss.fdt_addr.144074
                0x00000000c01aa488        0x4 arch/mips/cpu/octeon/cvmx/libcvmx.o
 .bss.queue_range_init
                0x00000000c01aa48c        0x4 arch/mips/cpu/octeon/cvmx/libcvmx.o
 .bss.__cvmx_cfg_pko_highest_queue
                0x00000000c01aa490        0x4 arch/mips/cpu/octeon/cvmx/libcvmx.o
 .bss.cvmx_cfg_max_pko_engines
                0x00000000c01aa494        0x4 arch/mips/cpu/octeon/cvmx/libcvmx.o
 .bss.pki_helper_debug
                0x00000000c01aa498        0x4 arch/mips/cpu/octeon/cvmx/libcvmx.o
 .bss.cvmx_override_pko_queue_priority
                0x00000000c01aa49c        0x4 arch/mips/cpu/octeon/cvmx/libcvmx.o
                0x00000000c01aa49c                cvmx_override_pko_queue_priority
 .bss.pko_fpa_config_count
                0x00000000c01aa4a0        0x8 arch/mips/cpu/octeon/cvmx/libcvmx.o
 .bss.dummy.142277
                0x00000000c01aa4a8       0x80 arch/mips/cpu/octeon/cvmx/libcvmx.o
 .bss.__pko_pkt_budget
                0x00000000c01aa528        0x4 arch/mips/cpu/octeon/cvmx/libcvmx.o
 .bss.__pko_pkt_quota
                0x00000000c01aa52c        0x4 arch/mips/cpu/octeon/cvmx/libcvmx.o
 .bss.__cvmx_pko3_aura
                0x00000000c01aa530       0x20 arch/mips/cpu/octeon/cvmx/libcvmx.o
 .bss.__cvmx_packet_short_ptr
                0x00000000c01aa550       0x20 arch/mips/cpu/octeon/cvmx/libcvmx.o
 .bss.cvmx_ilk_LA_mode
                0x00000000c01aa570       0x10 arch/mips/cpu/octeon/cvmx/libcvmx.o
                0x00000000c01aa570                cvmx_ilk_LA_mode
 .bss.cvmx_ilk_intf_cfg
                0x00000000c01aa580       0x20 arch/mips/cpu/octeon/cvmx/libcvmx.o
 .bss.cvmx_pki_style_refcnt
                0x00000000c01aa5a0     0x1000 arch/mips/cpu/octeon/cvmx/libcvmx.o
 .bss.port_range_init
                0x00000000c01ab5a0        0x4 arch/mips/cpu/octeon/cvmx/libcvmx.o
 *fill*         0x00000000c01ab5a4        0x4 00
 .bss.dummy.142577
                0x00000000c01ab5a8       0x80 arch/mips/cpu/octeon/cvmx/libcvmx.o
 .bss.dummy.142578
                0x00000000c01ab628       0x80 arch/mips/cpu/octeon/cvmx/libcvmx.o
 .bss.xchan_base.142998
                0x00000000c01ab6a8        0x4 arch/mips/cpu/octeon/cvmx/libcvmx.o
 *fill*         0x00000000c01ab6ac        0x4 00
 .bss.interface_is_spi4000
                0x00000000c01ab6b0        0x8 arch/mips/cpu/octeon/cvmx/libcvmx.o
 .bss.phy_status.138756
                0x00000000c01ab6b8       0x28 arch/mips/cpu/octeon/cvmx/libcvmx.o
 .bss.__cvmx_srio_state
                0x00000000c01ab6e0      0x210 arch/mips/cpu/octeon/cvmx/libcvmx.o
 .bss.cvmx_srio_lock
                0x00000000c01ab8f0        0x8 arch/mips/cpu/octeon/cvmx/libcvmx.o
 .bss.configured_pin.140192
                0x00000000c01ab8f8        0x4 arch/mips/cpu/octeon/libocteon.o
 *fill*         0x00000000c01ab8fc        0x4 00
 .bss.buffer.140460
                0x00000000c01ab900        0x8 arch/mips/cpu/octeon/libocteon.o
 .bss.start_core0
                0x00000000c01ab908        0x4 arch/mips/cpu/octeon/libocteon.o
                0x00000000c01ab908                start_core0
 .bss.timestamp
                0x00000000c01ab90c        0x4 arch/mips/cpu/octeon/libocteon.o
 .bss.octeon_pci_big_bar
                0x00000000c01ab910        0x4 arch/mips/cpu/octeon/libocteon.o
                0x00000000c01ab910                octeon_pci_big_bar
 *fill*         0x00000000c01ab914        0x4 00
 .bss.pci_board_config_table
                0x00000000c01ab918       0x50 arch/mips/cpu/octeon/libocteon.o
 .bss.hose_pcie
                0x00000000c01ab968      0x5c0 arch/mips/cpu/octeon/libocteon.o
 .bss.oct_pcie_data
                0x00000000c01abf28       0x10 arch/mips/cpu/octeon/libocteon.o
 .bss.forceboot
                0x00000000c01abf38        0x4 arch/mips/cpu/octeon/libocteon.o
                0x00000000c01abf38                forceboot
 .bss.boot_flags
                0x00000000c01abf3c        0x4 arch/mips/cpu/octeon/libocteon.o
                0x00000000c01abf3c                boot_flags
 .bss.lock.140403
                0x00000000c01abf40        0x8 arch/mips/cpu/octeon/libocteon.o
 .bss.dp_last_swap
                0x00000000c01abf48        0x4 arch/mips/cpu/octeon/libocteon.o
 *fill*         0x00000000c01abf4c        0x4 00
 .bss.dp_last_addr
                0x00000000c01abf50        0x8 arch/mips/cpu/octeon/libocteon.o
 .bss.dp_last_size
                0x00000000c01abf58        0x8 arch/mips/cpu/octeon/libocteon.o
 .bss.mm_last_addr
                0x00000000c01abf60        0x8 arch/mips/cpu/octeon/libocteon.o
 .bss.mm_last_size
                0x00000000c01abf68        0x8 arch/mips/cpu/octeon/libocteon.o
 .bss.initialized.139317
                0x00000000c01abf70        0x4 arch/mips/cpu/octeon/libocteon.o
 .bss.a_clk     0x00000000c01abf74        0x4 arch/mips/cpu/octeon/libocteon.o
                0x00000000c01abf74                a_clk
 .bss.load_reserved_addr
                0x00000000c01abf78        0x4 arch/mips/lib/libmips.o
                0x00000000c01abf78                load_reserved_addr
 .bss.load_reserved_size
                0x00000000c01abf7c        0x4 arch/mips/lib/libmips.o
                0x00000000c01abf7c                load_reserved_size
 .bss.global_mac_info
                0x00000000c01abf80        0x4 arch/mips/lib/libmips.o
 .bss.linux_argc
                0x00000000c01abf84        0x4 arch/mips/lib/libmips.o
 .bss.linux_argv
                0x00000000c01abf88        0x4 arch/mips/lib/libmips.o
 .bss.linux_env
                0x00000000c01abf8c        0x4 arch/mips/lib/libmips.o
 .bss.linux_env_p
                0x00000000c01abf90        0x4 arch/mips/lib/libmips.o
 .bss.linux_env_idx
                0x00000000c01abf94        0x4 arch/mips/lib/libmips.o
 .bss.bootbus_handlers
                0x00000000c01abf98       0x18 board/octeon/common/libocteon.o
 .bss.data.138997
                0x00000000c01abfb0      0x400 common/libcommon.o
 .bss.i2c_dp_last_chip
                0x00000000c01ac3b0        0x1 common/libcommon.o
 *fill*         0x00000000c01ac3b1        0x3 00
 .bss.i2c_dp_last_addr
                0x00000000c01ac3b4        0x4 common/libcommon.o
 .bss.i2c_dp_last_alen
                0x00000000c01ac3b8        0x4 common/libcommon.o
 .bss.i2c_mm_last_chip
                0x00000000c01ac3bc        0x1 common/libcommon.o
 *fill*         0x00000000c01ac3bd        0x3 00
 .bss.i2c_mm_last_addr
                0x00000000c01ac3c0        0x4 common/libcommon.o
 .bss.i2c_mm_last_alen
                0x00000000c01ac3c4        0x4 common/libcommon.o
 .bss.his_eol   0x00000000c01ac3c8        0x1 common/libcommon.o
 *fill*         0x00000000c01ac3c9        0x3 00
 .bss.his_pad_count
                0x00000000c01ac3cc        0x4 common/libcommon.o
 .bss.his_pad_char
                0x00000000c01ac3d0        0x1 common/libcommon.o
 .bss.his_quote
                0x00000000c01ac3d1        0x1 common/libcommon.o
 *fill*         0x00000000c01ac3d2        0x6 00
 .bss.a_b       0x00000000c01ac3d8       0x18 common/libcommon.o
 .bss.os_data_init
                0x00000000c01ac3f0        0x4 common/libcommon.o
 .bss.os_data_char
                0x00000000c01ac3f4        0x4 common/libcommon.o
 .bss.os_data_state
                0x00000000c01ac3f8        0x4 common/libcommon.o
 .bss.os_data_state_saved
                0x00000000c01ac3fc        0x4 common/libcommon.o
 .bss.os_data_addr
                0x00000000c01ac400        0x4 common/libcommon.o
 .bss.os_data_addr_saved
                0x00000000c01ac404        0x4 common/libcommon.o
 .bss.bin_start_address
                0x00000000c01ac408        0x4 common/libcommon.o
 .bss.k_data_escape
                0x00000000c01ac40c        0x4 common/libcommon.o
 .bss.k_data_escape_saved
                0x00000000c01ac410        0x4 common/libcommon.o
 *fill*         0x00000000c01ac414        0x4 00
 .bss.send_parms
                0x00000000c01ac418       0x18 common/libcommon.o
 .bss.send_ptr  0x00000000c01ac430        0x4 common/libcommon.o
 *fill*         0x00000000c01ac434        0x4 00
 .bss.last_op   0x00000000c01ac438       0x10 common/libcommon.o
 .bss.last_data
                0x00000000c01ac448        0x8 common/libcommon.o
 .bss.last_addr_lo
                0x00000000c01ac450        0x8 common/libcommon.o
 .bss.last_addr_hi
                0x00000000c01ac458        0x8 common/libcommon.o
 .bss.last_devad_lo
                0x00000000c01ac460        0x4 common/libcommon.o
 .bss.last_devad_hi
                0x00000000c01ac464        0x4 common/libcommon.o
 .bss.last_reg_lo
                0x00000000c01ac468        0x8 common/libcommon.o
 .bss.last_reg_hi
                0x00000000c01ac470        0x8 common/libcommon.o
 .bss.base_address
                0x00000000c01ac478        0x4 common/libcommon.o
 .bss.dp_last_addr
                0x00000000c01ac47c        0x4 common/libcommon.o
 .bss.dp_last_size
                0x00000000c01ac480        0x4 common/libcommon.o
 .bss.mm_last_addr
                0x00000000c01ac484        0x4 common/libcommon.o
 .bss.mm_last_size
                0x00000000c01ac488        0x4 common/libcommon.o
 .bss.flash     0x00000000c01ac48c        0x4 common/libcommon.o
 .bss.bus       0x00000000c01ac490        0x4 common/libcommon.o
 .bss.cs        0x00000000c01ac494        0x4 common/libcommon.o
 .bss.mode      0x00000000c01ac498        0x4 common/libcommon.o
 .bss.bitlen    0x00000000c01ac49c        0x4 common/libcommon.o
 .bss.dout      0x00000000c01ac4a0       0x20 common/libcommon.o
 .bss.din       0x00000000c01ac4c0       0x20 common/libcommon.o
 .bss.tmp_buf.5637
                0x00000000c01ac4e0      0x200 common/libcommon.o
 .bss.tmp_buf   0x00000000c01ac6e0      0x400 common/libcommon.o
 .bss.ctrlc_was_pressed
                0x00000000c01acae0        0x4 common/libcommon.o
 .bss.ctrlc_disabled
                0x00000000c01acae4        0x4 common/libcommon.o
 .bss.tstcdev   0x00000000c01acae8        0x4 common/libcommon.o
 .bss.mem_malloc_start
                0x00000000c01acaec        0x4 common/libcommon.o
                0x00000000c01acaec                mem_malloc_start
 .bss.mem_malloc_end
                0x00000000c01acaf0        0x4 common/libcommon.o
                0x00000000c01acaf0                mem_malloc_end
 .bss.mem_malloc_brk
                0x00000000c01acaf4        0x4 common/libcommon.o
                0x00000000c01acaf4                mem_malloc_brk
 .bss.top_pad   0x00000000c01acaf8        0x4 common/libcommon.o
 *fill*         0x00000000c01acafc        0x4 00
 .bss.current_mallinfo
                0x00000000c01acb00       0x28 common/libcommon.o
 .bss.max_sbrked_mem
                0x00000000c01acb28        0x4 common/libcommon.o
 .bss.max_total_mem
                0x00000000c01acb2c        0x4 common/libcommon.o
 .bss.env_flash
                0x00000000c01acb30        0x4 common/libcommon.o
 .bss.initted.139589
                0x00000000c01acb34        0x4 common/libcommon.o
 .bss.lastcommand.139360
                0x00000000c01acb38      0x400 common/libcommon.o
 .bss.hist_max  0x00000000c01acf38        0x4 common/libcommon.o
 .bss.hist_add_idx
                0x00000000c01acf3c        0x4 common/libcommon.o
 .bss.hist_num  0x00000000c01acf40        0x4 common/libcommon.o
 *fill*         0x00000000c01acf44        0x4 00
 .bss.hist_list
                0x00000000c01acf48       0x50 common/libcommon.o
 .bss.hist_lines
                0x00000000c01acf98     0x5018 common/libcommon.o
 .bss.mii_devs  0x00000000c01b1fb0        0x8 common/libcommon.o
 .bss.current_mii
                0x00000000c01b1fb8        0x4 common/libcommon.o
 *fill*         0x00000000c01b1fbc        0x4 00
 .bss.stdio_devices
                0x00000000c01b1fc0       0x10 common/libcommon.o
                0x00000000c01b1fc0                stdio_devices
 .bss.devs      0x00000000c01b1fd0       0x40 common/libcommon.o
 .bss.usb_controller_initialized
                0x00000000c01b2010        0x8 common/libcommon.o
 *fill*         0x00000000c01b2018       0x68 00
 .bss.usb_dev   0x00000000c01b2080    0x13000 common/libcommon.o
 .bss.dev_index
                0x00000000c01c5080        0x4 common/libcommon.o
 .bss.asynch_allowed
                0x00000000c01c5084        0x4 common/libcommon.o
 .bss.hub_dev   0x00000000c01c5088      0x100 common/libcommon.o
 .bss.usb_hub_index
                0x00000000c01c5188        0x4 common/libcommon.o
 .bss.bounce_buffer
                0x00000000c01c518c        0x4 common/libcommon.o
 *fill*         0x00000000c01c5190       0x70 00
 .bss.usb_ccb   0x00000000c01c5200      0x100 common/libcommon.o
 .bss.CBWTag    0x00000000c01c5300        0x4 common/libcommon.o
 .bss.usb_max_devs
                0x00000000c01c5304        0x4 common/libcommon.o
 .bss.usb_dev_desc
                0x00000000c01c5308      0x248 common/libcommon.o
 .bss.usb_stor  0x00000000c01c5550      0x108 common/libcommon.o
 .bss.xyz       0x00000000c01c5658      0x438 common/libcommon.o
 .bss.name.5801
                0x00000000c01c5a90       0x28 disk/libdisk.o
 .bss.ata_dummy_port_ops
                0x00000000c01c5ab8       0x58 drivers/block/libblock.o
                0x00000000c01c5ab8                ata_dummy_port_ops
 .bss.ahci_last_port_idx
                0x00000000c01c5b10        0x4 drivers/block/libblock.o
                0x00000000c01c5b10                ahci_last_port_idx
 .bss.ahci_last_device_idx
                0x00000000c01c5b14        0x4 drivers/block/libblock.o
                0x00000000c01c5b14                ahci_last_device_idx
 .bss.initted.142179
                0x00000000c01c5b18        0x1 drivers/block/libblock.o
 *fill*         0x00000000c01c5b19        0x7 00
 .bss.port_info
                0x00000000c01c5b20       0x28 drivers/block/libblock.o
 .bss.bus.5827  0x00000000c01c5b48        0x1 drivers/gpio/libgpio.o
 *fill*         0x00000000c01c5b49        0x7 00
 .bss.twsi_stop_delay
                0x00000000c01c5b50        0x8 drivers/i2c/libi2c.o
 .bss.reset_method.139291
                0x00000000c01c5b58        0x1 drivers/i2c/libi2c.o
 *fill*         0x00000000c01c5b59        0x3 00
 .bss.net_loop_last_protocol
                0x00000000c01c5b5c        0x4 drivers/net/libnet.o
                0x00000000c01c5b5c                net_loop_last_protocol
 .bss.env_changed_id.5552
                0x00000000c01c5b60        0x4 drivers/net/libnet.o
 .bss.env_changed_id.5532
                0x00000000c01c5b64        0x4 drivers/net/libnet.o
 .bss.our_ip.5531
                0x00000000c01c5b68        0x4 drivers/net/libnet.o
 .bss.netmask.5530
                0x00000000c01c5b6c        0x4 drivers/net/libnet.o
 .bss.input_buffer
                0x00000000c01c5b70      0x200 drivers/net/libnet.o
 .bss.input_size
                0x00000000c01c5d70        0x4 drivers/net/libnet.o
 .bss.input_offset
                0x00000000c01c5d74        0x4 drivers/net/libnet.o
 .bss.input_recursion
                0x00000000c01c5d78        0x4 drivers/net/libnet.o
 .bss.output_recursion
                0x00000000c01c5d7c        0x4 drivers/net/libnet.o
 .bss.net_timeout
                0x00000000c01c5d80        0x4 drivers/net/libnet.o
 *fill*         0x00000000c01c5d84        0x4 00
 .bss.nc_ether  0x00000000c01c5d88        0x8 drivers/net/libnet.o
 .bss.nc_ip     0x00000000c01c5d90        0x4 drivers/net/libnet.o
 .bss.nc_out_port
                0x00000000c01c5d94        0x2 drivers/net/libnet.o
 .bss.nc_in_port
                0x00000000c01c5d96        0x2 drivers/net/libnet.o
 .bss.output_packet
                0x00000000c01c5d98        0x4 drivers/net/libnet.o
 .bss.output_packet_len
                0x00000000c01c5d9c        0x4 drivers/net/libnet.o
 .bss.octeon_global_hw_inited
                0x00000000c01c5da0        0x4 drivers/net/libnet.o
                0x00000000c01c5da0                octeon_global_hw_inited
 .bss.packet_rx_debug
                0x00000000c01c5da4        0x4 drivers/net/libnet.o
 .bss.packet_tx_debug
                0x00000000c01c5da8        0x4 drivers/net/libnet.o
 .bss.agl_number
                0x00000000c01c5dac        0x4 drivers/net/libnet.o
 .bss.alloc_count.149029
                0x00000000c01c5db0        0x4 drivers/net/libnet.o
 .bss.card_number
                0x00000000c01c5db4        0x4 drivers/net/libnet.o
 .bss.mac_addr  0x00000000c01c5db8        0x8 drivers/net/libnet.o
 .bss.hose_head
                0x00000000c01c5dc0        0x4 drivers/pci/libpci.o
 .bss.serial_devices
                0x00000000c01c5dc4        0x4 drivers/serial/libserial.o
 .bss.serial_current
                0x00000000c01c5dc8        0x4 drivers/serial/libserial.o
 .bss.vendor_dev_id
                0x00000000c01c5dcc        0x4 drivers/tpm/libtpm.o
 .bss.octeon_xhci_csr_timeout
                0x00000000c01c5dd0        0x4 drivers/usb/host/libusb_host.o
                0x00000000c01c5dd0                octeon_xhci_csr_timeout
 *fill*         0x00000000c01c5dd4       0x2c 00
 .bss.xhcic     0x00000000c01c5e00      0xa00 drivers/usb/host/libusb_host.o
 .bss.octeon_xhci_reset_needed
                0x00000000c01c6800        0x1 drivers/usb/host/libusb_host.o
                0x00000000c01c6800                octeon_xhci_reset_needed
 *fill*         0x00000000c01c6801        0x7 00
 .bss.octeon_xhci
                0x00000000c01c6808      0x1a0 drivers/usb/host/libusb_host.o
 .bss.cur_dev   0x00000000c01c69a8        0x4 fs/fat/libfat.o
 *fill*         0x00000000c01c69ac        0x4 00
 .bss.cur_part_info
                0x00000000c01c69b0       0x78 fs/fat/libfat.o
 .bss.total_sector
                0x00000000c01c6a28        0x4 fs/fat/libfat.o
 .bss.num_of_fats
                0x00000000c01c6a2c        0x1 fs/fat/libfat.o
 *fill*         0x00000000c01c6a2d        0x3 00
 .bss.dir_curclust
                0x00000000c01c6a30        0x4 fs/fat/libfat.o
 .bss.empty_dentptr
                0x00000000c01c6a34        0x4 fs/fat/libfat.o
 .bss.fs_type   0x00000000c01c6a38        0x4 fs/libfs.o
 .bss.fs_dev_desc
                0x00000000c01c6a3c        0x4 fs/libfs.o
 .bss.fs_partition
                0x00000000c01c6a40       0x78 fs/libfs.o
 .bss.address_map
                0x00000000c01c6ab8       0xc0 lib/libgeneric.o
 .bss.errno     0x00000000c01c6b78        0x4 lib/libgeneric.o
                0x00000000c01c6b78                errno
 *fill*         0x00000000c01c6b7c        0x4 00
 .bss.local.6177
                0x00000000c01c6b80       0x18 lib/libgeneric.o
 .bss.NetArpWaitReplyIP
                0x00000000c01c6b98        0x4 net/libnet.o
 .bss.NetArpTxPacket
                0x00000000c01c6b9c        0x4 net/libnet.o
 .bss.NetArpPacketBuf
                0x00000000c01c6ba0      0x680 net/libnet.o
 .bss.dhcp_state
                0x00000000c01c7220        0x4 net/libnet.o
 .bss.dhcp_leasetime
                0x00000000c01c7224        0x4 net/libnet.o
 .bss.NetDHCPServerIP
                0x00000000c01c7228        0x4 net/libnet.o
 .bss.CDPSeq    0x00000000c01c722c        0x4 net/libnet.o
 .bss.CDPOK     0x00000000c01c7230        0x4 net/libnet.o
 .bss.DnsOurPort
                0x00000000c01c7234        0x4 net/libnet.o
 .bss.env_changed_id.6266
                0x00000000c01c7238        0x4 net/libnet.o
 .bss.act.6265  0x00000000c01c723c        0x4 net/libnet.o
 .bss.first_failed.6255
                0x00000000c01c7240        0x4 net/libnet.o
 .bss.eth_rcv_current
                0x00000000c01c7244        0x4 net/libnet.o
 .bss.eth_rcv_last
                0x00000000c01c7248        0x4 net/libnet.o
 .bss.index.6118
                0x00000000c01c724c        0x4 net/libnet.o
 .bss.eth_rcv_bufs
                0x00000000c01c7250     0x17d0 net/libnet.o
 .bss.eth_devices
                0x00000000c01c8a20        0x4 net/libnet.o
 *fill*         0x00000000c01c8a24        0x4 00
 .bss.NetOurNISDomain
                0x00000000c01c8a28       0x20 net/libnet.o
                0x00000000c01c8a28                NetOurNISDomain
 .bss.NetOurHostName
                0x00000000c01c8a48       0x20 net/libnet.o
                0x00000000c01c8a48                NetOurHostName
 .bss.NetOurRootPath
                0x00000000c01c8a68       0x40 net/libnet.o
                0x00000000c01c8a68                NetOurRootPath
 .bss.push_packet
                0x00000000c01c8aa8        0x4 net/libnet.o
                0x00000000c01c8aa8                push_packet
 .bss.total_len.6001
                0x00000000c01c8aac        0x2 net/libnet.o
 .bss.first_hole.6000
                0x00000000c01c8aae        0x2 net/libnet.o
 *fill*         0x00000000c01c8ab0       0x50 00
 .bss.pkt_buff.5999
                0x00000000c01c8b00     0x4080 net/libnet.o
 .bss.env_changed_id.5823
                0x00000000c01ccb80        0x4 net/libnet.o
 .bss.NetRestarted
                0x00000000c01ccb84        0x4 net/libnet.o
 .bss.NetDevExists
                0x00000000c01ccb88        0x4 net/libnet.o
 *fill*         0x00000000c01ccb8c        0x4 00
 .bss.PktBuf    0x00000000c01ccb90     0x1e80 net/libnet.o
 .bss.udp_packet_handler
                0x00000000c01cea10        0x4 net/libnet.o
 .bss.arp_packet_handler
                0x00000000c01cea14        0x4 net/libnet.o
 .bss.packet_icmp_handler
                0x00000000c01cea18        0x4 net/libnet.o
 .bss.timeHandler
                0x00000000c01cea1c        0x4 net/libnet.o
 .bss.timeStart
                0x00000000c01cea20        0x4 net/libnet.o
 .bss.timeDelta
                0x00000000c01cea24        0x4 net/libnet.o
 .bss.NetTryCount
                0x00000000c01cea28        0x4 net/libnet.o
 .bss.fs_mounted
                0x00000000c01cea2c        0x4 net/libnet.o
 .bss.rpc_id    0x00000000c01cea30        0x4 net/libnet.o
 .bss.nfs_len   0x00000000c01cea34        0x4 net/libnet.o
 .bss.dirfh     0x00000000c01cea38       0x20 net/libnet.o
 .bss.filefh    0x00000000c01cea58       0x20 net/libnet.o
 .bss.nfs_download_state
                0x00000000c01cea78        0x4 net/libnet.o
 .bss.NfsServerIP
                0x00000000c01cea7c        0x4 net/libnet.o
 .bss.NfsSrvMountPort
                0x00000000c01cea80        0x4 net/libnet.o
 .bss.NfsSrvNfsPort
                0x00000000c01cea84        0x4 net/libnet.o
 .bss.NfsOurPort
                0x00000000c01cea88        0x4 net/libnet.o
 .bss.NfsTimeoutCount
                0x00000000c01cea8c        0x4 net/libnet.o
 .bss.NfsState  0x00000000c01cea90        0x4 net/libnet.o
 *fill*         0x00000000c01cea94        0x4 00
 .bss.default_filename
                0x00000000c01cea98       0x50 net/libnet.o
 .bss.nfs_filename
                0x00000000c01ceae8        0x4 net/libnet.o
 .bss.nfs_path  0x00000000c01ceaec        0x4 net/libnet.o
 .bss.nfs_path_buff
                0x00000000c01ceaf0      0x800 net/libnet.o
 .bss.PingSeqNo
                0x00000000c01cf2f0        0x2 net/libnet.o
 *fill*         0x00000000c01cf2f2        0x2 00
 .bss.time_start
                0x00000000c01cf2f4        0x4 net/libnet.o
 .bss.TftpRemoteIP
                0x00000000c01cf2f8        0x4 net/libnet.o
 .bss.TftpRemotePort
                0x00000000c01cf2fc        0x4 net/libnet.o
 .bss.TftpOurPort
                0x00000000c01cf300        0x4 net/libnet.o
 .bss.TftpTimeoutCount
                0x00000000c01cf304        0x4 net/libnet.o
 .bss.TftpBlock
                0x00000000c01cf308        0x4 net/libnet.o
 .bss.TftpLastBlock
                0x00000000c01cf30c        0x4 net/libnet.o
 .bss.TftpBlockWrap
                0x00000000c01cf310        0x4 net/libnet.o
 .bss.TftpBlockWrapOffset
                0x00000000c01cf314        0x4 net/libnet.o
 .bss.TftpState
                0x00000000c01cf318        0x4 net/libnet.o
 .bss.TftpTsize
                0x00000000c01cf31c        0x4 net/libnet.o
 .bss.TftpNumchars
                0x00000000c01cf320        0x2 net/libnet.o
 *fill*         0x00000000c01cf322        0x2 00
 .bss.TftpWriting
                0x00000000c01cf324        0x4 net/libnet.o
 .bss.TftpFinalBlock
                0x00000000c01cf328        0x4 net/libnet.o
 *fill*         0x00000000c01cf32c        0x4 00
 .bss.tftp_filename
                0x00000000c01cf330       0x80 net/libnet.o
 .bss.ethact_init
                0x00000000c01cf3b0        0x4 board/juniper/srx_siege/libsrx_siege.o
                0x00000000c01cf3b0                ethact_init
 *fill*         0x00000000c01cf3b4        0x4 00
 .bss.no_phy    0x00000000c01cf3b8       0x20 board/juniper/srx_siege/libsrx_siege.o
                0x00000000c01cf3b8                no_phy
 .bss.siege_spi_flash
                0x00000000c01cf3d8        0x4 board/juniper/srx_siege/libsrx_siege.o
 *fill*         0x00000000c01cf3dc        0x4 00
 .bss.response.139886
                0x00000000c01cf3e0      0x100 board/juniper/srx_siege/libsrx_siege.o
 .bss.response.139907
                0x00000000c01cf4e0      0x100 board/juniper/srx_siege/libsrx_siege.o
 .bss.ushell_running
                0x00000000c01cf5e0        0x4 board/juniper/srx_siege/libsrx_siege.o
                0x00000000c01cf5e0                ushell_running
 .bss.p_siege_dev_map
                0x00000000c01cf5e4        0x4 board/juniper/srx_siege/libsrx_siege.o
 .bss.siege_wtd_status
                0x00000000c01cf5e8        0x4 board/juniper/srx_siege/libsrx_siege.o
 .bss.platform_default_bootlist
                0x00000000c01cf5ec        0x4 board/juniper/srx_siege/libsrx_siege.o
 .bss.platform_name
                0x00000000c01cf5f0        0x4 board/juniper/srx_siege/libsrx_siege.o
 .bss.bootseq_sector_start_offset
                0x00000000c01cf5f4        0x4 board/juniper/srx_siege/libsrx_siege.o
 .bss.bootseq_sector_len
                0x00000000c01cf5f8        0x4 board/juniper/srx_siege/libsrx_siege.o
 .bss.num_bootable_media
                0x00000000c01cf5fc        0x4 board/juniper/srx_siege/libsrx_siege.o
 COMMON         0x00000000c01cf600    0x79c1c arch/mips/cpu/octeon/cvmx/libcvmx.o
                0x00000000c01cf600                pki_dflt_qpg
                0x00000000c01cf670                __cvmx_pko3_dq_table
                0x00000000c01cf674                __cvmx_qlm_jtag_xor_ref
                0x00000000c01cf678                cvmx_l2c_vrt_spinlock
                0x00000000c01cf680                lock
                0x00000000c01cf688                cvmx_fau_register_type
                0x00000000c01cfe88                pki_dflt_sso_grp
                0x00000000c01cff08                cvmx_l2c_spinlock
                0x00000000c01cff10                iface_node_ops
                0x00000000c01cffc0                qos_watcher
                0x00000000c01d0060                cvmx_app_id
                0x00000000c01d0068                cvmx_export_app_config
                0x00000000c01d0080                octeon_feature_map
                0x00000000c01d0100                pcpu_cfg_blk
                0x00000000c01d0108                cvmx_cfg_port
                0x00000000c0249108                cvmx_npi_max_pknds
                0x00000000c024910c                cvmx_enable_helper_flag
                0x00000000c0249110                octeon_attr_map
                0x00000000c0249118                cvmx_override_iface_phy_mode
                0x00000000c0249120                __cvmx_pko_queue_static_config
                0x00000000c0249140                cvmx_fau_regs_ptr
                0x00000000c0249148                __cvmx_cmd_queue_state_ptrs
                0x00000000c0249158                pki_dflt_pkind
                0x00000000c02491f8                __cvmx_pko3_dq_params
                0x00000000c0249208                pcie_link_initialized
                0x00000000c0249218                octeon_boot_descriptor_flag
 *fill*         0x00000000c024921c        0x4 00
 COMMON         0x00000000c0249220    0xba200 arch/mips/cpu/octeon/libocteon.o
                0x00000000c0249220                cvmx_bootinfo_array
                0x00000000c0291220                boot_desc
                0x00000000c02f5220                boot_cycle_adjustment
                0x00000000c02f5228                hose0
                0x00000000c02f5398                boot_info_block_array
                0x00000000c0303398                octeon_remote_pcie_eeprom
                0x00000000c03033a0                coremask_to_run
 COMMON         0x00000000c0303420        0x4 arch/mips/lib/libmips.o
                0x00000000c0303420                monitor_flash_len
 *fill*         0x00000000c0303424        0x4 00
 COMMON         0x00000000c0303428      0x750 common/libcommon.o
                0x00000000c0303428                console_buffer
                0x00000000c0303829                usb_started
                0x00000000c030382c                save_addr
                0x00000000c0303830                cd_count
                0x00000000c0303840                images
                0x00000000c0303a38                uboot_prompt
                0x00000000c0303a78                working_fdt
                0x00000000c0303a7c                save_size
                0x00000000c0303a80                console_devices
                0x00000000c0303a90                sata_dev_desc
 COMMON         0x00000000c0303b78       0xa0 drivers/block/libblock.o
                0x00000000c0303b78                sata_device_desc
                0x00000000c0303b80                ataid
                0x00000000c0303c00                sata_host_desc
                0x00000000c0303c08                sata_pmp_link
                0x00000000c0303c10                sata_port_desc
 *fill*         0x00000000c0303c18       0x68 00
 COMMON         0x00000000c0303c80    0x30000 fs/fat/libfat.o
                0x00000000c0303c80                do_fat_read_at_block
                0x00000000c0313c80                get_dentfromdir_block
                0x00000000c0323c80                get_contents_vfatname_block
 COMMON         0x00000000c0333c80        0x4 lib/libgeneric.o
                0x00000000c0333c80                ___strtok
 *fill*         0x00000000c0333c84        0x4 00
 COMMON         0x00000000c0333c88      0x118 net/libnet.o
                0x00000000c0333c88                NetDNSenvvar
                0x00000000c0333c8c                CDPApplianceVLAN
                0x00000000c0333c90                NetArpWaitTry
                0x00000000c0333c94                NetArpWaitPacketMAC
                0x00000000c0333c98                NetOurEther
                0x00000000c0333ca0                NetOurIP
                0x00000000c0333ca4                NetPingIP
                0x00000000c0333ca8                NetServerIP
                0x00000000c0333cac                NetArpWaitTxPacketSize
                0x00000000c0333cb0                NetRxPackets
                0x00000000c0333cc0                NetArpWaitPacketIP
                0x00000000c0333cc4                BootpTry
                0x00000000c0333cc8                BootFile
                0x00000000c0333d48                eth_current
                0x00000000c0333d4c                NetDNSResolve
                0x00000000c0333d50                NetServerEther
                0x00000000c0333d58                NetOurSubnetMask
                0x00000000c0333d5c                NetBootFileSize
                0x00000000c0333d60                net_busy_flag
                0x00000000c0333d64                NetIPID
                0x00000000c0333d68                NetRxPacket
                0x00000000c0333d6c                net_state
                0x00000000c0333d70                BootpID
                0x00000000c0333d74                CDPNativeVLAN
                0x00000000c0333d78                NetOurDNS2IP
                0x00000000c0333d7c                NetOurGatewayIP
                0x00000000c0333d80                NetEtherNullAddr
                0x00000000c0333d88                NetRestartWrap
                0x00000000c0333d8c                NetTxPacket
                0x00000000c0333d90                NetBootFileXferSize
                0x00000000c0333d94                NetOurDNSIP
                0x00000000c0333d98                NetRxPacketLen
                0x00000000c0333d9c                NetArpWaitTimerStart

.rel.dyn        0x00000000c0333da0        0x0
 .rel.dyn       0x0000000000000000        0x0 arch/mips/cpu/octeon/start.o

.scommon
 *(.scommon)
 *(.scommon.*)

.cvmx_shared_bss
 *(.cvmx_shared_bss)
 *(.cvmx_shared_bss.*)
                0x0000000000000000                . = ALIGN (0x8)
                0x0000000000000000                uboot_end = .

.debug
 *(.debug)

.line
 *(.line)

.debug_srcinfo
 *(.debug_srcinfo)

.debug_sfnames
 *(.debug_sfnames)

.debug_aranges  0x0000000000000000     0x76d0
 *(.debug_aranges)
 .debug_aranges
                0x0000000000000000       0x20 arch/mips/cpu/octeon/start.o
 .debug_aranges
                0x0000000000000020      0x1e0 api/libapi.o
 .debug_aranges
                0x0000000000000200     0x2370 arch/mips/cpu/octeon/cvmx/libcvmx.o
 .debug_aranges
                0x0000000000002570      0xfb0 arch/mips/cpu/octeon/libocteon.o
 .debug_aranges
                0x0000000000003520      0x128 arch/mips/lib/libmips.o
 .debug_aranges
                0x0000000000003648       0x48 board/juniper/common/libjuniper.o
 .debug_aranges
                0x0000000000003690      0x210 board/octeon/common/libocteon.o
 .debug_aranges
                0x00000000000038a0     0x14c8 common/libcommon.o
 .debug_aranges
                0x0000000000004d68      0x130 disk/libdisk.o
 .debug_aranges
                0x0000000000004e98      0x420 drivers/block/libblock.o
 .debug_aranges
                0x00000000000052b8       0xb8 drivers/gpio/libgpio.o
 .debug_aranges
                0x0000000000005370      0x190 drivers/i2c/libi2c.o
 .debug_aranges
                0x0000000000005500       0xa8 drivers/input/libinput.o
 .debug_aranges
                0x00000000000055a8       0xe0 drivers/mtd/spi/libspi_flash.o
 .debug_aranges
                0x0000000000005688      0x1c8 drivers/net/libnet.o
 .debug_aranges
                0x0000000000005850      0x168 drivers/net/phy/libphy.o
 .debug_aranges
                0x00000000000059b8      0x218 drivers/pci/libpci.o
 .debug_aranges
                0x0000000000005bd0       0x38 drivers/rtc/librtc.o
 .debug_aranges
                0x0000000000005c08      0x118 drivers/serial/libserial.o
 .debug_aranges
                0x0000000000005d20       0xb0 drivers/spi/libspi.o
 .debug_aranges
                0x0000000000005dd0      0x130 drivers/tpm/libtpm.o
 .debug_aranges
                0x0000000000005f00      0x288 drivers/usb/host/libusb_host.o
 .debug_aranges
                0x0000000000006188      0x170 fs/fat/libfat.o
 .debug_aranges
                0x00000000000062f8       0xa8 fs/libfs.o
 .debug_aranges
                0x00000000000063a0      0x328 lib/libfdt/libfdt.o
 .debug_aranges
                0x00000000000066c8      0x638 lib/libgeneric.o
 .debug_aranges
                0x0000000000006d00       0x70 lib/zlib/libz.o
 .debug_aranges
                0x0000000000006d70      0x418 net/libnet.o
 .debug_aranges
                0x0000000000007188      0x470 board/juniper/srx_siege/libsrx_siege.o
 .debug_aranges
                0x00000000000075f8       0x20 /homes/markli/u-boot-siege-git/u-boot/gcc_depends/n32/libgcc.a(_ffssi2.o)
 .debug_aranges
                0x0000000000007618       0x18 /homes/markli/u-boot-siege-git/u-boot/gcc_depends/n32/libgcc.a(_clz.o)
 .debug_aranges
                0x0000000000007630       0x20 /homes/markli/u-boot-siege-git/u-boot/gcc_depends/n32/libgcc.a(_ctzsi2.o)
 .debug_aranges
                0x0000000000007650       0x20 /homes/markli/u-boot-siege-git/u-boot/gcc_depends/n32/libgcc.a(_sf_to_df.o)
 .debug_aranges
                0x0000000000007670       0x20 /homes/markli/u-boot-siege-git/u-boot/gcc_depends/n32/libgcc.a(_make_df.o)
 .debug_aranges
                0x0000000000007690       0x20 /homes/markli/u-boot-siege-git/u-boot/gcc_depends/n32/libgcc.a(_unpack_sf.o)
 .debug_aranges
                0x00000000000076b0       0x20 /homes/markli/u-boot-siege-git/u-boot/gcc_depends/n32/libgcc.a(_pack_df.o)

.debug_pubnames
                0x0000000000000000    0x1067a
 *(.debug_pubnames)
 .debug_pubnames
                0x0000000000000000      0x1c0 api/libapi.o
 .debug_pubnames
                0x00000000000001c0     0x68d8 arch/mips/cpu/octeon/cvmx/libcvmx.o
 .debug_pubnames
                0x0000000000006a98     0x23a9 arch/mips/cpu/octeon/libocteon.o
 .debug_pubnames
                0x0000000000008e41      0x2d0 arch/mips/lib/libmips.o
 .debug_pubnames
                0x0000000000009111       0xc9 board/juniper/common/libjuniper.o
 .debug_pubnames
                0x00000000000091da      0x5b9 board/octeon/common/libocteon.o
 .debug_pubnames
                0x0000000000009793     0x2363 common/libcommon.o
 .debug_pubnames
                0x000000000000baf6      0x187 disk/libdisk.o
 .debug_pubnames
                0x000000000000bc7d      0x970 drivers/block/libblock.o
 .debug_pubnames
                0x000000000000c5ed      0x149 drivers/gpio/libgpio.o
 .debug_pubnames
                0x000000000000c736      0x284 drivers/i2c/libi2c.o
 .debug_pubnames
                0x000000000000c9ba       0xef drivers/input/libinput.o
 .debug_pubnames
                0x000000000000caa9      0x19a drivers/mtd/spi/libspi_flash.o
 .debug_pubnames
                0x000000000000cc43      0x362 drivers/net/libnet.o
 .debug_pubnames
                0x000000000000cfa5      0x200 drivers/net/phy/libphy.o
 .debug_pubnames
                0x000000000000d1a5      0x535 drivers/pci/libpci.o
 .debug_pubnames
                0x000000000000d6da       0x38 drivers/rtc/librtc.o
 .debug_pubnames
                0x000000000000d712      0x1e7 drivers/serial/libserial.o
 .debug_pubnames
                0x000000000000d8f9      0x10a drivers/spi/libspi.o
 .debug_pubnames
                0x000000000000da03      0x26c drivers/tpm/libtpm.o
 .debug_pubnames
                0x000000000000dc6f      0x439 drivers/usb/host/libusb_host.o
 .debug_pubnames
                0x000000000000e0a8      0x1ad fs/fat/libfat.o
 .debug_pubnames
                0x000000000000e255       0x8f fs/libfs.o
 .debug_pubnames
                0x000000000000e2e4      0x5d1 lib/libfdt/libfdt.o
 .debug_pubnames
                0x000000000000e8b5      0x91e lib/libgeneric.o
 .debug_pubnames
                0x000000000000f1d3       0xb4 lib/zlib/libz.o
 .debug_pubnames
                0x000000000000f287      0x819 net/libnet.o
 .debug_pubnames
                0x000000000000faa0      0xbda board/juniper/srx_siege/libsrx_siege.o

.debug_info     0x0000000000000000   0x259ff7
 *(.debug_info .gnu.linkonce.wi.*)
 .debug_info    0x0000000000000000       0x6c arch/mips/cpu/octeon/start.o
 .debug_info    0x000000000000006c     0x41e7 api/libapi.o
 .debug_info    0x0000000000004253   0x128f6e arch/mips/cpu/octeon/cvmx/libcvmx.o
 .debug_info    0x000000000012d1c1    0x6c610 arch/mips/cpu/octeon/libocteon.o
 .debug_info    0x00000000001997d1     0x551a arch/mips/lib/libmips.o
 .debug_info    0x000000000019eceb      0xf44 board/juniper/common/libjuniper.o
 .debug_info    0x000000000019fc2f     0x72ac board/octeon/common/libocteon.o
 .debug_info    0x00000000001a6edb    0x34454 common/libcommon.o
 .debug_info    0x00000000001db32f     0x382d disk/libdisk.o
 .debug_info    0x00000000001deb5c     0xe818 drivers/block/libblock.o
 .debug_info    0x00000000001ed374     0x37ef drivers/gpio/libgpio.o
 .debug_info    0x00000000001f0b63     0x3b28 drivers/i2c/libi2c.o
 .debug_info    0x00000000001f468b     0x16ba drivers/input/libinput.o
 .debug_info    0x00000000001f5d45     0x219d drivers/mtd/spi/libspi_flash.o
 .debug_info    0x00000000001f7ee2    0x137a7 drivers/net/libnet.o
 .debug_info    0x000000000020b689     0x32ae drivers/net/phy/libphy.o
 .debug_info    0x000000000020e937     0x35ec drivers/pci/libpci.o
 .debug_info    0x0000000000211f23      0x83a drivers/pcmcia/libpcmcia.o
 .debug_info    0x000000000021275d      0x606 drivers/rtc/librtc.o
 .debug_info    0x0000000000212d63     0x33c6 drivers/serial/libserial.o
 .debug_info    0x0000000000216129     0x2776 drivers/spi/libspi.o
 .debug_info    0x000000000021889f     0x233a drivers/tpm/libtpm.o
 .debug_info    0x000000000021abd9     0xe22c drivers/usb/host/libusb_host.o
 .debug_info    0x0000000000228e05     0x2eeb fs/fat/libfat.o
 .debug_info    0x000000000022bcf0     0x1573 fs/libfs.o
 .debug_info    0x000000000022d263     0x3d0e lib/libfdt/libfdt.o
 .debug_info    0x0000000000230f71     0x98ad lib/libgeneric.o
 .debug_info    0x000000000023a81e     0x13ac lib/zlib/libz.o
 .debug_info    0x000000000023bbca     0x87c4 net/libnet.o
 .debug_info    0x000000000024438e    0x1484a board/juniper/srx_siege/libsrx_siege.o
 .debug_info    0x0000000000258bd8      0x3f4 /homes/markli/u-boot-siege-git/u-boot/gcc_depends/n32/libgcc.a(_ffssi2.o)
 .debug_info    0x0000000000258fcc      0x35a /homes/markli/u-boot-siege-git/u-boot/gcc_depends/n32/libgcc.a(_clz.o)
 .debug_info    0x0000000000259326      0x3f7 /homes/markli/u-boot-siege-git/u-boot/gcc_depends/n32/libgcc.a(_ctzsi2.o)
 .debug_info    0x000000000025971d      0x220 /homes/markli/u-boot-siege-git/u-boot/gcc_depends/n32/libgcc.a(_sf_to_df.o)
 .debug_info    0x000000000025993d      0x1e4 /homes/markli/u-boot-siege-git/u-boot/gcc_depends/n32/libgcc.a(_make_df.o)
 .debug_info    0x0000000000259b21      0x217 /homes/markli/u-boot-siege-git/u-boot/gcc_depends/n32/libgcc.a(_unpack_sf.o)
 .debug_info    0x0000000000259d38      0x2bf /homes/markli/u-boot-siege-git/u-boot/gcc_depends/n32/libgcc.a(_pack_df.o)

.debug_abbrev   0x0000000000000000    0x31523
 *(.debug_abbrev)
 .debug_abbrev  0x0000000000000000       0x14 arch/mips/cpu/octeon/start.o
 .debug_abbrev  0x0000000000000014      0xba0 api/libapi.o
 .debug_abbrev  0x0000000000000bb4     0xf790 arch/mips/cpu/octeon/cvmx/libcvmx.o
 .debug_abbrev  0x0000000000010344     0x5cb4 arch/mips/cpu/octeon/libocteon.o
 .debug_abbrev  0x0000000000015ff8      0x878 arch/mips/lib/libmips.o
 .debug_abbrev  0x0000000000016870      0x230 board/juniper/common/libjuniper.o
 .debug_abbrev  0x0000000000016aa0     0x11f1 board/octeon/common/libocteon.o
 .debug_abbrev  0x0000000000017c91     0x905b common/libcommon.o
 .debug_abbrev  0x0000000000020cec      0xa01 disk/libdisk.o
 .debug_abbrev  0x00000000000216ed     0x1368 drivers/block/libblock.o
 .debug_abbrev  0x0000000000022a55      0x667 drivers/gpio/libgpio.o
 .debug_abbrev  0x00000000000230bc      0x87f drivers/i2c/libi2c.o
 .debug_abbrev  0x000000000002393b      0x5cf drivers/input/libinput.o
 .debug_abbrev  0x0000000000023f0a      0x6ea drivers/mtd/spi/libspi_flash.o
 .debug_abbrev  0x00000000000245f4      0xefc drivers/net/libnet.o
 .debug_abbrev  0x00000000000254f0      0x888 drivers/net/phy/libphy.o
 .debug_abbrev  0x0000000000025d78      0x982 drivers/pci/libpci.o
 .debug_abbrev  0x00000000000266fa      0x214 drivers/pcmcia/libpcmcia.o
 .debug_abbrev  0x000000000002690e      0x1ce drivers/rtc/librtc.o
 .debug_abbrev  0x0000000000026adc      0x75d drivers/serial/libserial.o
 .debug_abbrev  0x0000000000027239      0x5f2 drivers/spi/libspi.o
 .debug_abbrev  0x000000000002782b      0x69c drivers/tpm/libtpm.o
 .debug_abbrev  0x0000000000027ec7     0x121c drivers/usb/host/libusb_host.o
 .debug_abbrev  0x00000000000290e3      0x6e0 fs/fat/libfat.o
 .debug_abbrev  0x00000000000297c3      0x340 fs/libfs.o
 .debug_abbrev  0x0000000000029b03      0xcf1 lib/libfdt/libfdt.o
 .debug_abbrev  0x000000000002a7f4     0x257b lib/libgeneric.o
 .debug_abbrev  0x000000000002cd6f      0x36c lib/zlib/libz.o
 .debug_abbrev  0x000000000002d0db     0x1eb4 net/libnet.o
 .debug_abbrev  0x000000000002ef8f     0x1df7 board/juniper/srx_siege/libsrx_siege.o
 .debug_abbrev  0x0000000000030d86      0x108 /homes/markli/u-boot-siege-git/u-boot/gcc_depends/n32/libgcc.a(_ffssi2.o)
 .debug_abbrev  0x0000000000030e8e       0xb6 /homes/markli/u-boot-siege-git/u-boot/gcc_depends/n32/libgcc.a(_clz.o)
 .debug_abbrev  0x0000000000030f44      0x106 /homes/markli/u-boot-siege-git/u-boot/gcc_depends/n32/libgcc.a(_ctzsi2.o)
 .debug_abbrev  0x000000000003104a      0x121 /homes/markli/u-boot-siege-git/u-boot/gcc_depends/n32/libgcc.a(_sf_to_df.o)
 .debug_abbrev  0x000000000003116b      0x118 /homes/markli/u-boot-siege-git/u-boot/gcc_depends/n32/libgcc.a(_make_df.o)
 .debug_abbrev  0x0000000000031283      0x135 /homes/markli/u-boot-siege-git/u-boot/gcc_depends/n32/libgcc.a(_unpack_sf.o)
 .debug_abbrev  0x00000000000313b8      0x16b /homes/markli/u-boot-siege-git/u-boot/gcc_depends/n32/libgcc.a(_pack_df.o)

.debug_line     0x0000000000000000    0x7b20c
 *(.debug_line)
 .debug_line    0x0000000000000000      0x5c8 arch/mips/cpu/octeon/start.o
 .debug_line    0x00000000000005c8      0xe66 api/libapi.o
 .debug_line    0x000000000000142e    0x3a1e1 arch/mips/cpu/octeon/cvmx/libcvmx.o
 .debug_line    0x000000000003b60f    0x16772 arch/mips/cpu/octeon/libocteon.o
 .debug_line    0x0000000000051d81      0xfe1 arch/mips/lib/libmips.o
 .debug_line    0x0000000000052d62      0x2cd board/juniper/common/libjuniper.o
 .debug_line    0x000000000005302f     0x168d board/octeon/common/libocteon.o
 .debug_line    0x00000000000546bc     0xc094 common/libcommon.o
 .debug_line    0x0000000000060750      0xdd2 disk/libdisk.o
 .debug_line    0x0000000000061522     0x28f7 drivers/block/libblock.o
 .debug_line    0x0000000000063e19      0x907 drivers/gpio/libgpio.o
 .debug_line    0x0000000000064720      0xe53 drivers/i2c/libi2c.o
 .debug_line    0x0000000000065573      0x4c4 drivers/input/libinput.o
 .debug_line    0x0000000000065a37      0x7b5 drivers/mtd/spi/libspi_flash.o
 .debug_line    0x00000000000661ec     0x28c4 drivers/net/libnet.o
 .debug_line    0x0000000000068ab0      0xa9f drivers/net/phy/libphy.o
 .debug_line    0x000000000006954f      0xcdb drivers/pci/libpci.o
 .debug_line    0x000000000006a22a      0x26d drivers/pcmcia/libpcmcia.o
 .debug_line    0x000000000006a497      0x195 drivers/rtc/librtc.o
 .debug_line    0x000000000006a62c      0xa35 drivers/serial/libserial.o
 .debug_line    0x000000000006b061      0x66a drivers/spi/libspi.o
 .debug_line    0x000000000006b6cb      0x93a drivers/tpm/libtpm.o
 .debug_line    0x000000000006c005     0x2a81 drivers/usb/host/libusb_host.o
 .debug_line    0x000000000006ea86      0xe39 fs/fat/libfat.o
 .debug_line    0x000000000006f8bf      0x409 fs/libfs.o
 .debug_line    0x000000000006fcc8     0x11e2 lib/libfdt/libfdt.o
 .debug_line    0x0000000000070eaa     0x2b0f lib/libgeneric.o
 .debug_line    0x00000000000739b9      0x817 lib/zlib/libz.o
 .debug_line    0x00000000000741d0     0x241c net/libnet.o
 .debug_line    0x00000000000765ec     0x43ef board/juniper/srx_siege/libsrx_siege.o
 .debug_line    0x000000000007a9db      0x1f8 /homes/markli/u-boot-siege-git/u-boot/gcc_depends/n32/libgcc.a(_ffssi2.o)
 .debug_line    0x000000000007abd3      0x1bb /homes/markli/u-boot-siege-git/u-boot/gcc_depends/n32/libgcc.a(_clz.o)
 .debug_line    0x000000000007ad8e      0x1f1 /homes/markli/u-boot-siege-git/u-boot/gcc_depends/n32/libgcc.a(_ctzsi2.o)
 .debug_line    0x000000000007af7f       0x8a /homes/markli/u-boot-siege-git/u-boot/gcc_depends/n32/libgcc.a(_sf_to_df.o)
 .debug_line    0x000000000007b009       0x88 /homes/markli/u-boot-siege-git/u-boot/gcc_depends/n32/libgcc.a(_make_df.o)
 .debug_line    0x000000000007b091       0xb1 /homes/markli/u-boot-siege-git/u-boot/gcc_depends/n32/libgcc.a(_unpack_sf.o)
 .debug_line    0x000000000007b142       0xca /homes/markli/u-boot-siege-git/u-boot/gcc_depends/n32/libgcc.a(_pack_df.o)

.debug_frame    0x0000000000000000    0x15dc8
 *(.debug_frame)
 .debug_frame   0x0000000000000000      0x478 api/libapi.o
 .debug_frame   0x0000000000000478     0x74b4 arch/mips/cpu/octeon/cvmx/libcvmx.o
 .debug_frame   0x000000000000792c     0x2eec arch/mips/cpu/octeon/libocteon.o
 .debug_frame   0x000000000000a818      0x338 arch/mips/lib/libmips.o
 .debug_frame   0x000000000000ab50       0xa0 board/juniper/common/libjuniper.o
 .debug_frame   0x000000000000abf0      0x504 board/octeon/common/libocteon.o
 .debug_frame   0x000000000000b0f4     0x3ad8 common/libcommon.o
 .debug_frame   0x000000000000ebcc      0x3cc disk/libdisk.o
 .debug_frame   0x000000000000ef98      0xd6c drivers/block/libblock.o
 .debug_frame   0x000000000000fd04      0x1c0 drivers/gpio/libgpio.o
 .debug_frame   0x000000000000fec4      0x560 drivers/i2c/libi2c.o
 .debug_frame   0x0000000000010424      0x1a8 drivers/input/libinput.o
 .debug_frame   0x00000000000105cc      0x244 drivers/mtd/spi/libspi_flash.o
 .debug_frame   0x0000000000010810      0x560 drivers/net/libnet.o
 .debug_frame   0x0000000000010d70      0x3c4 drivers/net/phy/libphy.o
 .debug_frame   0x0000000000011134      0x598 drivers/pci/libpci.o
 .debug_frame   0x00000000000116cc       0x44 drivers/rtc/librtc.o
 .debug_frame   0x0000000000011710      0x314 drivers/serial/libserial.o
 .debug_frame   0x0000000000011a24      0x164 drivers/spi/libspi.o
 .debug_frame   0x0000000000011b88      0x374 drivers/tpm/libtpm.o
 .debug_frame   0x0000000000011efc      0x850 drivers/usb/host/libusb_host.o
 .debug_frame   0x000000000001274c      0x48c fs/fat/libfat.o
 .debug_frame   0x0000000000012bd8      0x1e0 fs/libfs.o
 .debug_frame   0x0000000000012db8      0x994 lib/libfdt/libfdt.o
 .debug_frame   0x000000000001374c      0xe58 lib/libgeneric.o
 .debug_frame   0x00000000000145a4      0x130 lib/zlib/libz.o
 .debug_frame   0x00000000000146d4      0xb40 net/libnet.o
 .debug_frame   0x0000000000015214      0xbb4 board/juniper/srx_siege/libsrx_siege.o

.debug_str      0x0000000000000000    0x45498
 *(.debug_str)
 .debug_str     0x0000000000000000     0x1b59 api/libapi.o
                                       0x36ee (size before relaxing)
 .debug_str     0x0000000000001b59    0x21148 arch/mips/cpu/octeon/cvmx/libcvmx.o
                                      0x6676f (size before relaxing)
 .debug_str     0x0000000000022ca1     0xde9c arch/mips/cpu/octeon/libocteon.o
                                      0x24d7f (size before relaxing)
 .debug_str     0x0000000000030b3d     0x1045 arch/mips/lib/libmips.o
                                       0x3d9b (size before relaxing)
 .debug_str     0x0000000000031b82       0xdb board/juniper/common/libjuniper.o
                                       0x18bc (size before relaxing)
 .debug_str     0x0000000000031c5d      0x905 board/octeon/common/libocteon.o
                                       0x5e29 (size before relaxing)
 .debug_str     0x0000000000032562     0x5761 common/libcommon.o
                                      0x20419 (size before relaxing)
 .debug_str     0x0000000000037cc3      0x68a disk/libdisk.o
                                       0x1cc3 (size before relaxing)
 .debug_str     0x000000000003834d     0x3586 drivers/block/libblock.o
                                       0xbdf5 (size before relaxing)
 .debug_str     0x000000000003b8d3      0x204 drivers/gpio/libgpio.o
                                       0x13bf (size before relaxing)
 .debug_str     0x000000000003bad7      0x48a drivers/i2c/libi2c.o
                                       0x19cc (size before relaxing)
 .debug_str     0x000000000003bf61      0x427 drivers/input/libinput.o
                                        0xba8 (size before relaxing)
 .debug_str     0x000000000003c388      0x7c6 drivers/mtd/spi/libspi_flash.o
                                       0x17d8 (size before relaxing)
 .debug_str     0x000000000003cb4e      0xb38 drivers/net/libnet.o
                                       0x6ad7 (size before relaxing)
 .debug_str     0x000000000003d686      0x39e drivers/net/phy/libphy.o
                                       0x1778 (size before relaxing)
 .debug_str     0x000000000003da24      0x5ce drivers/pci/libpci.o
                                       0x15ff (size before relaxing)
 .debug_str     0x000000000003dff2       0x52 drivers/pcmcia/libpcmcia.o
                                        0x6b9 (size before relaxing)
 .debug_str     0x000000000003e044       0x7f drivers/rtc/librtc.o
                                        0x3e2 (size before relaxing)
 .debug_str     0x000000000003e0c3      0x3e9 drivers/serial/libserial.o
                                       0x1785 (size before relaxing)
 .debug_str     0x000000000003e4ac      0x2e0 drivers/spi/libspi.o
                                       0x10a4 (size before relaxing)
 .debug_str     0x000000000003e78c      0xbf5 drivers/tpm/libtpm.o
                                       0x1651 (size before relaxing)
 .debug_str     0x000000000003f381     0x1b90 drivers/usb/host/libusb_host.o
                                       0x58a3 (size before relaxing)
 .debug_str     0x0000000000040f11      0x763 fs/fat/libfat.o
                                       0x1079 (size before relaxing)
 .debug_str     0x0000000000041674      0x180 fs/libfs.o
                                        0xae9 (size before relaxing)
 .debug_str     0x00000000000417f4      0x8bf lib/libfdt/libfdt.o
                                       0x16e8 (size before relaxing)
 .debug_str     0x00000000000420b3      0x985 lib/libgeneric.o
                                       0x5e64 (size before relaxing)
 .debug_str     0x0000000000042a38      0x341 lib/zlib/libz.o
                                        0x7d7 (size before relaxing)
 .debug_str     0x0000000000042d79     0x11f9 net/libnet.o
                                       0x5bc9 (size before relaxing)
 .debug_str     0x0000000000043f72     0x1117 board/juniper/srx_siege/libsrx_siege.o
                                       0xb0a5 (size before relaxing)
 .debug_str     0x0000000000045089      0x29e /homes/markli/u-boot-siege-git/u-boot/gcc_depends/n32/libgcc.a(_ffssi2.o)
                                        0x37a (size before relaxing)
 .debug_str     0x0000000000000000      0x34e /homes/markli/u-boot-siege-git/u-boot/gcc_depends/n32/libgcc.a(_clz.o)
 .debug_str     0x0000000000045327        0x9 /homes/markli/u-boot-siege-git/u-boot/gcc_depends/n32/libgcc.a(_ctzsi2.o)
                                        0x37b (size before relaxing)
 .debug_str     0x0000000000045330      0x11f /homes/markli/u-boot-siege-git/u-boot/gcc_depends/n32/libgcc.a(_sf_to_df.o)
                                        0x21d (size before relaxing)
 .debug_str     0x000000000004544f       0x1b /homes/markli/u-boot-siege-git/u-boot/gcc_depends/n32/libgcc.a(_make_df.o)
                                        0x1e1 (size before relaxing)
 .debug_str     0x000000000004546a        0xb /homes/markli/u-boot-siege-git/u-boot/gcc_depends/n32/libgcc.a(_unpack_sf.o)
                                        0x205 (size before relaxing)
 .debug_str     0x0000000000045475       0x23 /homes/markli/u-boot-siege-git/u-boot/gcc_depends/n32/libgcc.a(_pack_df.o)
                                        0x229 (size before relaxing)

.debug_loc      0x0000000000000000    0xc4d53
 *(.debug_loc)
 .debug_loc     0x0000000000000000      0xca3 api/libapi.o
 .debug_loc     0x0000000000000ca3    0x514cf arch/mips/cpu/octeon/cvmx/libcvmx.o
 .debug_loc     0x0000000000052172    0x2c3a3 arch/mips/cpu/octeon/libocteon.o
 .debug_loc     0x000000000007e515      0xd85 arch/mips/lib/libmips.o
 .debug_loc     0x000000000007f29a      0x158 board/juniper/common/libjuniper.o
 .debug_loc     0x000000000007f3f2     0x1ef2 board/octeon/common/libocteon.o
 .debug_loc     0x00000000000812e4    0x19714 common/libcommon.o
 .debug_loc     0x000000000009a9f8     0x14bb disk/libdisk.o
 .debug_loc     0x000000000009beb3     0x4e7e drivers/block/libblock.o
 .debug_loc     0x00000000000a0d31      0xae6 drivers/gpio/libgpio.o
 .debug_loc     0x00000000000a1817     0x1636 drivers/i2c/libi2c.o
 .debug_loc     0x00000000000a2e4d      0x98b drivers/input/libinput.o
 .debug_loc     0x00000000000a37d8      0xde4 drivers/mtd/spi/libspi_flash.o
 .debug_loc     0x00000000000a45bc     0x330e drivers/net/libnet.o
 .debug_loc     0x00000000000a78ca     0x124c drivers/net/phy/libphy.o
 .debug_loc     0x00000000000a8b16     0x1c06 drivers/pci/libpci.o
 .debug_loc     0x00000000000aa71c      0x153 drivers/rtc/librtc.o
 .debug_loc     0x00000000000aa86f      0x94f drivers/serial/libserial.o
 .debug_loc     0x00000000000ab1be      0x5d9 drivers/spi/libspi.o
 .debug_loc     0x00000000000ab797      0xf58 drivers/tpm/libtpm.o
 .debug_loc     0x00000000000ac6ef     0x3f36 drivers/usb/host/libusb_host.o
 .debug_loc     0x00000000000b0625     0x2614 fs/fat/libfat.o
 .debug_loc     0x00000000000b2c39      0x89e fs/libfs.o
 .debug_loc     0x00000000000b34d7     0x36e3 lib/libfdt/libfdt.o
 .debug_loc     0x00000000000b6bba     0x4721 lib/libgeneric.o
 .debug_loc     0x00000000000bb2db     0x185b lib/zlib/libz.o
 .debug_loc     0x00000000000bcb36     0x3020 net/libnet.o
 .debug_loc     0x00000000000bfb56     0x4b77 board/juniper/srx_siege/libsrx_siege.o
 .debug_loc     0x00000000000c46cd       0xd4 /homes/markli/u-boot-siege-git/u-boot/gcc_depends/n32/libgcc.a(_ffssi2.o)
 .debug_loc     0x00000000000c47a1       0xd0 /homes/markli/u-boot-siege-git/u-boot/gcc_depends/n32/libgcc.a(_ctzsi2.o)
 .debug_loc     0x00000000000c4871       0x5b /homes/markli/u-boot-siege-git/u-boot/gcc_depends/n32/libgcc.a(_sf_to_df.o)
 .debug_loc     0x00000000000c48cc       0xbe /homes/markli/u-boot-siege-git/u-boot/gcc_depends/n32/libgcc.a(_make_df.o)
 .debug_loc     0x00000000000c498a       0xf1 /homes/markli/u-boot-siege-git/u-boot/gcc_depends/n32/libgcc.a(_unpack_sf.o)
 .debug_loc     0x00000000000c4a7b      0x2d8 /homes/markli/u-boot-siege-git/u-boot/gcc_depends/n32/libgcc.a(_pack_df.o)

.debug_macinfo
 *(.debug_macinfo)

.debug_weaknames
 *(.debug_weaknames)

.debug_funcnames
 *(.debug_funcnames)

.debug_typenames
 *(.debug_typenames)

.debug_varnames
 *(.debug_varnames)

.gptab.sdata
 *(.gptab.data)
 *(.gptab.sdata)

.gptab.sbss
 *(.gptab.bss)
 *(.gptab.sbss)

/DISCARD/
 *(.note.GNU-stack)
Address of section .text set to 0xc0000000
LOAD arch/mips/cpu/octeon/start.o
START GROUP
LOAD api/libapi.o
LOAD arch/mips/cpu/octeon/cvmx/libcvmx.o
LOAD arch/mips/cpu/octeon/libocteon.o
LOAD arch/mips/lib/libmips.o
LOAD board/juniper/common/libjuniper.o
LOAD board/octeon/common/libocteon.o
LOAD common/libcommon.o
LOAD disk/libdisk.o
LOAD drivers/bios_emulator/libatibiosemu.o
LOAD drivers/block/libblock.o
LOAD drivers/crypto/libcrypto.o
LOAD drivers/dfu/libdfu.o
LOAD drivers/dma/libdma.o
LOAD drivers/fpga/libfpga.o
LOAD drivers/gpio/libgpio.o
LOAD drivers/hwmon/libhwmon.o
LOAD drivers/i2c/libi2c.o
LOAD drivers/input/libinput.o
LOAD drivers/misc/libmisc.o
LOAD drivers/mmc/libmmc.o
LOAD drivers/mtd/libmtd.o
LOAD drivers/mtd/nand/libnand.o
LOAD drivers/mtd/onenand/libonenand.o
LOAD drivers/mtd/spi/libspi_flash.o
LOAD drivers/mtd/ubi/libubi.o
LOAD drivers/net/libnet.o
LOAD drivers/net/phy/libphy.o
LOAD drivers/pci/libpci.o
LOAD drivers/pcmcia/libpcmcia.o
LOAD drivers/power/battery/libbattery.o
LOAD drivers/power/fuel_gauge/libfuel_gauge.o
LOAD drivers/power/libpower.o
LOAD drivers/power/pmbus/libpmbus.o
LOAD drivers/power/pmic/libpmic.o
LOAD drivers/rtc/librtc.o
LOAD drivers/serial/libserial.o
LOAD drivers/sound/libsound.o
LOAD drivers/spi/libspi.o
LOAD drivers/tpm/libtpm.o
LOAD drivers/twserial/libtws.o
LOAD drivers/usb/eth/libusb_eth.o
LOAD drivers/usb/gadget/libusb_gadget.o
LOAD drivers/usb/host/libusb_host.o
LOAD drivers/usb/musb-new/libusb_musb-new.o
LOAD drivers/usb/musb/libusb_musb.o
LOAD drivers/usb/phy/libusb_phy.o
LOAD drivers/usb/ulpi/libusb_ulpi.o
LOAD drivers/video/libvideo.o
LOAD drivers/watchdog/libwatchdog.o
LOAD fs/cbfs/libcbfs.o
LOAD fs/cramfs/libcramfs.o
LOAD fs/ext4/libext4fs.o
LOAD fs/fat/libfat.o
LOAD fs/fdos/libfdos.o
LOAD fs/jffs2/libjffs2.o
LOAD fs/libfs.o
LOAD fs/reiserfs/libreiserfs.o
LOAD fs/sandbox/libsandboxfs.o
LOAD fs/ubifs/libubifs.o
LOAD fs/yaffs2/libyaffs2.o
LOAD fs/zfs/libzfs.o
LOAD lib/libfdt/libfdt.o
LOAD lib/libgeneric.o
LOAD lib/lzma/liblzma.o
LOAD lib/lzo/liblzo.o
LOAD lib/rsa/librsa.o
LOAD lib/zlib/libz.o
LOAD net/libnet.o
LOAD post/libpost.o
LOAD test/libtest.o
LOAD board/juniper/srx_siege/libsrx_siege.o
END GROUP
LOAD /homes/markli/u-boot-siege-git/u-boot/gcc_depends/n32/libgcc.a
OUTPUT(u-boot elf32-ntradbigmips)

.comment        0x0000000000000000     0x1dbd
 .comment       0x0000000000000000       0x96 api/libapi.o
 .comment       0x0000000000000096      0x780 arch/mips/cpu/octeon/cvmx/libcvmx.o
 .comment       0x0000000000000816      0x384 arch/mips/cpu/octeon/libocteon.o
 .comment       0x0000000000000b9a       0x3c arch/mips/lib/libmips.o
 .comment       0x0000000000000bd6       0x1e board/juniper/common/libjuniper.o
 .comment       0x0000000000000bf4       0xb4 board/octeon/common/libocteon.o
 .comment       0x0000000000000ca8      0x636 common/libcommon.o
 .comment       0x00000000000012de       0x5a disk/libdisk.o
 .comment       0x0000000000001338       0x78 drivers/block/libblock.o
 .comment       0x00000000000013b0       0x3c drivers/gpio/libgpio.o
 .comment       0x00000000000013ec       0x3c drivers/i2c/libi2c.o
 .comment       0x0000000000001428       0x3c drivers/input/libinput.o
 .comment       0x0000000000001464       0x5a drivers/mtd/spi/libspi_flash.o
 .comment       0x00000000000014be       0x5a drivers/net/libnet.o
 .comment       0x0000000000001518       0x5a drivers/net/phy/libphy.o
 .comment       0x0000000000001572       0x5a drivers/pci/libpci.o
 .comment       0x00000000000015cc       0x3c drivers/pcmcia/libpcmcia.o
 .comment       0x0000000000001608       0x1e drivers/rtc/librtc.o
 .comment       0x0000000000001626       0x3c drivers/serial/libserial.o
 .comment       0x0000000000001662       0x3c drivers/spi/libspi.o
 .comment       0x000000000000169e       0x3c drivers/tpm/libtpm.o
 .comment       0x00000000000016da       0x78 drivers/usb/host/libusb_host.o
 .comment       0x0000000000001752       0x3c fs/fat/libfat.o
 .comment       0x000000000000178e       0x1e fs/libfs.o
 .comment       0x00000000000017ac       0xd2 lib/libfdt/libfdt.o
 .comment       0x000000000000187e      0x2b2 lib/libgeneric.o
 .comment       0x0000000000001b30       0x1e lib/zlib/libz.o
 .comment       0x0000000000001b4e      0x10e net/libnet.o
 .comment       0x0000000000001c5c      0x12c board/juniper/srx_siege/libsrx_siege.o
 .comment       0x0000000000001d88       0x35 /homes/markli/u-boot-siege-git/u-boot/gcc_depends/n32/libgcc.a(_ffssi2.o)
                                         0x36 (size before relaxing)
 .comment       0x0000000000000000       0x36 /homes/markli/u-boot-siege-git/u-boot/gcc_depends/n32/libgcc.a(_clz.o)
 .comment       0x0000000000000000       0x36 /homes/markli/u-boot-siege-git/u-boot/gcc_depends/n32/libgcc.a(_ctzsi2.o)
 .comment       0x0000000000000000       0x36 /homes/markli/u-boot-siege-git/u-boot/gcc_depends/n32/libgcc.a(_sf_to_df.o)
 .comment       0x0000000000000000       0x36 /homes/markli/u-boot-siege-git/u-boot/gcc_depends/n32/libgcc.a(_make_df.o)
 .comment       0x0000000000000000       0x36 /homes/markli/u-boot-siege-git/u-boot/gcc_depends/n32/libgcc.a(_unpack_sf.o)
 .comment       0x0000000000000000       0x36 /homes/markli/u-boot-siege-git/u-boot/gcc_depends/n32/libgcc.a(_pack_df.o)

.debug_ranges   0x0000000000000000    0x42a88
 .debug_ranges  0x0000000000000000       0xf0 api/libapi.o
 .debug_ranges  0x00000000000000f0    0x29ad8 arch/mips/cpu/octeon/cvmx/libcvmx.o
 .debug_ranges  0x0000000000029bc8     0xce50 arch/mips/cpu/octeon/libocteon.o
 .debug_ranges  0x0000000000036a18      0x398 arch/mips/lib/libmips.o
 .debug_ranges  0x0000000000036db0      0x570 board/octeon/common/libocteon.o
 .debug_ranges  0x0000000000037320     0x25c8 common/libcommon.o
 .debug_ranges  0x00000000000398e8      0x2c8 disk/libdisk.o
 .debug_ranges  0x0000000000039bb0     0x1298 drivers/block/libblock.o
 .debug_ranges  0x000000000003ae48      0x3d0 drivers/gpio/libgpio.o
 .debug_ranges  0x000000000003b218      0x3d8 drivers/i2c/libi2c.o
 .debug_ranges  0x000000000003b5f0      0x130 drivers/input/libinput.o
 .debug_ranges  0x000000000003b720       0x48 drivers/mtd/spi/libspi_flash.o
 .debug_ranges  0x000000000003b768     0x1ad8 drivers/net/libnet.o
 .debug_ranges  0x000000000003d240      0x368 drivers/net/phy/libphy.o
 .debug_ranges  0x000000000003d5a8       0xe0 drivers/pci/libpci.o
 .debug_ranges  0x000000000003d688      0x428 drivers/serial/libserial.o
 .debug_ranges  0x000000000003dab0      0x400 drivers/spi/libspi.o
 .debug_ranges  0x000000000003deb0      0x2d0 drivers/tpm/libtpm.o
 .debug_ranges  0x000000000003e180     0x16e8 drivers/usb/host/libusb_host.o
 .debug_ranges  0x000000000003f868      0x640 fs/fat/libfat.o
 .debug_ranges  0x000000000003fea8      0x818 lib/libfdt/libfdt.o
 .debug_ranges  0x00000000000406c0      0x4d0 lib/libgeneric.o
 .debug_ranges  0x0000000000040b90       0x18 lib/zlib/libz.o
 .debug_ranges  0x0000000000040ba8      0x948 net/libnet.o
 .debug_ranges  0x00000000000414f0     0x1548 board/juniper/srx_siege/libsrx_siege.o
 .debug_ranges  0x0000000000042a38       0x50 /homes/markli/u-boot-siege-git/u-boot/gcc_depends/n32/libgcc.a(_ctzsi2.o)

.mdebug.abiN32  0x0000000000000000        0x0
 .mdebug.abiN32
                0x0000000000000000        0x0 api/libapi.o
 .mdebug.abiN32
                0x0000000000000000        0x0 arch/mips/cpu/octeon/cvmx/libcvmx.o
 .mdebug.abiN32
                0x0000000000000000        0x0 arch/mips/cpu/octeon/libocteon.o
 .mdebug.abiN32
                0x0000000000000000        0x0 arch/mips/lib/libmips.o
 .mdebug.abiN32
                0x0000000000000000        0x0 board/juniper/common/libjuniper.o
 .mdebug.abiN32
                0x0000000000000000        0x0 board/octeon/common/libocteon.o
 .mdebug.abiN32
                0x0000000000000000        0x0 common/libcommon.o
 .mdebug.abiN32
                0x0000000000000000        0x0 disk/libdisk.o
 .mdebug.abiN32
                0x0000000000000000        0x0 drivers/block/libblock.o
 .mdebug.abiN32
                0x0000000000000000        0x0 drivers/gpio/libgpio.o
 .mdebug.abiN32
                0x0000000000000000        0x0 drivers/i2c/libi2c.o
 .mdebug.abiN32
                0x0000000000000000        0x0 drivers/input/libinput.o
 .mdebug.abiN32
                0x0000000000000000        0x0 drivers/mtd/spi/libspi_flash.o
 .mdebug.abiN32
                0x0000000000000000        0x0 drivers/net/libnet.o
 .mdebug.abiN32
                0x0000000000000000        0x0 drivers/net/phy/libphy.o
 .mdebug.abiN32
                0x0000000000000000        0x0 drivers/pci/libpci.o
 .mdebug.abiN32
                0x0000000000000000        0x0 drivers/pcmcia/libpcmcia.o
 .mdebug.abiN32
                0x0000000000000000        0x0 drivers/rtc/librtc.o
 .mdebug.abiN32
                0x0000000000000000        0x0 drivers/serial/libserial.o
 .mdebug.abiN32
                0x0000000000000000        0x0 drivers/spi/libspi.o
 .mdebug.abiN32
                0x0000000000000000        0x0 drivers/tpm/libtpm.o
 .mdebug.abiN32
                0x0000000000000000        0x0 drivers/usb/host/libusb_host.o
 .mdebug.abiN32
                0x0000000000000000        0x0 fs/fat/libfat.o
 .mdebug.abiN32
                0x0000000000000000        0x0 fs/libfs.o
 .mdebug.abiN32
                0x0000000000000000        0x0 lib/libfdt/libfdt.o
 .mdebug.abiN32
                0x0000000000000000        0x0 lib/libgeneric.o
 .mdebug.abiN32
                0x0000000000000000        0x0 lib/zlib/libz.o
 .mdebug.abiN32
                0x0000000000000000        0x0 net/libnet.o
 .mdebug.abiN32
                0x0000000000000000        0x0 board/juniper/srx_siege/libsrx_siege.o
 .mdebug.abiN32
                0x0000000000000000        0x0 /homes/markli/u-boot-siege-git/u-boot/gcc_depends/n32/libgcc.a(_ffssi2.o)
 .mdebug.abiN32
                0x0000000000000000        0x0 /homes/markli/u-boot-siege-git/u-boot/gcc_depends/n32/libgcc.a(_clz.o)
 .mdebug.abiN32
                0x0000000000000000        0x0 /homes/markli/u-boot-siege-git/u-boot/gcc_depends/n32/libgcc.a(_ctzsi2.o)
 .mdebug.abiN32
                0x0000000000000000        0x0 /homes/markli/u-boot-siege-git/u-boot/gcc_depends/n32/libgcc.a(_sf_to_df.o)
 .mdebug.abiN32
                0x0000000000000000        0x0 /homes/markli/u-boot-siege-git/u-boot/gcc_depends/n32/libgcc.a(_make_df.o)
 .mdebug.abiN32
                0x0000000000000000        0x0 /homes/markli/u-boot-siege-git/u-boot/gcc_depends/n32/libgcc.a(_unpack_sf.o)
 .mdebug.abiN32
                0x0000000000000000        0x0 /homes/markli/u-boot-siege-git/u-boot/gcc_depends/n32/libgcc.a(_pack_df.o)

.pdr            0x0000000000000000        0x0
 .pdr           0x0000000000000000        0x0 drivers/pcmcia/libpcmcia.o
 .pdr           0x0000000000000000        0x0 /homes/markli/u-boot-siege-git/u-boot/gcc_depends/n32/libgcc.a(_clz.o)

.gnu.attributes
                0x0000000000000000       0x10
 .gnu.attributes
                0x0000000000000000       0x10 /homes/markli/u-boot-siege-git/u-boot/gcc_depends/n32/libgcc.a(_ffssi2.o)
 .gnu.attributes
                0x0000000000000010       0x10 /homes/markli/u-boot-siege-git/u-boot/gcc_depends/n32/libgcc.a(_clz.o)
 .gnu.attributes
                0x0000000000000020       0x10 /homes/markli/u-boot-siege-git/u-boot/gcc_depends/n32/libgcc.a(_ctzsi2.o)
 .gnu.attributes
                0x0000000000000030       0x10 /homes/markli/u-boot-siege-git/u-boot/gcc_depends/n32/libgcc.a(_sf_to_df.o)
 .gnu.attributes
                0x0000000000000040       0x10 /homes/markli/u-boot-siege-git/u-boot/gcc_depends/n32/libgcc.a(_make_df.o)
 .gnu.attributes
                0x0000000000000050       0x10 /homes/markli/u-boot-siege-git/u-boot/gcc_depends/n32/libgcc.a(_unpack_sf.o)
 .gnu.attributes
                0x0000000000000060       0x10 /homes/markli/u-boot-siege-git/u-boot/gcc_depends/n32/libgcc.a(_pack_df.o)
